

Microchip MPLAB XC8 Assembler V2.10 build 88905656 
                                                                                               Sun Mar 01 22:13:10 2020

Microchip MPLAB XC8 C Compiler v2.10 (Free license) build 20190730164152 Og1 
     1                           	processor	16F887
     2                           	opt	pw 120
     3                           	opt	flic
     4                           	psect	strings,global,class=STRING,delta=2
     5                           	psect	cinit,global,class=CODE,merge=1,delta=2
     6                           	psect	bssBANK0,global,class=BANK0,space=1,delta=1
     7                           	psect	cstackCOMMON,global,class=COMMON,space=1,delta=1
     8                           	psect	cstackBANK0,global,class=BANK0,space=1,delta=1
     9                           	psect	maintext,global,class=CODE,split=1,delta=2
    10                           	psect	text1,local,class=CODE,merge=1,delta=2
    11                           	psect	text2,local,class=CODE,merge=1,delta=2
    12                           	psect	text3,local,class=CODE,merge=1,delta=2
    13                           	psect	text4,local,class=CODE,merge=1,delta=2
    14                           	psect	text5,local,class=CODE,merge=1,delta=2
    15                           	psect	text6,local,class=CODE,merge=1,delta=2
    16                           	psect	text7,local,class=CODE,merge=1,delta=2
    17                           	psect	text8,local,class=CODE,merge=1,delta=2
    18                           	psect	text9,local,class=CODE,merge=1,delta=2,group=1
    19                           	psect	text10,local,class=CODE,merge=1,delta=2,group=1
    20                           	psect	text11,local,class=CODE,merge=1,delta=2,group=1
    21                           	psect	text12,local,class=CODE,merge=1,delta=2,group=1
    22                           	psect	text13,local,class=CODE,merge=1,delta=2,group=1
    23                           	psect	text14,local,class=CODE,merge=1,delta=2,group=1
    24                           	psect	text15,local,class=CODE,merge=1,delta=2,group=1
    25                           	psect	text16,local,class=CODE,merge=1,delta=2
    26                           	dabs	1,0x7E,2
    27  0000                     
    28                           ; Version 2.10
    29                           ; Generated 31/07/2019 GMT
    30                           ; 
    31                           ; Copyright © 2019, Microchip Technology Inc. and its subsidiaries ("Microchip")
    32                           ; All rights reserved.
    33                           ; 
    34                           ; This software is developed by Microchip Technology Inc. and its subsidiaries ("Microch
      +                          ip").
    35                           ; 
    36                           ; Redistribution and use in source and binary forms, with or without modification, are
    37                           ; permitted provided that the following conditions are met:
    38                           ; 
    39                           ;     1. Redistributions of source code must retain the above copyright notice, this lis
      +                          t of
    40                           ;        conditions and the following disclaimer.
    41                           ; 
    42                           ;     2. Redistributions in binary form must reproduce the above copyright notice, this 
      +                          list
    43                           ;        of conditions and the following disclaimer in the documentation and/or other
    44                           ;        materials provided with the distribution.
    45                           ; 
    46                           ;     3. Microchip's name may not be used to endorse or promote products derived from th
      +                          is
    47                           ;        software without specific prior written permission.
    48                           ; 
    49                           ; THIS SOFTWARE IS PROVIDED BY MICROCHIP "AS IS" AND ANY EXPRESS OR IMPLIED WARRANTIES,
    50                           ; INCLUDING, BUT NOT LIMITED TO, THE IMPLIED WARRANTIES OF MERCHANTABILITY AND FITNESS F
      +                          OR
    51                           ; PURPOSE ARE DISCLAIMED.  IN NO EVENT SHALL MICROCHIP BE LIABLE FOR ANY DIRECT, INDIREC
      +                          T,
    52                           ; INCIDENTAL, SPECIAL, EXEMPLARY, OR CONSEQUENTIAL DAMAGES (INCLUDING BUT NOT LIMITED TO
    53                           ; PROCUREMENT OF SUBSTITUTE GOODS OR SERVICES; LOSS OF USE, DATA OR PROFITS; OR BUSINESS
    54                           ; INTERRUPTION) HOWSOEVER CAUSED AND ON ANY THEORY OF LIABILITY, WHETHER IN CONTRACT, ST
      +                          RICT
    55                           ; LIABILITY, OR TORT (INCLUDING NEGLIGENCE OR OTHERWISE) ARISING IN ANY WAY OUT OF THE U
      +                          SE OF
    56                           ; THIS SOFTWARE, EVEN IF ADVISED OF THE POSSIBILITY OF SUCH DAMAGE.
    57                           ; 
    58                           ; 
    59                           ; Code-generator required, PIC16F887 Definitions
    60                           ; 
    61                           ; SFR Addresses
    62  0000                     	;# 
    63  0001                     	;# 
    64  0002                     	;# 
    65  0003                     	;# 
    66  0004                     	;# 
    67  0005                     	;# 
    68  0006                     	;# 
    69  0007                     	;# 
    70  0008                     	;# 
    71  0009                     	;# 
    72  000A                     	;# 
    73  000B                     	;# 
    74  000C                     	;# 
    75  000D                     	;# 
    76  000E                     	;# 
    77  000E                     	;# 
    78  000F                     	;# 
    79  0010                     	;# 
    80  0011                     	;# 
    81  0012                     	;# 
    82  0013                     	;# 
    83  0014                     	;# 
    84  0015                     	;# 
    85  0015                     	;# 
    86  0016                     	;# 
    87  0017                     	;# 
    88  0018                     	;# 
    89  0019                     	;# 
    90  001A                     	;# 
    91  001B                     	;# 
    92  001B                     	;# 
    93  001C                     	;# 
    94  001D                     	;# 
    95  001E                     	;# 
    96  001F                     	;# 
    97  0081                     	;# 
    98  0085                     	;# 
    99  0086                     	;# 
   100  0087                     	;# 
   101  0088                     	;# 
   102  0089                     	;# 
   103  008C                     	;# 
   104  008D                     	;# 
   105  008E                     	;# 
   106  008F                     	;# 
   107  0090                     	;# 
   108  0091                     	;# 
   109  0092                     	;# 
   110  0093                     	;# 
   111  0093                     	;# 
   112  0093                     	;# 
   113  0094                     	;# 
   114  0095                     	;# 
   115  0096                     	;# 
   116  0097                     	;# 
   117  0098                     	;# 
   118  0099                     	;# 
   119  009A                     	;# 
   120  009B                     	;# 
   121  009C                     	;# 
   122  009D                     	;# 
   123  009E                     	;# 
   124  009F                     	;# 
   125  0105                     	;# 
   126  0107                     	;# 
   127  0108                     	;# 
   128  0109                     	;# 
   129  010C                     	;# 
   130  010C                     	;# 
   131  010D                     	;# 
   132  010E                     	;# 
   133  010F                     	;# 
   134  0185                     	;# 
   135  0187                     	;# 
   136  0188                     	;# 
   137  0189                     	;# 
   138  018C                     	;# 
   139  018D                     	;# 
   140  0000                     	;# 
   141  0001                     	;# 
   142  0002                     	;# 
   143  0003                     	;# 
   144  0004                     	;# 
   145  0005                     	;# 
   146  0006                     	;# 
   147  0007                     	;# 
   148  0008                     	;# 
   149  0009                     	;# 
   150  000A                     	;# 
   151  000B                     	;# 
   152  000C                     	;# 
   153  000D                     	;# 
   154  000E                     	;# 
   155  000E                     	;# 
   156  000F                     	;# 
   157  0010                     	;# 
   158  0011                     	;# 
   159  0012                     	;# 
   160  0013                     	;# 
   161  0014                     	;# 
   162  0015                     	;# 
   163  0015                     	;# 
   164  0016                     	;# 
   165  0017                     	;# 
   166  0018                     	;# 
   167  0019                     	;# 
   168  001A                     	;# 
   169  001B                     	;# 
   170  001B                     	;# 
   171  001C                     	;# 
   172  001D                     	;# 
   173  001E                     	;# 
   174  001F                     	;# 
   175  0081                     	;# 
   176  0085                     	;# 
   177  0086                     	;# 
   178  0087                     	;# 
   179  0088                     	;# 
   180  0089                     	;# 
   181  008C                     	;# 
   182  008D                     	;# 
   183  008E                     	;# 
   184  008F                     	;# 
   185  0090                     	;# 
   186  0091                     	;# 
   187  0092                     	;# 
   188  0093                     	;# 
   189  0093                     	;# 
   190  0093                     	;# 
   191  0094                     	;# 
   192  0095                     	;# 
   193  0096                     	;# 
   194  0097                     	;# 
   195  0098                     	;# 
   196  0099                     	;# 
   197  009A                     	;# 
   198  009B                     	;# 
   199  009C                     	;# 
   200  009D                     	;# 
   201  009E                     	;# 
   202  009F                     	;# 
   203  0105                     	;# 
   204  0107                     	;# 
   205  0108                     	;# 
   206  0109                     	;# 
   207  010C                     	;# 
   208  010C                     	;# 
   209  010D                     	;# 
   210  010E                     	;# 
   211  010F                     	;# 
   212  0185                     	;# 
   213  0187                     	;# 
   214  0188                     	;# 
   215  0189                     	;# 
   216  018C                     	;# 
   217  018D                     	;# 
   218  0000                     	;# 
   219  0001                     	;# 
   220  0002                     	;# 
   221  0003                     	;# 
   222  0004                     	;# 
   223  0005                     	;# 
   224  0006                     	;# 
   225  0007                     	;# 
   226  0008                     	;# 
   227  0009                     	;# 
   228  000A                     	;# 
   229  000B                     	;# 
   230  000C                     	;# 
   231  000D                     	;# 
   232  000E                     	;# 
   233  000E                     	;# 
   234  000F                     	;# 
   235  0010                     	;# 
   236  0011                     	;# 
   237  0012                     	;# 
   238  0013                     	;# 
   239  0014                     	;# 
   240  0015                     	;# 
   241  0015                     	;# 
   242  0016                     	;# 
   243  0017                     	;# 
   244  0018                     	;# 
   245  0019                     	;# 
   246  001A                     	;# 
   247  001B                     	;# 
   248  001B                     	;# 
   249  001C                     	;# 
   250  001D                     	;# 
   251  001E                     	;# 
   252  001F                     	;# 
   253  0081                     	;# 
   254  0085                     	;# 
   255  0086                     	;# 
   256  0087                     	;# 
   257  0088                     	;# 
   258  0089                     	;# 
   259  008C                     	;# 
   260  008D                     	;# 
   261  008E                     	;# 
   262  008F                     	;# 
   263  0090                     	;# 
   264  0091                     	;# 
   265  0092                     	;# 
   266  0093                     	;# 
   267  0093                     	;# 
   268  0093                     	;# 
   269  0094                     	;# 
   270  0095                     	;# 
   271  0096                     	;# 
   272  0097                     	;# 
   273  0098                     	;# 
   274  0099                     	;# 
   275  009A                     	;# 
   276  009B                     	;# 
   277  009C                     	;# 
   278  009D                     	;# 
   279  009E                     	;# 
   280  009F                     	;# 
   281  0105                     	;# 
   282  0107                     	;# 
   283  0108                     	;# 
   284  0109                     	;# 
   285  010C                     	;# 
   286  010C                     	;# 
   287  010D                     	;# 
   288  010E                     	;# 
   289  010F                     	;# 
   290  0185                     	;# 
   291  0187                     	;# 
   292  0188                     	;# 
   293  0189                     	;# 
   294  018C                     	;# 
   295  018D                     	;# 
   296  0000                     	;# 
   297  0001                     	;# 
   298  0002                     	;# 
   299  0003                     	;# 
   300  0004                     	;# 
   301  0005                     	;# 
   302  0006                     	;# 
   303  0007                     	;# 
   304  0008                     	;# 
   305  0009                     	;# 
   306  000A                     	;# 
   307  000B                     	;# 
   308  000C                     	;# 
   309  000D                     	;# 
   310  000E                     	;# 
   311  000E                     	;# 
   312  000F                     	;# 
   313  0010                     	;# 
   314  0011                     	;# 
   315  0012                     	;# 
   316  0013                     	;# 
   317  0014                     	;# 
   318  0015                     	;# 
   319  0015                     	;# 
   320  0016                     	;# 
   321  0017                     	;# 
   322  0018                     	;# 
   323  0019                     	;# 
   324  001A                     	;# 
   325  001B                     	;# 
   326  001B                     	;# 
   327  001C                     	;# 
   328  001D                     	;# 
   329  001E                     	;# 
   330  001F                     	;# 
   331  0081                     	;# 
   332  0085                     	;# 
   333  0086                     	;# 
   334  0087                     	;# 
   335  0088                     	;# 
   336  0089                     	;# 
   337  008C                     	;# 
   338  008D                     	;# 
   339  008E                     	;# 
   340  008F                     	;# 
   341  0090                     	;# 
   342  0091                     	;# 
   343  0092                     	;# 
   344  0093                     	;# 
   345  0093                     	;# 
   346  0093                     	;# 
   347  0094                     	;# 
   348  0095                     	;# 
   349  0096                     	;# 
   350  0097                     	;# 
   351  0098                     	;# 
   352  0099                     	;# 
   353  009A                     	;# 
   354  009B                     	;# 
   355  009C                     	;# 
   356  009D                     	;# 
   357  009E                     	;# 
   358  009F                     	;# 
   359  0105                     	;# 
   360  0107                     	;# 
   361  0108                     	;# 
   362  0109                     	;# 
   363  010C                     	;# 
   364  010C                     	;# 
   365  010D                     	;# 
   366  010E                     	;# 
   367  010F                     	;# 
   368  0185                     	;# 
   369  0187                     	;# 
   370  0188                     	;# 
   371  0189                     	;# 
   372  018C                     	;# 
   373  018D                     	;# 
   374  0006                     _PORTB	set	6
   375  0008                     _PORTDbits	set	8
   376  0005                     _PORTAbits	set	5
   377  0088                     _TRISD	set	136
   378  0086                     _TRISB	set	134
   379  0085                     _TRISAbits	set	133
   380  0189                     _ANSELH	set	393
   381                           
   382                           	psect	strings
   383  0800                     __pstrings:	
   384  0800                     stringtab:	
   385  0800                     __stringtab:	
   386  0800                     stringcode:	
   387                           ;	String table - string pointers are 1 byte each
   388                           
   389  0800                     stringdir:	
   390  0800  3008               	movlw	high stringdir
   391  0801  008A               	movwf	10
   392  0802  0804               	movf	4,w
   393  0803  0A84               	incf	4,f
   394  0804  0782               	addwf	2,f
   395  0805                     __stringbase:	
   396  0805  3400               	retlw	0
   397  0806                     __end_of__stringtab:	
   398  0806                     STR_1:	
   399  0806  3474               	retlw	116	;'t'
   400  0807  3465               	retlw	101	;'e'
   401  0808  346D               	retlw	109	;'m'
   402  0809  3470               	retlw	112	;'p'
   403  080A  3465               	retlw	101	;'e'
   404  080B  3472               	retlw	114	;'r'
   405  080C  3461               	retlw	97	;'a'
   406  080D  3474               	retlw	116	;'t'
   407  080E  3475               	retlw	117	;'u'
   408  080F  3472               	retlw	114	;'r'
   409  0810  3461               	retlw	97	;'a'
   410  0811  3400               	retlw	0
   411  0812                     STR_2:	
   412  0812  342E               	retlw	46	;'.'
   413  0813  3400               	retlw	0
   414                           
   415                           ; #config settings
   416  0000                     
   417                           	psect	cinit
   418  07F3                     start_initialization:	
   419  07F3                     __initialization:	
   420                           
   421                           ; Clear objects allocated to BANK0
   422  07F3  1283               	bcf	3,5	;RP0=0, select bank0
   423  07F4  1303               	bcf	3,6	;RP1=0, select bank0
   424  07F5  01DA               	clrf	__pbssBANK0& (0+127)
   425  07F6  01DB               	clrf	(__pbssBANK0+1)& (0+127)
   426  07F7  01DC               	clrf	(__pbssBANK0+2)& (0+127)
   427  07F8  01DD               	clrf	(__pbssBANK0+3)& (0+127)
   428  07F9  01DE               	clrf	(__pbssBANK0+4)& (0+127)
   429  07FA  01DF               	clrf	(__pbssBANK0+5)& (0+127)
   430  07FB  01E0               	clrf	(__pbssBANK0+6)& (0+127)
   431  07FC                     end_of_initialization:	
   432                           ;End of C runtime variable initialization code
   433                           
   434  07FC                     __end_of__initialization:	
   435  07FC  0183               	clrf	3
   436  07FD  120A  118A  2841   	ljmp	_main	;jump to C main() function
   437                           
   438                           	psect	bssBANK0
   439  005A                     __pbssBANK0:	
   440  005A                     _peso:	
   441  005A                     	ds	4
   442  005E                     _u1:	
   443  005E                     	ds	1
   444  005F                     _d1:	
   445  005F                     	ds	1
   446  0060                     _c1:	
   447  0060                     	ds	1
   448                           
   449                           	psect	cstackCOMMON
   450  0070                     __pcstackCOMMON:	
   451  0070                     ?_setup:	
   452  0070                     ?_lcd_wstring:	
   453                           ; 1 bytes @ 0x0
   454                           
   455  0070                     ?_lcd_wchar:	
   456                           ; 1 bytes @ 0x0
   457                           
   458  0070                     ??_lcd_wchar:	
   459                           ; 1 bytes @ 0x0
   460                           
   461  0070                     ?_lcd_setup:	
   462                           ; 1 bytes @ 0x0
   463                           
   464  0070                     ?_celdaSetup:	
   465                           ; 1 bytes @ 0x0
   466                           
   467  0070                     ??_celdaSetup:	
   468                           ; 1 bytes @ 0x0
   469                           
   470  0070                     ??_celdaRead:	
   471                           ; 1 bytes @ 0x0
   472                           
   473  0070                     ?_main:	
   474                           ; 1 bytes @ 0x0
   475                           
   476  0070                     ?_lcd_command:	
   477                           ; 1 bytes @ 0x0
   478                           
   479  0070                     ??_lcd_command:	
   480                           ; 1 bytes @ 0x0
   481                           
   482  0070                     ?___wmul:	
   483                           ; 1 bytes @ 0x0
   484                           
   485  0070                     ?_celdaRead:	
   486                           ; 2 bytes @ 0x0
   487                           
   488  0070                     ?___lldiv:	
   489                           ; 4 bytes @ 0x0
   490                           
   491  0070                     ?___fladd:	
   492                           ; 4 bytes @ 0x0
   493                           
   494  0070                     ?___fldiv:	
   495                           ; 4 bytes @ 0x0
   496                           
   497  0070                     ___wmul@multiplier:	
   498                           ; 4 bytes @ 0x0
   499                           
   500  0070                     ___lldiv@divisor:	
   501                           ; 2 bytes @ 0x0
   502                           
   503  0070                     ___fladd@b:	
   504                           ; 4 bytes @ 0x0
   505                           
   506  0070                     ___fldiv@a:	
   507                           ; 4 bytes @ 0x0
   508                           
   509                           
   510                           ; 4 bytes @ 0x0
   511  0070                     	ds	2
   512  0072                     lcd_command@a:	
   513  0072                     lcd_wchar@dato:	
   514                           ; 1 bytes @ 0x2
   515                           
   516  0072                     ___wmul@multiplicand:	
   517                           ; 1 bytes @ 0x2
   518                           
   519                           
   520                           ; 2 bytes @ 0x2
   521  0072                     	ds	1
   522  0073                     ?_lcd_cursor:	
   523  0073                     ??_lcd_wstring:	
   524                           ; 1 bytes @ 0x3
   525                           
   526  0073                     ??_lcd_setup:	
   527                           ; 1 bytes @ 0x3
   528                           
   529  0073                     lcd_cursor@b:	
   530                           ; 1 bytes @ 0x3
   531                           
   532  0073                     lcd_wstring@i:	
   533                           ; 1 bytes @ 0x3
   534                           
   535                           
   536                           ; 2 bytes @ 0x3
   537  0073                     	ds	1
   538  0074                     ??_lcd_cursor:	
   539  0074                     ??___wmul:	
   540                           ; 1 bytes @ 0x4
   541                           
   542  0074                     ___wmul@product:	
   543                           ; 1 bytes @ 0x4
   544                           
   545  0074                     celdaRead@v:	
   546                           ; 2 bytes @ 0x4
   547                           
   548  0074                     ___lldiv@dividend:	
   549                           ; 4 bytes @ 0x4
   550                           
   551  0074                     ___fladd@a:	
   552                           ; 4 bytes @ 0x4
   553                           
   554  0074                     ___fldiv@b:	
   555                           ; 4 bytes @ 0x4
   556                           
   557                           
   558                           ; 4 bytes @ 0x4
   559  0074                     	ds	1
   560  0075                     ??_setup:	
   561  0075                     lcd_wstring@string:	
   562                           ; 1 bytes @ 0x5
   563                           
   564                           
   565                           ; 1 bytes @ 0x5
   566  0075                     	ds	1
   567  0076                     ?___xxtofl:	
   568  0076                     lcd_cursor@a:	
   569                           ; 4 bytes @ 0x6
   570                           
   571  0076                     ___xxtofl@val:	
   572                           ; 1 bytes @ 0x6
   573                           
   574                           
   575                           ; 4 bytes @ 0x6
   576  0076                     	ds	2
   577  0078                     ??___lldiv:	
   578  0078                     ??___fldiv:	
   579                           ; 1 bytes @ 0x8
   580                           
   581  0078                     ___fladd@signs:	
   582                           ; 1 bytes @ 0x8
   583                           
   584  0078                     celdaRead@valor:	
   585                           ; 1 bytes @ 0x8
   586                           
   587                           
   588                           ; 4 bytes @ 0x8
   589  0078                     	ds	1
   590  0079                     ___fladd@aexp:	
   591  0079                     ___lldiv@quotient:	
   592                           ; 1 bytes @ 0x9
   593                           
   594                           
   595                           ; 4 bytes @ 0x9
   596  0079                     	ds	1
   597  007A                     ??___xxtofl:	
   598  007A                     ___fladd@bexp:	
   599                           ; 1 bytes @ 0xA
   600                           
   601                           
   602                           ; 1 bytes @ 0xA
   603  007A                     	ds	1
   604  007B                     ___fladd@grs:	
   605                           
   606                           ; 1 bytes @ 0xB
   607  007B                     	ds	1
   608  007C                     celdaRead@i:	
   609                           
   610                           ; 1 bytes @ 0xC
   611  007C                     	ds	1
   612  007D                     ___lldiv@counter:	
   613                           
   614                           ; 1 bytes @ 0xD
   615  007D                     	ds	1
   616  007E                     ??___flsub:	
   617                           
   618                           	psect	cstackBANK0
   619  0020                     __pcstackBANK0:	
   620                           ; 1 bytes @ 0xE
   621                           
   622  0020                     ??___fladd:	
   623  0020                     ___xxtofl@sign:	
   624                           ; 1 bytes @ 0x0
   625                           
   626  0020                     ___fldiv@rem:	
   627                           ; 1 bytes @ 0x0
   628                           
   629                           
   630                           ; 4 bytes @ 0x0
   631  0020                     	ds	1
   632  0021                     ___xxtofl@exp:	
   633                           
   634                           ; 1 bytes @ 0x1
   635  0021                     	ds	1
   636  0022                     ___xxtofl@arg:	
   637                           
   638                           ; 4 bytes @ 0x2
   639  0022                     	ds	2
   640  0024                     ___fldiv@sign:	
   641                           
   642                           ; 1 bytes @ 0x4
   643  0024                     	ds	1
   644  0025                     ___fldiv@new_exp:	
   645                           
   646                           ; 2 bytes @ 0x5
   647  0025                     	ds	2
   648  0027                     ___fldiv@grs:	
   649                           
   650                           ; 4 bytes @ 0x7
   651  0027                     	ds	4
   652  002B                     ___fldiv@bexp:	
   653                           
   654                           ; 1 bytes @ 0xB
   655  002B                     	ds	1
   656  002C                     ___fldiv@aexp:	
   657                           
   658                           ; 1 bytes @ 0xC
   659  002C                     	ds	1
   660  002D                     ?___flsub:	
   661  002D                     ___flsub@a:	
   662                           ; 4 bytes @ 0xD
   663                           
   664                           
   665                           ; 4 bytes @ 0xD
   666  002D                     	ds	4
   667  0031                     ___flsub@b:	
   668                           
   669                           ; 4 bytes @ 0x11
   670  0031                     	ds	4
   671  0035                     ?___fltol:	
   672  0035                     ___fltol@f1:	
   673                           ; 4 bytes @ 0x15
   674                           
   675                           
   676                           ; 4 bytes @ 0x15
   677  0035                     	ds	4
   678  0039                     ??___fltol:	
   679                           
   680                           ; 1 bytes @ 0x19
   681  0039                     	ds	5
   682  003E                     ___fltol@sign1:	
   683                           
   684                           ; 1 bytes @ 0x1E
   685  003E                     	ds	1
   686  003F                     ___fltol@exp1:	
   687                           
   688                           ; 1 bytes @ 0x1F
   689  003F                     	ds	1
   690  0040                     ?_int_distance:	
   691  0040                     int_distance@valor:	
   692                           ; 1 bytes @ 0x20
   693                           
   694                           
   695                           ; 4 bytes @ 0x20
   696  0040                     	ds	4
   697  0044                     int_distance@v1:	
   698                           
   699                           ; 1 bytes @ 0x24
   700  0044                     	ds	1
   701  0045                     int_distance@v2:	
   702                           
   703                           ; 1 bytes @ 0x25
   704  0045                     	ds	1
   705  0046                     int_distance@v3:	
   706                           
   707                           ; 1 bytes @ 0x26
   708  0046                     	ds	1
   709  0047                     ??_int_distance:	
   710                           
   711                           ; 1 bytes @ 0x27
   712  0047                     	ds	9
   713  0050                     int_distance@u:	
   714                           
   715                           ; 1 bytes @ 0x30
   716  0050                     	ds	1
   717  0051                     int_distance@conv:	
   718                           
   719                           ; 4 bytes @ 0x31
   720  0051                     	ds	4
   721  0055                     int_distance@d:	
   722                           
   723                           ; 1 bytes @ 0x35
   724  0055                     	ds	1
   725  0056                     int_distance@c:	
   726                           
   727                           ; 1 bytes @ 0x36
   728  0056                     	ds	1
   729  0057                     ??_main:	
   730                           
   731                           ; 1 bytes @ 0x37
   732  0057                     	ds	3
   733                           
   734                           	psect	maintext
   735  0041                     __pmaintext:	
   736 ;;
   737 ;;Main: autosize = 0, tempsize = 3, incstack = 0, save=0
   738 ;;
   739 ;; *************** function _main *****************
   740 ;; Defined at:
   741 ;;		line 43 in file "main.c"
   742 ;; Parameters:    Size  Location     Type
   743 ;;		None
   744 ;; Auto vars:     Size  Location     Type
   745 ;;		None
   746 ;; Return value:  Size  Location     Type
   747 ;;                  1    wreg      void 
   748 ;; Registers used:
   749 ;;		wreg, fsr0l, fsr0h, status,2, status,0, btemp+1, pclath, cstack
   750 ;; Tracked objects:
   751 ;;		On entry : B00/0
   752 ;;		On exit  : 0/0
   753 ;;		Unchanged: 0/0
   754 ;; Data sizes:     COMMON   BANK0   BANK1   BANK3   BANK2
   755 ;;      Params:         0       0       0       0       0
   756 ;;      Locals:         0       0       0       0       0
   757 ;;      Temps:          0       3       0       0       0
   758 ;;      Totals:         0       3       0       0       0
   759 ;;Total ram usage:        3 bytes
   760 ;; Hardware stack levels required when called:    3
   761 ;; This function calls:
   762 ;;		_celdaRead
   763 ;;		_int_distance
   764 ;;		_lcd_cursor
   765 ;;		_lcd_wchar
   766 ;;		_lcd_wstring
   767 ;;		_setup
   768 ;; This function is called by:
   769 ;;		Startup code after reset
   770 ;; This function uses a non-reentrant model
   771 ;;
   772                           
   773                           
   774                           ;psect for function _main
   775  0041                     _main:	
   776  0041                     l1875:	
   777                           ;incstack = 0
   778                           ; Regs used in _main: [wreg-fsr0h+status,2+status,0+btemp+1+pclath+cstack]
   779                           
   780                           
   781                           ;main.c: 44:     setup();
   782  0041  120A  158A  26DE  120A  118A  	fcall	_setup
   783  0046                     l46:	
   784                           ;main.c: 45:     while(1){
   785                           
   786                           
   787                           ;main.c: 46:         celdaRead();
   788  0046  120A  158A  27AF  120A  118A  	fcall	_celdaRead
   789  004B                     l1877:	
   790                           
   791                           ;main.c: 47:         int_distance(peso, &c1, &d1, &u1);
   792  004B  3000               	movlw	0
   793  004C  1283               	bcf	3,5	;RP0=0, select bank0
   794  004D  1303               	bcf	3,6	;RP1=0, select bank0
   795  004E  00C3               	movwf	int_distance@valor+3
   796  004F  3000               	movlw	0
   797  0050  00C2               	movwf	int_distance@valor+2
   798  0051  3000               	movlw	0
   799  0052  00C1               	movwf	int_distance@valor+1
   800  0053  3000               	movlw	0
   801  0054  00C0               	movwf	int_distance@valor
   802  0055  3060               	movlw	(low (_c1| 0))& (0+255)
   803  0056  00D7               	movwf	??_main
   804  0057  0857               	movf	??_main,w
   805  0058  00C4               	movwf	int_distance@v1
   806  0059  305F               	movlw	(low (_d1| 0))& (0+255)
   807  005A  00D8               	movwf	??_main+1
   808  005B  0858               	movf	??_main+1,w
   809  005C  00C5               	movwf	int_distance@v2
   810  005D  305E               	movlw	(low (_u1| 0))& (0+255)
   811  005E  00D9               	movwf	??_main+2
   812  005F  0859               	movf	??_main+2,w
   813  0060  00C6               	movwf	int_distance@v3
   814  0061  120A  118A  2244  120A  118A  	fcall	_int_distance
   815  0066                     l1879:	
   816                           
   817                           ;main.c: 48:         lcd_cursor(1,3);
   818  0066  3003               	movlw	3
   819  0067  1283               	bcf	3,5	;RP0=0, select bank0
   820  0068  1303               	bcf	3,6	;RP1=0, select bank0
   821  0069  00D7               	movwf	??_main
   822  006A  0857               	movf	??_main,w
   823  006B  00F3               	movwf	lcd_cursor@b
   824  006C  3001               	movlw	1
   825  006D  120A  158A  26FD  120A  118A  	fcall	_lcd_cursor
   826  0072                     l1881:	
   827                           
   828                           ;main.c: 49:         lcd_wstring("temperatura");
   829  0072  3001               	movlw	(low ((STR_1-__stringbase)| (0+32768)))& (0+255)
   830  0073  120A  118A  201C  120A  118A  	fcall	_lcd_wstring
   831  0078                     l1883:	
   832                           
   833                           ;main.c: 50:         lcd_cursor(2,8);
   834  0078  3008               	movlw	8
   835  0079  1283               	bcf	3,5	;RP0=0, select bank0
   836  007A  1303               	bcf	3,6	;RP1=0, select bank0
   837  007B  00D7               	movwf	??_main
   838  007C  0857               	movf	??_main,w
   839  007D  00F3               	movwf	lcd_cursor@b
   840  007E  3002               	movlw	2
   841  007F  120A  158A  26FD  120A  118A  	fcall	_lcd_cursor
   842  0084                     l1885:	
   843                           
   844                           ;main.c: 51:         lcd_wchar(c1);
   845  0084  1283               	bcf	3,5	;RP0=0, select bank0
   846  0085  1303               	bcf	3,6	;RP1=0, select bank0
   847  0086  0860               	movf	_c1,w
   848  0087  120A  158A  26E9  120A  118A  	fcall	_lcd_wchar
   849  008C                     l1887:	
   850                           
   851                           ;main.c: 52:         lcd_wchar(d1);
   852  008C  1283               	bcf	3,5	;RP0=0, select bank0
   853  008D  1303               	bcf	3,6	;RP1=0, select bank0
   854  008E  085F               	movf	_d1,w
   855  008F  120A  158A  26E9  120A  118A  	fcall	_lcd_wchar
   856  0094                     l1889:	
   857                           
   858                           ;main.c: 53:         lcd_wstring(".");
   859  0094  300D               	movlw	(low ((STR_2-__stringbase)| (0+32768)))& (0+255)
   860  0095  120A  118A  201C  120A  118A  	fcall	_lcd_wstring
   861  009A                     l1891:	
   862                           
   863                           ;main.c: 54:         lcd_wchar(u1);
   864  009A  1283               	bcf	3,5	;RP0=0, select bank0
   865  009B  1303               	bcf	3,6	;RP1=0, select bank0
   866  009C  085E               	movf	_u1,w
   867  009D  120A  158A  26E9  120A  118A  	fcall	_lcd_wchar
   868  00A2  2846               	goto	l46
   869  00A3  120A  118A  2800   	ljmp	start
   870  00A6                     __end_of_main:	
   871                           
   872                           	psect	text1
   873  0EDE                     __ptext1:	
   874 ;; *************** function _setup *****************
   875 ;; Defined at:
   876 ;;		line 59 in file "main.c"
   877 ;; Parameters:    Size  Location     Type
   878 ;;		None
   879 ;; Auto vars:     Size  Location     Type
   880 ;;		None
   881 ;; Return value:  Size  Location     Type
   882 ;;                  1    wreg      void 
   883 ;; Registers used:
   884 ;;		wreg, status,2, status,0, pclath, cstack
   885 ;; Tracked objects:
   886 ;;		On entry : 0/0
   887 ;;		On exit  : 0/0
   888 ;;		Unchanged: 0/0
   889 ;; Data sizes:     COMMON   BANK0   BANK1   BANK3   BANK2
   890 ;;      Params:         0       0       0       0       0
   891 ;;      Locals:         0       0       0       0       0
   892 ;;      Temps:          0       0       0       0       0
   893 ;;      Totals:         0       0       0       0       0
   894 ;;Total ram usage:        0 bytes
   895 ;; Hardware stack levels used:    1
   896 ;; Hardware stack levels required when called:    2
   897 ;; This function calls:
   898 ;;		_celdaSetup
   899 ;;		_lcd_setup
   900 ;; This function is called by:
   901 ;;		_main
   902 ;; This function uses a non-reentrant model
   903 ;;
   904                           
   905                           
   906                           ;psect for function _setup
   907  0EDE                     _setup:	
   908  0EDE                     l1833:	
   909                           ;incstack = 0
   910                           ; Regs used in _setup: [wreg+status,2+status,0+pclath+cstack]
   911                           
   912                           
   913                           ;main.c: 60:     lcd_setup();
   914  0EDE  120A  158A  2769  120A  158A  	fcall	_lcd_setup
   915  0EE3                     l1835:	
   916                           
   917                           ;main.c: 61:     celdaSetup();
   918  0EE3  120A  158A  26D5  120A  158A  	fcall	_celdaSetup
   919  0EE8                     l52:	
   920  0EE8  0008               	return
   921  0EE9                     __end_of_setup:	
   922                           
   923                           	psect	text2
   924  0F69                     __ptext2:	
   925 ;; *************** function _lcd_setup *****************
   926 ;; Defined at:
   927 ;;		line 66 in file "LCD.c"
   928 ;; Parameters:    Size  Location     Type
   929 ;;		None
   930 ;; Auto vars:     Size  Location     Type
   931 ;;		None
   932 ;; Return value:  Size  Location     Type
   933 ;;                  1    wreg      void 
   934 ;; Registers used:
   935 ;;		wreg, status,2, status,0, pclath, cstack
   936 ;; Tracked objects:
   937 ;;		On entry : 0/0
   938 ;;		On exit  : 0/0
   939 ;;		Unchanged: 0/0
   940 ;; Data sizes:     COMMON   BANK0   BANK1   BANK3   BANK2
   941 ;;      Params:         0       0       0       0       0
   942 ;;      Locals:         0       0       0       0       0
   943 ;;      Temps:          2       0       0       0       0
   944 ;;      Totals:         2       0       0       0       0
   945 ;;Total ram usage:        2 bytes
   946 ;; Hardware stack levels used:    1
   947 ;; Hardware stack levels required when called:    1
   948 ;; This function calls:
   949 ;;		_lcd_command
   950 ;; This function is called by:
   951 ;;		_setup
   952 ;; This function uses a non-reentrant model
   953 ;;
   954                           
   955                           
   956                           ;psect for function _lcd_setup
   957  0F69                     _lcd_setup:	
   958  0F69                     l1525:	
   959                           ;incstack = 0
   960                           ; Regs used in _lcd_setup: [wreg+status,2+status,0+pclath+cstack]
   961                           
   962                           
   963                           ;LCD.c: 67:     TRISB = 0x00;
   964  0F69  1683               	bsf	3,5	;RP0=1, select bank1
   965  0F6A  1303               	bcf	3,6	;RP1=0, select bank1
   966  0F6B  0186               	clrf	6	;volatile
   967                           
   968                           ;LCD.c: 68:     ANSELH = 0x00;
   969  0F6C  1683               	bsf	3,5	;RP0=1, select bank3
   970  0F6D  1703               	bsf	3,6	;RP1=1, select bank3
   971  0F6E  0189               	clrf	9	;volatile
   972                           
   973                           ;LCD.c: 69:     TRISD = 0x00;
   974  0F6F  1683               	bsf	3,5	;RP0=1, select bank1
   975  0F70  1303               	bcf	3,6	;RP1=0, select bank1
   976  0F71  0188               	clrf	8	;volatile
   977  0F72                     l1527:	
   978                           
   979                           ;LCD.c: 70:     _delay((unsigned long)((16)*(4000000/4000.0)));
   980  0F72  3015               	movlw	21
   981  0F73  00F4               	movwf	??_lcd_setup+1
   982  0F74  30C6               	movlw	198
   983  0F75  00F3               	movwf	??_lcd_setup
   984  0F76                     u2357:	
   985  0F76  0BF3               	decfsz	??_lcd_setup,f
   986  0F77  2F76               	goto	u2357
   987  0F78  0BF4               	decfsz	??_lcd_setup+1,f
   988  0F79  2F76               	goto	u2357
   989  0F7A  0000               	nop
   990  0F7B                     l1529:	
   991                           
   992                           ;LCD.c: 71:     lcd_command(0x03);
   993  0F7B  3003               	movlw	3
   994  0F7C  120A  118A  2007  120A  158A  	fcall	_lcd_command
   995  0F81                     l1531:	
   996                           
   997                           ;LCD.c: 72:     _delay((unsigned long)((4.2)*(4000000/4000.0)));
   998  0F81  3006               	movlw	6
   999  0F82  00F4               	movwf	??_lcd_setup+1
  1000  0F83  3073               	movlw	115
  1001  0F84  00F3               	movwf	??_lcd_setup
  1002  0F85                     u2367:	
  1003  0F85  0BF3               	decfsz	??_lcd_setup,f
  1004  0F86  2F85               	goto	u2367
  1005  0F87  0BF4               	decfsz	??_lcd_setup+1,f
  1006  0F88  2F85               	goto	u2367
  1007  0F89                     l1533:	
  1008                           
  1009                           ;LCD.c: 73:     lcd_command(0x03);
  1010  0F89  3003               	movlw	3
  1011  0F8A  120A  118A  2007  120A  158A  	fcall	_lcd_command
  1012  0F8F                     l1535:	
  1013                           
  1014                           ;LCD.c: 74:     _delay((unsigned long)((1)*(4000000/4000.0)));
  1015  0F8F  30C7               	movlw	199
  1016  0F90  00F3               	movwf	??_lcd_setup
  1017  0F91                     u2377:	
  1018  0F91  2F92               	nop2
  1019  0F92  0BF3               	decfsz	??_lcd_setup,f
  1020  0F93  2F91               	goto	u2377
  1021  0F94  2F95               	nop2
  1022  0F95  2F96               	nop2
  1023  0F96                     l1537:	
  1024                           
  1025                           ;LCD.c: 75:     lcd_command(0x03);
  1026  0F96  3003               	movlw	3
  1027  0F97  120A  118A  2007  120A  158A  	fcall	_lcd_command
  1028  0F9C                     l1539:	
  1029                           
  1030                           ;LCD.c: 76:     lcd_command(0x38);
  1031  0F9C  3038               	movlw	56
  1032  0F9D  120A  118A  2007  120A  158A  	fcall	_lcd_command
  1033  0FA2                     l1541:	
  1034                           
  1035                           ;LCD.c: 77:     lcd_command(0x0C);
  1036  0FA2  300C               	movlw	12
  1037  0FA3  120A  118A  2007  120A  158A  	fcall	_lcd_command
  1038  0FA8                     l1543:	
  1039                           
  1040                           ;LCD.c: 78:     lcd_command(0x06);
  1041  0FA8  3006               	movlw	6
  1042  0FA9  120A  118A  2007  120A  158A  	fcall	_lcd_command
  1043  0FAE                     l101:	
  1044  0FAE  0008               	return
  1045  0FAF                     __end_of_lcd_setup:	
  1046                           
  1047                           	psect	text3
  1048  0ED5                     __ptext3:	
  1049 ;; *************** function _celdaSetup *****************
  1050 ;; Defined at:
  1051 ;;		line 14 in file "peso.c"
  1052 ;; Parameters:    Size  Location     Type
  1053 ;;		None
  1054 ;; Auto vars:     Size  Location     Type
  1055 ;;		None
  1056 ;; Return value:  Size  Location     Type
  1057 ;;                  1    wreg      void 
  1058 ;; Registers used:
  1059 ;;		None
  1060 ;; Tracked objects:
  1061 ;;		On entry : 0/0
  1062 ;;		On exit  : 0/0
  1063 ;;		Unchanged: 0/0
  1064 ;; Data sizes:     COMMON   BANK0   BANK1   BANK3   BANK2
  1065 ;;      Params:         0       0       0       0       0
  1066 ;;      Locals:         0       0       0       0       0
  1067 ;;      Temps:          0       0       0       0       0
  1068 ;;      Totals:         0       0       0       0       0
  1069 ;;Total ram usage:        0 bytes
  1070 ;; Hardware stack levels used:    1
  1071 ;; This function calls:
  1072 ;;		Nothing
  1073 ;; This function is called by:
  1074 ;;		_setup
  1075 ;; This function uses a non-reentrant model
  1076 ;;
  1077                           
  1078                           
  1079                           ;psect for function _celdaSetup
  1080  0ED5                     _celdaSetup:	
  1081  0ED5                     l1513:	
  1082                           ;incstack = 0
  1083                           ; Regs used in _celdaSetup: []
  1084                           
  1085                           
  1086                           ;peso.c: 15:     TRISAbits.TRISA0 = 0;
  1087  0ED5  1683               	bsf	3,5	;RP0=1, select bank1
  1088  0ED6  1303               	bcf	3,6	;RP1=0, select bank1
  1089  0ED7  1005               	bcf	5,0	;volatile
  1090                           
  1091                           ;peso.c: 16:     TRISAbits.TRISA1 = 1;
  1092  0ED8  1485               	bsf	5,1	;volatile
  1093                           
  1094                           ;peso.c: 18:     PORTAbits.RA1 = 0;
  1095  0ED9  1283               	bcf	3,5	;RP0=0, select bank0
  1096  0EDA  1303               	bcf	3,6	;RP1=0, select bank0
  1097  0EDB  1085               	bcf	5,1	;volatile
  1098                           
  1099                           ;peso.c: 19:     PORTAbits.RA0 = 0;
  1100  0EDC  1005               	bcf	5,0	;volatile
  1101  0EDD                     l9:	
  1102                           ;peso.c: 20:     return;
  1103                           
  1104  0EDD  0008               	return
  1105  0EDE                     __end_of_celdaSetup:	
  1106                           
  1107                           	psect	text4
  1108  001C                     __ptext4:	
  1109 ;; *************** function _lcd_wstring *****************
  1110 ;; Defined at:
  1111 ;;		line 59 in file "LCD.c"
  1112 ;; Parameters:    Size  Location     Type
  1113 ;;  string          1    wreg     PTR unsigned char 
  1114 ;;		 -> STR_2(2), STR_1(12), 
  1115 ;; Auto vars:     Size  Location     Type
  1116 ;;  string          1    5[COMMON] PTR unsigned char 
  1117 ;;		 -> STR_2(2), STR_1(12), 
  1118 ;;  i               2    3[COMMON] int 
  1119 ;; Return value:  Size  Location     Type
  1120 ;;                  1    wreg      void 
  1121 ;; Registers used:
  1122 ;;		wreg, fsr0l, fsr0h, status,2, status,0, pclath, cstack
  1123 ;; Tracked objects:
  1124 ;;		On entry : 0/0
  1125 ;;		On exit  : 0/0
  1126 ;;		Unchanged: 0/0
  1127 ;; Data sizes:     COMMON   BANK0   BANK1   BANK3   BANK2
  1128 ;;      Params:         0       0       0       0       0
  1129 ;;      Locals:         3       0       0       0       0
  1130 ;;      Temps:          0       0       0       0       0
  1131 ;;      Totals:         3       0       0       0       0
  1132 ;;Total ram usage:        3 bytes
  1133 ;; Hardware stack levels used:    1
  1134 ;; Hardware stack levels required when called:    1
  1135 ;; This function calls:
  1136 ;;		_lcd_wchar
  1137 ;; This function is called by:
  1138 ;;		_main
  1139 ;; This function uses a non-reentrant model
  1140 ;;
  1141                           
  1142                           
  1143                           ;psect for function _lcd_wstring
  1144  001C                     _lcd_wstring:	
  1145                           
  1146                           ;incstack = 0
  1147                           ; Regs used in _lcd_wstring: [wreg-fsr0h+status,2+status,0+pclath+cstack]
  1148                           ;lcd_wstring@string stored from wreg
  1149  001C  00F5               	movwf	lcd_wstring@string
  1150  001D                     l1867:	
  1151                           
  1152                           ;LCD.c: 60:     int i;;LCD.c: 61:     for(i = 0; string[i] != '\0'; i++)
  1153  001D  01F3               	clrf	lcd_wstring@i
  1154  001E  01F4               	clrf	lcd_wstring@i+1
  1155  001F  2833               	goto	l1873
  1156  0020                     l1869:	
  1157                           
  1158                           ;LCD.c: 62:         lcd_wchar(string[i]);
  1159  0020  0873               	movf	lcd_wstring@i,w
  1160  0021  0775               	addwf	lcd_wstring@string,w
  1161  0022  0084               	movwf	4
  1162  0023  120A  158A  2000  120A  118A  	fcall	stringdir
  1163  0028  120A  158A  26E9  120A  118A  	fcall	_lcd_wchar
  1164  002D                     l1871:	
  1165  002D  3001               	movlw	1
  1166  002E  07F3               	addwf	lcd_wstring@i,f
  1167  002F  1803               	skipnc
  1168  0030  0AF4               	incf	lcd_wstring@i+1,f
  1169  0031  3000               	movlw	0
  1170  0032  07F4               	addwf	lcd_wstring@i+1,f
  1171  0033                     l1873:	
  1172  0033  0873               	movf	lcd_wstring@i,w
  1173  0034  0775               	addwf	lcd_wstring@string,w
  1174  0035  0084               	movwf	4
  1175  0036  120A  158A  2000  120A  118A  	fcall	stringdir
  1176  003B  3A00               	xorlw	0
  1177  003C  1D03               	skipz
  1178  003D  283F               	goto	u2321
  1179  003E  2840               	goto	u2320
  1180  003F                     u2321:	
  1181  003F  2820               	goto	l1869
  1182  0040                     u2320:	
  1183  0040                     l98:	
  1184  0040  0008               	return
  1185  0041                     __end_of_lcd_wstring:	
  1186                           
  1187                           	psect	text5
  1188  0EE9                     __ptext5:	
  1189 ;; *************** function _lcd_wchar *****************
  1190 ;; Defined at:
  1191 ;;		line 50 in file "LCD.c"
  1192 ;; Parameters:    Size  Location     Type
  1193 ;;  dato            1    wreg     unsigned char 
  1194 ;; Auto vars:     Size  Location     Type
  1195 ;;  dato            1    2[COMMON] unsigned char 
  1196 ;; Return value:  Size  Location     Type
  1197 ;;                  1    wreg      void 
  1198 ;; Registers used:
  1199 ;;		wreg
  1200 ;; Tracked objects:
  1201 ;;		On entry : 0/0
  1202 ;;		On exit  : 0/0
  1203 ;;		Unchanged: 0/0
  1204 ;; Data sizes:     COMMON   BANK0   BANK1   BANK3   BANK2
  1205 ;;      Params:         0       0       0       0       0
  1206 ;;      Locals:         1       0       0       0       0
  1207 ;;      Temps:          2       0       0       0       0
  1208 ;;      Totals:         3       0       0       0       0
  1209 ;;Total ram usage:        3 bytes
  1210 ;; Hardware stack levels used:    1
  1211 ;; This function calls:
  1212 ;;		Nothing
  1213 ;; This function is called by:
  1214 ;;		_main
  1215 ;;		_lcd_wstring
  1216 ;; This function uses a non-reentrant model
  1217 ;;
  1218                           
  1219                           
  1220                           ;psect for function _lcd_wchar
  1221  0EE9                     _lcd_wchar:	
  1222                           
  1223                           ;incstack = 0
  1224                           ; Regs used in _lcd_wchar: [wreg]
  1225                           ;lcd_wchar@dato stored from wreg
  1226  0EE9  00F2               	movwf	lcd_wchar@dato
  1227  0EEA                     l1515:	
  1228                           
  1229                           ;LCD.c: 51:     PORTDbits.RD7 = 1;
  1230  0EEA  1283               	bcf	3,5	;RP0=0, select bank0
  1231  0EEB  1303               	bcf	3,6	;RP1=0, select bank0
  1232  0EEC  1788               	bsf	8,7	;volatile
  1233  0EED                     l1517:	
  1234                           
  1235                           ;LCD.c: 52:     PORTB = dato;
  1236  0EED  0872               	movf	lcd_wchar@dato,w
  1237  0EEE  0086               	movwf	6	;volatile
  1238  0EEF                     l1519:	
  1239                           
  1240                           ;LCD.c: 53:     PORTDbits.RD5 = 1;
  1241  0EEF  1688               	bsf	8,5	;volatile
  1242                           
  1243                           ;LCD.c: 54:     _delay((unsigned long)((4)*(4000000/4000.0)));
  1244  0EF0  3006               	movlw	6
  1245  0EF1  00F1               	movwf	??_lcd_wchar+1
  1246  0EF2  3030               	movlw	48
  1247  0EF3  00F0               	movwf	??_lcd_wchar
  1248  0EF4                     u2387:	
  1249  0EF4  0BF0               	decfsz	??_lcd_wchar,f
  1250  0EF5  2EF4               	goto	u2387
  1251  0EF6  0BF1               	decfsz	??_lcd_wchar+1,f
  1252  0EF7  2EF4               	goto	u2387
  1253  0EF8  0000               	nop
  1254  0EF9                     l1521:	
  1255                           
  1256                           ;LCD.c: 55:     PORTDbits.RD5 = 0;
  1257  0EF9  1283               	bcf	3,5	;RP0=0, select bank0
  1258  0EFA  1303               	bcf	3,6	;RP1=0, select bank0
  1259  0EFB  1288               	bcf	8,5	;volatile
  1260  0EFC                     l92:	
  1261  0EFC  0008               	return
  1262  0EFD                     __end_of_lcd_wchar:	
  1263                           
  1264                           	psect	text6
  1265  0EFD                     __ptext6:	
  1266 ;; *************** function _lcd_cursor *****************
  1267 ;; Defined at:
  1268 ;;		line 24 in file "LCD.c"
  1269 ;; Parameters:    Size  Location     Type
  1270 ;;  a               1    wreg     unsigned char 
  1271 ;;  b               1    3[COMMON] unsigned char 
  1272 ;; Auto vars:     Size  Location     Type
  1273 ;;  a               1    6[COMMON] unsigned char 
  1274 ;; Return value:  Size  Location     Type
  1275 ;;                  1    wreg      void 
  1276 ;; Registers used:
  1277 ;;		wreg, fsr0l, fsr0h, status,2, status,0, pclath, cstack
  1278 ;; Tracked objects:
  1279 ;;		On entry : 0/0
  1280 ;;		On exit  : 0/0
  1281 ;;		Unchanged: 0/0
  1282 ;; Data sizes:     COMMON   BANK0   BANK1   BANK3   BANK2
  1283 ;;      Params:         1       0       0       0       0
  1284 ;;      Locals:         1       0       0       0       0
  1285 ;;      Temps:          2       0       0       0       0
  1286 ;;      Totals:         4       0       0       0       0
  1287 ;;Total ram usage:        4 bytes
  1288 ;; Hardware stack levels used:    1
  1289 ;; Hardware stack levels required when called:    1
  1290 ;; This function calls:
  1291 ;;		_lcd_command
  1292 ;; This function is called by:
  1293 ;;		_main
  1294 ;; This function uses a non-reentrant model
  1295 ;;
  1296                           
  1297                           
  1298                           ;psect for function _lcd_cursor
  1299  0EFD                     _lcd_cursor:	
  1300                           
  1301                           ;incstack = 0
  1302                           ; Regs used in _lcd_cursor: [wreg-fsr0h+status,2+status,0+pclath+cstack]
  1303                           ;lcd_cursor@a stored from wreg
  1304  0EFD  00F6               	movwf	lcd_cursor@a
  1305  0EFE                     l1853:	
  1306                           
  1307                           ;LCD.c: 25:     switch(a){
  1308  0EFE  2F0F               	goto	l1861
  1309  0EFF                     l1855:	
  1310                           
  1311                           ;LCD.c: 27:             lcd_command(0x80+b-1);
  1312  0EFF  0873               	movf	lcd_cursor@b,w
  1313  0F00  3E7F               	addlw	127
  1314  0F01  120A  118A  2007  120A  158A  	fcall	_lcd_command
  1315                           
  1316                           ;LCD.c: 28:             break;
  1317  0F06  2F1F               	goto	l77
  1318  0F07                     l1857:	
  1319                           
  1320                           ;LCD.c: 30:             lcd_command(0xC0+b-1);
  1321  0F07  0873               	movf	lcd_cursor@b,w
  1322  0F08  3EBF               	addlw	191
  1323  0F09  120A  118A  2007  120A  158A  	fcall	_lcd_command
  1324                           
  1325                           ;LCD.c: 31:             break;
  1326  0F0E  2F1F               	goto	l77
  1327  0F0F                     l1861:	
  1328  0F0F  0876               	movf	lcd_cursor@a,w
  1329  0F10  00F4               	movwf	??_lcd_cursor
  1330  0F11  01F5               	clrf	??_lcd_cursor+1
  1331                           
  1332                           ; Switch on 2 bytes has been partitioned into a top level switch of size 1, and 1 sub-sw
      +                          itches
  1333                           ; Switch size 1, requested type "simple"
  1334                           ; Number of cases is 1, Range of values is 0 to 0
  1335                           ; switch strategies available:
  1336                           ; Name         Instructions Cycles
  1337                           ; simple_byte            4     3 (average)
  1338                           ; direct_byte           11     8 (fixed)
  1339                           ; jumptable            260     6 (fixed)
  1340                           ;	Chosen strategy is simple_byte
  1341  0F12  0875               	movf	??_lcd_cursor+1,w
  1342  0F13  3A00               	xorlw	0	; case 0
  1343  0F14  1903               	skipnz
  1344  0F15  2F17               	goto	l1929
  1345  0F16  2F1F               	goto	l77
  1346  0F17                     l1929:	
  1347                           
  1348                           ; Switch size 1, requested type "simple"
  1349                           ; Number of cases is 2, Range of values is 1 to 2
  1350                           ; switch strategies available:
  1351                           ; Name         Instructions Cycles
  1352                           ; simple_byte            7     4 (average)
  1353                           ; direct_byte           17    11 (fixed)
  1354                           ; jumptable            263     9 (fixed)
  1355                           ;	Chosen strategy is simple_byte
  1356  0F17  0874               	movf	??_lcd_cursor,w
  1357  0F18  3A01               	xorlw	1	; case 1
  1358  0F19  1903               	skipnz
  1359  0F1A  2EFF               	goto	l1855
  1360  0F1B  3A03               	xorlw	3	; case 2
  1361  0F1C  1903               	skipnz
  1362  0F1D  2F07               	goto	l1857
  1363  0F1E  2F1F               	goto	l77
  1364  0F1F                     l77:	
  1365  0F1F  0008               	return
  1366  0F20                     __end_of_lcd_cursor:	
  1367                           
  1368                           	psect	text7
  1369  0007                     __ptext7:	
  1370 ;; *************** function _lcd_command *****************
  1371 ;; Defined at:
  1372 ;;		line 16 in file "LCD.c"
  1373 ;; Parameters:    Size  Location     Type
  1374 ;;  a               1    wreg     unsigned char 
  1375 ;; Auto vars:     Size  Location     Type
  1376 ;;  a               1    2[COMMON] unsigned char 
  1377 ;; Return value:  Size  Location     Type
  1378 ;;                  1    wreg      void 
  1379 ;; Registers used:
  1380 ;;		wreg
  1381 ;; Tracked objects:
  1382 ;;		On entry : 0/0
  1383 ;;		On exit  : 0/0
  1384 ;;		Unchanged: 0/0
  1385 ;; Data sizes:     COMMON   BANK0   BANK1   BANK3   BANK2
  1386 ;;      Params:         0       0       0       0       0
  1387 ;;      Locals:         1       0       0       0       0
  1388 ;;      Temps:          2       0       0       0       0
  1389 ;;      Totals:         3       0       0       0       0
  1390 ;;Total ram usage:        3 bytes
  1391 ;; Hardware stack levels used:    1
  1392 ;; This function calls:
  1393 ;;		Nothing
  1394 ;; This function is called by:
  1395 ;;		_lcd_cursor
  1396 ;;		_lcd_setup
  1397 ;;		_r_shift
  1398 ;;		_l_shift
  1399 ;; This function uses a non-reentrant model
  1400 ;;
  1401                           
  1402                           
  1403                           ;psect for function _lcd_command
  1404  0007                     _lcd_command:	
  1405                           
  1406                           ;incstack = 0
  1407                           ; Regs used in _lcd_command: [wreg]
  1408                           ;lcd_command@a stored from wreg
  1409  0007  00F2               	movwf	lcd_command@a
  1410  0008                     l1311:	
  1411                           
  1412                           ;LCD.c: 17:     PORTDbits.RD7 = PORTDbits.RD6 = 0;
  1413  0008  1283               	bcf	3,5	;RP0=0, select bank0
  1414  0009  1303               	bcf	3,6	;RP1=0, select bank0
  1415  000A  1308               	bcf	8,6	;volatile
  1416  000B  1388               	bcf	8,7	;volatile
  1417  000C                     l1313:	
  1418                           
  1419                           ;LCD.c: 18:     PORTB = a;
  1420  000C  0872               	movf	lcd_command@a,w
  1421  000D  0086               	movwf	6	;volatile
  1422  000E                     l1315:	
  1423                           
  1424                           ;LCD.c: 19:     PORTDbits.RD5=1;
  1425  000E  1688               	bsf	8,5	;volatile
  1426                           
  1427                           ;LCD.c: 20:     _delay((unsigned long)((4)*(4000000/4000.0)));
  1428  000F  3006               	movlw	6
  1429  0010  00F1               	movwf	??_lcd_command+1
  1430  0011  3030               	movlw	48
  1431  0012  00F0               	movwf	??_lcd_command
  1432  0013                     u2397:	
  1433  0013  0BF0               	decfsz	??_lcd_command,f
  1434  0014  2813               	goto	u2397
  1435  0015  0BF1               	decfsz	??_lcd_command+1,f
  1436  0016  2813               	goto	u2397
  1437  0017  0000               	nop
  1438  0018                     l1317:	
  1439                           
  1440                           ;LCD.c: 21:     PORTDbits.RD5=0;
  1441  0018  1283               	bcf	3,5	;RP0=0, select bank0
  1442  0019  1303               	bcf	3,6	;RP1=0, select bank0
  1443  001A  1288               	bcf	8,5	;volatile
  1444  001B                     l70:	
  1445  001B  0008               	return
  1446  001C                     __end_of_lcd_command:	
  1447                           
  1448                           	psect	text8
  1449  0244                     __ptext8:	
  1450 ;; *************** function _int_distance *****************
  1451 ;; Defined at:
  1452 ;;		line 65 in file "main.c"
  1453 ;; Parameters:    Size  Location     Type
  1454 ;;  valor           4   32[BANK0 ] unsigned long 
  1455 ;;  v1              1   36[BANK0 ] PTR unsigned char 
  1456 ;;		 -> c1(1), 
  1457 ;;  v2              1   37[BANK0 ] PTR unsigned char 
  1458 ;;		 -> d1(1), 
  1459 ;;  v3              1   38[BANK0 ] PTR unsigned char 
  1460 ;;		 -> u1(1), 
  1461 ;; Auto vars:     Size  Location     Type
  1462 ;;  conv            4   49[BANK0 ] float 
  1463 ;;  c               1   54[BANK0 ] unsigned char 
  1464 ;;  d               1   53[BANK0 ] unsigned char 
  1465 ;;  u               1   48[BANK0 ] unsigned char 
  1466 ;; Return value:  Size  Location     Type
  1467 ;;                  1    wreg      void 
  1468 ;; Registers used:
  1469 ;;		wreg, fsr0l, fsr0h, status,2, status,0, btemp+1, pclath, cstack
  1470 ;; Tracked objects:
  1471 ;;		On entry : 0/0
  1472 ;;		On exit  : 0/0
  1473 ;;		Unchanged: 0/0
  1474 ;; Data sizes:     COMMON   BANK0   BANK1   BANK3   BANK2
  1475 ;;      Params:         0       7       0       0       0
  1476 ;;      Locals:         0       7       0       0       0
  1477 ;;      Temps:          0       9       0       0       0
  1478 ;;      Totals:         0      23       0       0       0
  1479 ;;Total ram usage:       23 bytes
  1480 ;; Hardware stack levels used:    1
  1481 ;; Hardware stack levels required when called:    2
  1482 ;; This function calls:
  1483 ;;		___fldiv
  1484 ;;		___flsub
  1485 ;;		___fltol
  1486 ;;		___lldiv
  1487 ;;		___wmul
  1488 ;;		___xxtofl
  1489 ;; This function is called by:
  1490 ;;		_main
  1491 ;; This function uses a non-reentrant model
  1492 ;;
  1493                           
  1494                           
  1495                           ;psect for function _int_distance
  1496  0244                     _int_distance:	
  1497  0244                     l1839:	
  1498                           ;incstack = 0
  1499                           ; Regs used in _int_distance: [wreg-fsr0h+status,2+status,0+btemp+1+pclath+cstack]
  1500                           
  1501                           
  1502                           ;main.c: 66:     uint8_t c;;main.c: 67:     uint8_t d;;main.c: 68:     uint8_t u;;main.c
      +                          : 69:     float conv = valor&0xFFFFFF;
  1503  0244  30FF               	movlw	255
  1504  0245  1283               	bcf	3,5	;RP0=0, select bank0
  1505  0246  1303               	bcf	3,6	;RP1=0, select bank0
  1506  0247  0540               	andwf	int_distance@valor,w
  1507  0248  00F6               	movwf	___xxtofl@val
  1508  0249  30FF               	movlw	255
  1509  024A  0541               	andwf	int_distance@valor+1,w
  1510  024B  00F7               	movwf	___xxtofl@val+1
  1511  024C  30FF               	movlw	255
  1512  024D  0542               	andwf	int_distance@valor+2,w
  1513  024E  00F8               	movwf	___xxtofl@val+2
  1514  024F  3000               	movlw	0
  1515  0250  0543               	andwf	int_distance@valor+3,w
  1516  0251  00F9               	movwf	___xxtofl@val+3
  1517  0252  3000               	movlw	0
  1518  0253  120A  118A  2188  120A  118A  	fcall	___xxtofl
  1519  0258  0879               	movf	?___xxtofl+3,w
  1520  0259  1283               	bcf	3,5	;RP0=0, select bank0
  1521  025A  1303               	bcf	3,6	;RP1=0, select bank0
  1522  025B  00D4               	movwf	int_distance@conv+3
  1523  025C  0878               	movf	?___xxtofl+2,w
  1524  025D  00D3               	movwf	int_distance@conv+2
  1525  025E  0877               	movf	?___xxtofl+1,w
  1526  025F  00D2               	movwf	int_distance@conv+1
  1527  0260  0876               	movf	?___xxtofl,w
  1528  0261  00D1               	movwf	int_distance@conv
  1529                           
  1530                           ;main.c: 72:     c = (uint8_t)(valor/100);
  1531  0262  3000               	movlw	0
  1532  0263  00F3               	movwf	___lldiv@divisor+3
  1533  0264  3000               	movlw	0
  1534  0265  00F2               	movwf	___lldiv@divisor+2
  1535  0266  3000               	movlw	0
  1536  0267  00F1               	movwf	___lldiv@divisor+1
  1537  0268  3064               	movlw	100
  1538  0269  00F0               	movwf	___lldiv@divisor
  1539  026A  0843               	movf	int_distance@valor+3,w
  1540  026B  00F7               	movwf	___lldiv@dividend+3
  1541  026C  0842               	movf	int_distance@valor+2,w
  1542  026D  00F6               	movwf	___lldiv@dividend+2
  1543  026E  0841               	movf	int_distance@valor+1,w
  1544  026F  00F5               	movwf	___lldiv@dividend+1
  1545  0270  0840               	movf	int_distance@valor,w
  1546  0271  00F4               	movwf	___lldiv@dividend
  1547  0272  120A  118A  20A6  120A  118A  	fcall	___lldiv
  1548  0277  0870               	movf	?___lldiv,w
  1549  0278  1283               	bcf	3,5	;RP0=0, select bank0
  1550  0279  1303               	bcf	3,6	;RP1=0, select bank0
  1551  027A  00C7               	movwf	??_int_distance
  1552  027B  0847               	movf	??_int_distance,w
  1553  027C  00D6               	movwf	int_distance@c
  1554  027D                     l1841:	
  1555                           
  1556                           ;main.c: 73:     d = (uint8_t)((((conv)/10)-(c*10)));
  1557  027D  0854               	movf	int_distance@conv+3,w
  1558  027E  00F7               	movwf	___fldiv@b+3
  1559  027F  0853               	movf	int_distance@conv+2,w
  1560  0280  00F6               	movwf	___fldiv@b+2
  1561  0281  0852               	movf	int_distance@conv+1,w
  1562  0282  00F5               	movwf	___fldiv@b+1
  1563  0283  0851               	movf	int_distance@conv,w
  1564  0284  00F4               	movwf	___fldiv@b
  1565  0285  3041               	movlw	65
  1566  0286  00F3               	movwf	___fldiv@a+3
  1567  0287  3020               	movlw	32
  1568  0288  00F2               	movwf	___fldiv@a+2
  1569  0289  3000               	movlw	0
  1570  028A  00F1               	movwf	___fldiv@a+1
  1571  028B  3000               	movlw	0
  1572  028C  00F0               	movwf	___fldiv@a
  1573  028D  120A  118A  2378  120A  118A  	fcall	___fldiv
  1574  0292  0873               	movf	?___fldiv+3,w
  1575  0293  1283               	bcf	3,5	;RP0=0, select bank0
  1576  0294  1303               	bcf	3,6	;RP1=0, select bank0
  1577  0295  00B4               	movwf	___flsub@b+3
  1578  0296  0872               	movf	?___fldiv+2,w
  1579  0297  00B3               	movwf	___flsub@b+2
  1580  0298  0871               	movf	?___fldiv+1,w
  1581  0299  00B2               	movwf	___flsub@b+1
  1582  029A  0870               	movf	?___fldiv,w
  1583  029B  00B1               	movwf	___flsub@b
  1584  029C  300A               	movlw	10
  1585  029D  00F2               	movwf	___wmul@multiplicand
  1586  029E  3000               	movlw	0
  1587  029F  00F3               	movwf	___wmul@multiplicand+1
  1588  02A0  0856               	movf	int_distance@c,w
  1589  02A1  00C7               	movwf	??_int_distance
  1590  02A2  01C8               	clrf	??_int_distance+1
  1591  02A3  0847               	movf	??_int_distance,w
  1592  02A4  00F0               	movwf	___wmul@multiplier
  1593  02A5  0848               	movf	??_int_distance+1,w
  1594  02A6  00F1               	movwf	___wmul@multiplier+1
  1595  02A7  120A  158A  2744  120A  118A  	fcall	___wmul
  1596  02AC  0870               	movf	?___wmul,w
  1597  02AD  00F6               	movwf	___xxtofl@val
  1598  02AE  0871               	movf	?___wmul+1,w
  1599  02AF  00F7               	movwf	___xxtofl@val+1
  1600  02B0  3000               	movlw	0
  1601  02B1  1BF7               	btfsc	___xxtofl@val+1,7
  1602  02B2  30FF               	movlw	255
  1603  02B3  00F8               	movwf	___xxtofl@val+2
  1604  02B4  00F9               	movwf	___xxtofl@val+3
  1605  02B5  3001               	movlw	1
  1606  02B6  120A  118A  2188  120A  118A  	fcall	___xxtofl
  1607  02BB  0879               	movf	?___xxtofl+3,w
  1608  02BC  1283               	bcf	3,5	;RP0=0, select bank0
  1609  02BD  1303               	bcf	3,6	;RP1=0, select bank0
  1610  02BE  00B0               	movwf	___flsub@a+3
  1611  02BF  0878               	movf	?___xxtofl+2,w
  1612  02C0  00AF               	movwf	___flsub@a+2
  1613  02C1  0877               	movf	?___xxtofl+1,w
  1614  02C2  00AE               	movwf	___flsub@a+1
  1615  02C3  0876               	movf	?___xxtofl,w
  1616  02C4  00AD               	movwf	___flsub@a
  1617  02C5  120A  158A  2720  120A  118A  	fcall	___flsub
  1618  02CA  1283               	bcf	3,5	;RP0=0, select bank0
  1619  02CB  1303               	bcf	3,6	;RP1=0, select bank0
  1620  02CC  0830               	movf	?___flsub+3,w
  1621  02CD  00B8               	movwf	___fltol@f1+3
  1622  02CE  082F               	movf	?___flsub+2,w
  1623  02CF  00B7               	movwf	___fltol@f1+2
  1624  02D0  082E               	movf	?___flsub+1,w
  1625  02D1  00B6               	movwf	___fltol@f1+1
  1626  02D2  082D               	movf	?___flsub,w
  1627  02D3  00B5               	movwf	___fltol@f1
  1628  02D4  120A  118A  210C  120A  118A  	fcall	___fltol
  1629  02D9  1283               	bcf	3,5	;RP0=0, select bank0
  1630  02DA  1303               	bcf	3,6	;RP1=0, select bank0
  1631  02DB  0835               	movf	?___fltol,w
  1632  02DC  00C9               	movwf	??_int_distance+2
  1633  02DD  0849               	movf	??_int_distance+2,w
  1634  02DE  00D5               	movwf	int_distance@d
  1635  02DF                     l1843:	
  1636                           
  1637                           ;main.c: 74:     u = (uint8_t)((conv)/1-(c*100+d*10));
  1638  02DF  0854               	movf	int_distance@conv+3,w
  1639  02E0  00F7               	movwf	___fldiv@b+3
  1640  02E1  0853               	movf	int_distance@conv+2,w
  1641  02E2  00F6               	movwf	___fldiv@b+2
  1642  02E3  0852               	movf	int_distance@conv+1,w
  1643  02E4  00F5               	movwf	___fldiv@b+1
  1644  02E5  0851               	movf	int_distance@conv,w
  1645  02E6  00F4               	movwf	___fldiv@b
  1646  02E7  303F               	movlw	63
  1647  02E8  00F3               	movwf	___fldiv@a+3
  1648  02E9  3080               	movlw	128
  1649  02EA  00F2               	movwf	___fldiv@a+2
  1650  02EB  3000               	movlw	0
  1651  02EC  00F1               	movwf	___fldiv@a+1
  1652  02ED  3000               	movlw	0
  1653  02EE  00F0               	movwf	___fldiv@a
  1654  02EF  120A  118A  2378  120A  118A  	fcall	___fldiv
  1655  02F4  0873               	movf	?___fldiv+3,w
  1656  02F5  1283               	bcf	3,5	;RP0=0, select bank0
  1657  02F6  1303               	bcf	3,6	;RP1=0, select bank0
  1658  02F7  00B4               	movwf	___flsub@b+3
  1659  02F8  0872               	movf	?___fldiv+2,w
  1660  02F9  00B3               	movwf	___flsub@b+2
  1661  02FA  0871               	movf	?___fldiv+1,w
  1662  02FB  00B2               	movwf	___flsub@b+1
  1663  02FC  0870               	movf	?___fldiv,w
  1664  02FD  00B1               	movwf	___flsub@b
  1665  02FE  3064               	movlw	100
  1666  02FF  00F2               	movwf	___wmul@multiplicand
  1667  0300  3000               	movlw	0
  1668  0301  00F3               	movwf	___wmul@multiplicand+1
  1669  0302  0856               	movf	int_distance@c,w
  1670  0303  00C7               	movwf	??_int_distance
  1671  0304  01C8               	clrf	??_int_distance+1
  1672  0305  0847               	movf	??_int_distance,w
  1673  0306  00F0               	movwf	___wmul@multiplier
  1674  0307  0848               	movf	??_int_distance+1,w
  1675  0308  00F1               	movwf	___wmul@multiplier+1
  1676  0309  120A  158A  2744  120A  118A  	fcall	___wmul
  1677  030E  0870               	movf	?___wmul,w
  1678  030F  1283               	bcf	3,5	;RP0=0, select bank0
  1679  0310  1303               	bcf	3,6	;RP1=0, select bank0
  1680  0311  00C9               	movwf	??_int_distance+2
  1681  0312  0871               	movf	?___wmul+1,w
  1682  0313  00CA               	movwf	??_int_distance+3
  1683  0314  300A               	movlw	10
  1684  0315  00F2               	movwf	___wmul@multiplicand
  1685  0316  3000               	movlw	0
  1686  0317  00F3               	movwf	___wmul@multiplicand+1
  1687  0318  0855               	movf	int_distance@d,w
  1688  0319  00CB               	movwf	??_int_distance+4
  1689  031A  01CC               	clrf	??_int_distance+5
  1690  031B  084B               	movf	??_int_distance+4,w
  1691  031C  00F0               	movwf	___wmul@multiplier
  1692  031D  084C               	movf	??_int_distance+5,w
  1693  031E  00F1               	movwf	___wmul@multiplier+1
  1694  031F  120A  158A  2744  120A  118A  	fcall	___wmul
  1695  0324  0870               	movf	?___wmul,w
  1696  0325  1283               	bcf	3,5	;RP0=0, select bank0
  1697  0326  1303               	bcf	3,6	;RP1=0, select bank0
  1698  0327  0749               	addwf	??_int_distance+2,w
  1699  0328  00CD               	movwf	??_int_distance+6
  1700  0329  0871               	movf	?___wmul+1,w
  1701  032A  1803               	skipnc
  1702  032B  0A71               	incf	?___wmul+1,w
  1703  032C  074A               	addwf	??_int_distance+3,w
  1704  032D  00CE               	movwf	??_int_distance+7
  1705  032E  084D               	movf	??_int_distance+6,w
  1706  032F  00F6               	movwf	___xxtofl@val
  1707  0330  084E               	movf	??_int_distance+7,w
  1708  0331  00F7               	movwf	___xxtofl@val+1
  1709  0332  3000               	movlw	0
  1710  0333  1BF7               	btfsc	___xxtofl@val+1,7
  1711  0334  30FF               	movlw	255
  1712  0335  00F8               	movwf	___xxtofl@val+2
  1713  0336  00F9               	movwf	___xxtofl@val+3
  1714  0337  3001               	movlw	1
  1715  0338  120A  118A  2188  120A  118A  	fcall	___xxtofl
  1716  033D  0879               	movf	?___xxtofl+3,w
  1717  033E  1283               	bcf	3,5	;RP0=0, select bank0
  1718  033F  1303               	bcf	3,6	;RP1=0, select bank0
  1719  0340  00B0               	movwf	___flsub@a+3
  1720  0341  0878               	movf	?___xxtofl+2,w
  1721  0342  00AF               	movwf	___flsub@a+2
  1722  0343  0877               	movf	?___xxtofl+1,w
  1723  0344  00AE               	movwf	___flsub@a+1
  1724  0345  0876               	movf	?___xxtofl,w
  1725  0346  00AD               	movwf	___flsub@a
  1726  0347  120A  158A  2720  120A  118A  	fcall	___flsub
  1727  034C  1283               	bcf	3,5	;RP0=0, select bank0
  1728  034D  1303               	bcf	3,6	;RP1=0, select bank0
  1729  034E  0830               	movf	?___flsub+3,w
  1730  034F  00B8               	movwf	___fltol@f1+3
  1731  0350  082F               	movf	?___flsub+2,w
  1732  0351  00B7               	movwf	___fltol@f1+2
  1733  0352  082E               	movf	?___flsub+1,w
  1734  0353  00B6               	movwf	___fltol@f1+1
  1735  0354  082D               	movf	?___flsub,w
  1736  0355  00B5               	movwf	___fltol@f1
  1737  0356  120A  118A  210C  120A  118A  	fcall	___fltol
  1738  035B  1283               	bcf	3,5	;RP0=0, select bank0
  1739  035C  1303               	bcf	3,6	;RP1=0, select bank0
  1740  035D  0835               	movf	?___fltol,w
  1741  035E  00CF               	movwf	??_int_distance+8
  1742  035F  084F               	movf	??_int_distance+8,w
  1743  0360  00D0               	movwf	int_distance@u
  1744  0361                     l1845:	
  1745                           
  1746                           ;main.c: 75:     *v1=c+48;
  1747  0361  0856               	movf	int_distance@c,w
  1748  0362  3E30               	addlw	48
  1749  0363  00C7               	movwf	??_int_distance
  1750  0364  0844               	movf	int_distance@v1,w
  1751  0365  0084               	movwf	4
  1752  0366  0847               	movf	??_int_distance,w
  1753  0367  1383               	bcf	3,7	;select IRP bank0
  1754  0368  0080               	movwf	0
  1755  0369                     l1847:	
  1756                           
  1757                           ;main.c: 76:     *v2=d+48;
  1758  0369  0855               	movf	int_distance@d,w
  1759  036A  3E30               	addlw	48
  1760  036B  00C7               	movwf	??_int_distance
  1761  036C  0845               	movf	int_distance@v2,w
  1762  036D  0084               	movwf	4
  1763  036E  0847               	movf	??_int_distance,w
  1764  036F  0080               	movwf	0
  1765  0370                     l1849:	
  1766                           
  1767                           ;main.c: 77:     *v3=u+48;
  1768  0370  0850               	movf	int_distance@u,w
  1769  0371  3E30               	addlw	48
  1770  0372  00C7               	movwf	??_int_distance
  1771  0373  0846               	movf	int_distance@v3,w
  1772  0374  0084               	movwf	4
  1773  0375  0847               	movf	??_int_distance,w
  1774  0376  0080               	movwf	0
  1775  0377                     l55:	
  1776  0377  0008               	return
  1777  0378                     __end_of_int_distance:	
  1778                           
  1779                           	psect	text9
  1780  0188                     __ptext9:	
  1781 ;; *************** function ___xxtofl *****************
  1782 ;; Defined at:
  1783 ;;		line 10 in file "D:\Program Files (x86)\Microchip\xc8\v2.10\pic\sources\c90\common\xxtofl.c"
  1784 ;; Parameters:    Size  Location     Type
  1785 ;;  sign            1    wreg     unsigned char 
  1786 ;;  val             4    6[COMMON] long 
  1787 ;; Auto vars:     Size  Location     Type
  1788 ;;  sign            1    0[BANK0 ] unsigned char 
  1789 ;;  arg             4    2[BANK0 ] unsigned long 
  1790 ;;  exp             1    1[BANK0 ] unsigned char 
  1791 ;; Return value:  Size  Location     Type
  1792 ;;                  4    6[COMMON] unsigned char 
  1793 ;; Registers used:
  1794 ;;		wreg, status,2, status,0
  1795 ;; Tracked objects:
  1796 ;;		On entry : 0/0
  1797 ;;		On exit  : 0/0
  1798 ;;		Unchanged: 0/0
  1799 ;; Data sizes:     COMMON   BANK0   BANK1   BANK3   BANK2
  1800 ;;      Params:         4       0       0       0       0
  1801 ;;      Locals:         0       6       0       0       0
  1802 ;;      Temps:          4       0       0       0       0
  1803 ;;      Totals:         8       6       0       0       0
  1804 ;;Total ram usage:       14 bytes
  1805 ;; Hardware stack levels used:    1
  1806 ;; This function calls:
  1807 ;;		Nothing
  1808 ;; This function is called by:
  1809 ;;		_int_distance
  1810 ;; This function uses a non-reentrant model
  1811 ;;
  1812                           
  1813                           
  1814                           ;psect for function ___xxtofl
  1815  0188                     ___xxtofl:	
  1816                           
  1817                           ;incstack = 0
  1818                           ; Regs used in ___xxtofl: [wreg+status,2+status,0]
  1819                           ;___xxtofl@sign stored from wreg
  1820  0188  1283               	bcf	3,5	;RP0=0, select bank0
  1821  0189  1303               	bcf	3,6	;RP1=0, select bank0
  1822  018A  00A0               	movwf	___xxtofl@sign
  1823  018B                     l1767:	
  1824  018B  0820               	movf	___xxtofl@sign,w
  1825  018C  1903               	btfsc	3,2
  1826  018D  298F               	goto	u2151
  1827  018E  2990               	goto	u2150
  1828  018F                     u2151:	
  1829  018F  29A4               	goto	l1773
  1830  0190                     u2150:	
  1831  0190                     l1769:	
  1832  0190  1FF9               	btfss	___xxtofl@val+3,7
  1833  0191  2993               	goto	u2161
  1834  0192  2994               	goto	u2160
  1835  0193                     u2161:	
  1836  0193  29A4               	goto	l1773
  1837  0194                     u2160:	
  1838  0194                     l1771:	
  1839  0194  0976               	comf	___xxtofl@val,w
  1840  0195  00A2               	movwf	___xxtofl@arg
  1841  0196  0977               	comf	___xxtofl@val+1,w
  1842  0197  00A3               	movwf	___xxtofl@arg+1
  1843  0198  0978               	comf	___xxtofl@val+2,w
  1844  0199  00A4               	movwf	___xxtofl@arg+2
  1845  019A  0979               	comf	___xxtofl@val+3,w
  1846  019B  00A5               	movwf	___xxtofl@arg+3
  1847  019C  0AA2               	incf	___xxtofl@arg,f
  1848  019D  1903               	skipnz
  1849  019E  0AA3               	incf	___xxtofl@arg+1,f
  1850  019F  1903               	skipnz
  1851  01A0  0AA4               	incf	___xxtofl@arg+2,f
  1852  01A1  1903               	skipnz
  1853  01A2  0AA5               	incf	___xxtofl@arg+3,f
  1854  01A3  29AC               	goto	l614
  1855  01A4                     l1773:	
  1856  01A4  0879               	movf	___xxtofl@val+3,w
  1857  01A5  00A5               	movwf	___xxtofl@arg+3
  1858  01A6  0878               	movf	___xxtofl@val+2,w
  1859  01A7  00A4               	movwf	___xxtofl@arg+2
  1860  01A8  0877               	movf	___xxtofl@val+1,w
  1861  01A9  00A3               	movwf	___xxtofl@arg+1
  1862  01AA  0876               	movf	___xxtofl@val,w
  1863  01AB  00A2               	movwf	___xxtofl@arg
  1864  01AC                     l614:	
  1865  01AC  0879               	movf	___xxtofl@val+3,w
  1866  01AD  0478               	iorwf	___xxtofl@val+2,w
  1867  01AE  0477               	iorwf	___xxtofl@val+1,w
  1868  01AF  0476               	iorwf	___xxtofl@val,w
  1869  01B0  1D03               	skipz
  1870  01B1  29B3               	goto	u2171
  1871  01B2  29B4               	goto	u2170
  1872  01B3                     u2171:	
  1873  01B3  29BD               	goto	l1779
  1874  01B4                     u2170:	
  1875  01B4                     l1775:	
  1876  01B4  3000               	movlw	0
  1877  01B5  00F9               	movwf	?___xxtofl+3
  1878  01B6  3000               	movlw	0
  1879  01B7  00F8               	movwf	?___xxtofl+2
  1880  01B8  3000               	movlw	0
  1881  01B9  00F7               	movwf	?___xxtofl+1
  1882  01BA  3000               	movlw	0
  1883  01BB  00F6               	movwf	?___xxtofl
  1884  01BC  2A43               	goto	l616
  1885  01BD                     l1779:	
  1886  01BD  3096               	movlw	150
  1887  01BE  00FA               	movwf	??___xxtofl
  1888  01BF  087A               	movf	??___xxtofl,w
  1889  01C0  00A1               	movwf	___xxtofl@exp
  1890  01C1  29CF               	goto	l1783
  1891  01C2                     l1781:	
  1892  01C2  3001               	movlw	1
  1893  01C3  00FA               	movwf	??___xxtofl
  1894  01C4  087A               	movf	??___xxtofl,w
  1895  01C5  07A1               	addwf	___xxtofl@exp,f
  1896  01C6  3001               	movlw	1
  1897  01C7                     u2185:	
  1898  01C7  1003               	clrc
  1899  01C8  0CA5               	rrf	___xxtofl@arg+3,f
  1900  01C9  0CA4               	rrf	___xxtofl@arg+2,f
  1901  01CA  0CA3               	rrf	___xxtofl@arg+1,f
  1902  01CB  0CA2               	rrf	___xxtofl@arg,f
  1903  01CC  3EFF               	addlw	-1
  1904  01CD  1D03               	skipz
  1905  01CE  29C7               	goto	u2185
  1906  01CF                     l1783:	
  1907  01CF  30FE               	movlw	254
  1908  01D0  0525               	andwf	___xxtofl@arg+3,w
  1909  01D1  1D03               	btfss	3,2
  1910  01D2  29D4               	goto	u2191
  1911  01D3  29D5               	goto	u2190
  1912  01D4                     u2191:	
  1913  01D4  29C2               	goto	l1781
  1914  01D5                     u2190:	
  1915  01D5  29F1               	goto	l620
  1916  01D6                     l1785:	
  1917  01D6  3001               	movlw	1
  1918  01D7  00FA               	movwf	??___xxtofl
  1919  01D8  087A               	movf	??___xxtofl,w
  1920  01D9  07A1               	addwf	___xxtofl@exp,f
  1921  01DA                     l1787:	
  1922  01DA  3001               	movlw	1
  1923  01DB  07A2               	addwf	___xxtofl@arg,f
  1924  01DC  3000               	movlw	0
  1925  01DD  1803               	skipnc
  1926  01DE  3001               	movlw	1
  1927  01DF  07A3               	addwf	___xxtofl@arg+1,f
  1928  01E0  3000               	movlw	0
  1929  01E1  1803               	skipnc
  1930  01E2  3001               	movlw	1
  1931  01E3  07A4               	addwf	___xxtofl@arg+2,f
  1932  01E4  3000               	movlw	0
  1933  01E5  1803               	skipnc
  1934  01E6  3001               	movlw	1
  1935  01E7  07A5               	addwf	___xxtofl@arg+3,f
  1936  01E8                     l1789:	
  1937  01E8  3001               	movlw	1
  1938  01E9                     u2205:	
  1939  01E9  1003               	clrc
  1940  01EA  0CA5               	rrf	___xxtofl@arg+3,f
  1941  01EB  0CA4               	rrf	___xxtofl@arg+2,f
  1942  01EC  0CA3               	rrf	___xxtofl@arg+1,f
  1943  01ED  0CA2               	rrf	___xxtofl@arg,f
  1944  01EE  3EFF               	addlw	-1
  1945  01EF  1D03               	skipz
  1946  01F0  29E9               	goto	u2205
  1947  01F1                     l620:	
  1948  01F1  30FF               	movlw	255
  1949  01F2  0525               	andwf	___xxtofl@arg+3,w
  1950  01F3  1D03               	btfss	3,2
  1951  01F4  29F6               	goto	u2211
  1952  01F5  29F7               	goto	u2210
  1953  01F6                     u2211:	
  1954  01F6  29D6               	goto	l1785
  1955  01F7                     u2210:	
  1956  01F7  2A03               	goto	l1793
  1957  01F8                     l1791:	
  1958  01F8  3001               	movlw	1
  1959  01F9  02A1               	subwf	___xxtofl@exp,f
  1960  01FA  3001               	movlw	1
  1961  01FB  00FA               	movwf	??___xxtofl
  1962  01FC                     u2225:	
  1963  01FC  1003               	clrc
  1964  01FD  0DA2               	rlf	___xxtofl@arg,f
  1965  01FE  0DA3               	rlf	___xxtofl@arg+1,f
  1966  01FF  0DA4               	rlf	___xxtofl@arg+2,f
  1967  0200  0DA5               	rlf	___xxtofl@arg+3,f
  1968  0201  0BFA               	decfsz	??___xxtofl,f
  1969  0202  29FC               	goto	u2225
  1970  0203                     l1793:	
  1971  0203  1BA4               	btfsc	___xxtofl@arg+2,7
  1972  0204  2A06               	goto	u2231
  1973  0205  2A07               	goto	u2230
  1974  0206                     u2231:	
  1975  0206  2A0D               	goto	l627
  1976  0207                     u2230:	
  1977  0207                     l1795:	
  1978  0207  3002               	movlw	2
  1979  0208  0221               	subwf	___xxtofl@exp,w
  1980  0209  1803               	skipnc
  1981  020A  2A0C               	goto	u2241
  1982  020B  2A0D               	goto	u2240
  1983  020C                     u2241:	
  1984  020C  29F8               	goto	l1791
  1985  020D                     u2240:	
  1986  020D                     l627:	
  1987  020D  1821               	btfsc	___xxtofl@exp,0
  1988  020E  2A10               	goto	u2251
  1989  020F  2A11               	goto	u2250
  1990  0210                     u2251:	
  1991  0210  2A19               	goto	l628
  1992  0211                     u2250:	
  1993  0211                     l1797:	
  1994  0211  30FF               	movlw	255
  1995  0212  05A2               	andwf	___xxtofl@arg,f
  1996  0213  30FF               	movlw	255
  1997  0214  05A3               	andwf	___xxtofl@arg+1,f
  1998  0215  307F               	movlw	127
  1999  0216  05A4               	andwf	___xxtofl@arg+2,f
  2000  0217  30FF               	movlw	255
  2001  0218  05A5               	andwf	___xxtofl@arg+3,f
  2002  0219                     l628:	
  2003  0219  1003               	clrc
  2004  021A  0CA1               	rrf	___xxtofl@exp,f
  2005  021B                     l1799:	
  2006  021B  0821               	movf	___xxtofl@exp,w
  2007  021C  00FA               	movwf	??___xxtofl
  2008  021D  01FB               	clrf	??___xxtofl+1
  2009  021E  01FC               	clrf	??___xxtofl+2
  2010  021F  01FD               	clrf	??___xxtofl+3
  2011  0220  3018               	movlw	24
  2012  0221                     u2265:	
  2013  0221  1003               	clrc
  2014  0222  0DFA               	rlf	??___xxtofl,f
  2015  0223  0DFB               	rlf	??___xxtofl+1,f
  2016  0224  0DFC               	rlf	??___xxtofl+2,f
  2017  0225  0DFD               	rlf	??___xxtofl+3,f
  2018  0226                     u2260:	
  2019  0226  3EFF               	addlw	-1
  2020  0227  1D03               	skipz
  2021  0228  2A21               	goto	u2265
  2022  0229  087A               	movf	??___xxtofl,w
  2023  022A  04A2               	iorwf	___xxtofl@arg,f
  2024  022B  087B               	movf	??___xxtofl+1,w
  2025  022C  04A3               	iorwf	___xxtofl@arg+1,f
  2026  022D  087C               	movf	??___xxtofl+2,w
  2027  022E  04A4               	iorwf	___xxtofl@arg+2,f
  2028  022F  087D               	movf	??___xxtofl+3,w
  2029  0230  04A5               	iorwf	___xxtofl@arg+3,f
  2030  0231                     l1801:	
  2031  0231  0820               	movf	___xxtofl@sign,w
  2032  0232  1903               	btfsc	3,2
  2033  0233  2A35               	goto	u2271
  2034  0234  2A36               	goto	u2270
  2035  0235                     u2271:	
  2036  0235  2A3B               	goto	l1807
  2037  0236                     u2270:	
  2038  0236                     l1803:	
  2039  0236  1FF9               	btfss	___xxtofl@val+3,7
  2040  0237  2A39               	goto	u2281
  2041  0238  2A3A               	goto	u2280
  2042  0239                     u2281:	
  2043  0239  2A3B               	goto	l1807
  2044  023A                     u2280:	
  2045  023A                     l1805:	
  2046  023A  17A5               	bsf	___xxtofl@arg+3,7
  2047  023B                     l1807:	
  2048  023B  0825               	movf	___xxtofl@arg+3,w
  2049  023C  00F9               	movwf	?___xxtofl+3
  2050  023D  0824               	movf	___xxtofl@arg+2,w
  2051  023E  00F8               	movwf	?___xxtofl+2
  2052  023F  0823               	movf	___xxtofl@arg+1,w
  2053  0240  00F7               	movwf	?___xxtofl+1
  2054  0241  0822               	movf	___xxtofl@arg,w
  2055  0242  00F6               	movwf	?___xxtofl
  2056  0243                     l616:	
  2057  0243  0008               	return
  2058  0244                     __end_of___xxtofl:	
  2059                           
  2060                           	psect	text10
  2061  0F44                     __ptext10:	
  2062 ;; *************** function ___wmul *****************
  2063 ;; Defined at:
  2064 ;;		line 15 in file "D:\Program Files (x86)\Microchip\xc8\v2.10\pic\sources\c90\common\Umul16.c"
  2065 ;; Parameters:    Size  Location     Type
  2066 ;;  multiplier      2    0[COMMON] unsigned int 
  2067 ;;  multiplicand    2    2[COMMON] unsigned int 
  2068 ;; Auto vars:     Size  Location     Type
  2069 ;;  product         2    4[COMMON] unsigned int 
  2070 ;; Return value:  Size  Location     Type
  2071 ;;                  2    0[COMMON] unsigned int 
  2072 ;; Registers used:
  2073 ;;		wreg, status,2, status,0
  2074 ;; Tracked objects:
  2075 ;;		On entry : 0/0
  2076 ;;		On exit  : 0/0
  2077 ;;		Unchanged: 0/0
  2078 ;; Data sizes:     COMMON   BANK0   BANK1   BANK3   BANK2
  2079 ;;      Params:         4       0       0       0       0
  2080 ;;      Locals:         2       0       0       0       0
  2081 ;;      Temps:          0       0       0       0       0
  2082 ;;      Totals:         6       0       0       0       0
  2083 ;;Total ram usage:        6 bytes
  2084 ;; Hardware stack levels used:    1
  2085 ;; This function calls:
  2086 ;;		Nothing
  2087 ;; This function is called by:
  2088 ;;		_int_distance
  2089 ;; This function uses a non-reentrant model
  2090 ;;
  2091                           
  2092                           
  2093                           ;psect for function ___wmul
  2094  0F44                     ___wmul:	
  2095  0F44                     l1545:	
  2096                           ;incstack = 0
  2097                           ; Regs used in ___wmul: [wreg+status,2+status,0]
  2098                           
  2099  0F44  01F4               	clrf	___wmul@product
  2100  0F45  01F5               	clrf	___wmul@product+1
  2101  0F46                     l1547:	
  2102  0F46  1C70               	btfss	___wmul@multiplier,0
  2103  0F47  2F49               	goto	u1641
  2104  0F48  2F4A               	goto	u1640
  2105  0F49                     u1641:	
  2106  0F49  2F50               	goto	l187
  2107  0F4A                     u1640:	
  2108  0F4A                     l1549:	
  2109  0F4A  0872               	movf	___wmul@multiplicand,w
  2110  0F4B  07F4               	addwf	___wmul@product,f
  2111  0F4C  1803               	skipnc
  2112  0F4D  0AF5               	incf	___wmul@product+1,f
  2113  0F4E  0873               	movf	___wmul@multiplicand+1,w
  2114  0F4F  07F5               	addwf	___wmul@product+1,f
  2115  0F50                     l187:	
  2116  0F50  3001               	movlw	1
  2117  0F51                     u1655:	
  2118  0F51  1003               	clrc
  2119  0F52  0DF2               	rlf	___wmul@multiplicand,f
  2120  0F53  0DF3               	rlf	___wmul@multiplicand+1,f
  2121  0F54  3EFF               	addlw	-1
  2122  0F55  1D03               	skipz
  2123  0F56  2F51               	goto	u1655
  2124  0F57                     l1551:	
  2125  0F57  3001               	movlw	1
  2126  0F58                     u1665:	
  2127  0F58  1003               	clrc
  2128  0F59  0CF1               	rrf	___wmul@multiplier+1,f
  2129  0F5A  0CF0               	rrf	___wmul@multiplier,f
  2130  0F5B  3EFF               	addlw	-1
  2131  0F5C  1D03               	skipz
  2132  0F5D  2F58               	goto	u1665
  2133  0F5E                     l1553:	
  2134  0F5E  0870               	movf	___wmul@multiplier,w
  2135  0F5F  0471               	iorwf	___wmul@multiplier+1,w
  2136  0F60  1D03               	btfss	3,2
  2137  0F61  2F63               	goto	u1671
  2138  0F62  2F64               	goto	u1670
  2139  0F63                     u1671:	
  2140  0F63  2F46               	goto	l1547
  2141  0F64                     u1670:	
  2142  0F64                     l1555:	
  2143  0F64  0875               	movf	___wmul@product+1,w
  2144  0F65  00F1               	movwf	?___wmul+1
  2145  0F66  0874               	movf	___wmul@product,w
  2146  0F67  00F0               	movwf	?___wmul
  2147  0F68                     l189:	
  2148  0F68  0008               	return
  2149  0F69                     __end_of___wmul:	
  2150                           
  2151                           	psect	text11
  2152  00A6                     __ptext11:	
  2153 ;; *************** function ___lldiv *****************
  2154 ;; Defined at:
  2155 ;;		line 5 in file "D:\Program Files (x86)\Microchip\xc8\v2.10\pic\sources\c90\common\__lldiv.c"
  2156 ;; Parameters:    Size  Location     Type
  2157 ;;  divisor         4    0[COMMON] unsigned long 
  2158 ;;  dividend        4    4[COMMON] unsigned long 
  2159 ;; Auto vars:     Size  Location     Type
  2160 ;;  quotient        4    9[COMMON] unsigned long 
  2161 ;;  counter         1   13[COMMON] unsigned char 
  2162 ;; Return value:  Size  Location     Type
  2163 ;;                  4    0[COMMON] unsigned long 
  2164 ;; Registers used:
  2165 ;;		wreg, status,2, status,0
  2166 ;; Tracked objects:
  2167 ;;		On entry : 0/0
  2168 ;;		On exit  : 0/0
  2169 ;;		Unchanged: 0/0
  2170 ;; Data sizes:     COMMON   BANK0   BANK1   BANK3   BANK2
  2171 ;;      Params:         8       0       0       0       0
  2172 ;;      Locals:         5       0       0       0       0
  2173 ;;      Temps:          1       0       0       0       0
  2174 ;;      Totals:        14       0       0       0       0
  2175 ;;Total ram usage:       14 bytes
  2176 ;; Hardware stack levels used:    1
  2177 ;; This function calls:
  2178 ;;		Nothing
  2179 ;; This function is called by:
  2180 ;;		_int_distance
  2181 ;; This function uses a non-reentrant model
  2182 ;;
  2183                           
  2184                           
  2185                           ;psect for function ___lldiv
  2186  00A6                     ___lldiv:	
  2187  00A6                     l1559:	
  2188                           ;incstack = 0
  2189                           ; Regs used in ___lldiv: [wreg+status,2+status,0]
  2190                           
  2191  00A6  3000               	movlw	0
  2192  00A7  00FC               	movwf	___lldiv@quotient+3
  2193  00A8  3000               	movlw	0
  2194  00A9  00FB               	movwf	___lldiv@quotient+2
  2195  00AA  3000               	movlw	0
  2196  00AB  00FA               	movwf	___lldiv@quotient+1
  2197  00AC  3000               	movlw	0
  2198  00AD  00F9               	movwf	___lldiv@quotient
  2199  00AE  0873               	movf	___lldiv@divisor+3,w
  2200  00AF  0472               	iorwf	___lldiv@divisor+2,w
  2201  00B0  0471               	iorwf	___lldiv@divisor+1,w
  2202  00B1  0470               	iorwf	___lldiv@divisor,w
  2203  00B2  1903               	skipnz
  2204  00B3  28B5               	goto	u1681
  2205  00B4  28B6               	goto	u1680
  2206  00B5                     u1681:	
  2207  00B5  2903               	goto	l1579
  2208  00B6                     u1680:	
  2209  00B6                     l1561:	
  2210  00B6  01FD               	clrf	___lldiv@counter
  2211  00B7  0AFD               	incf	___lldiv@counter,f
  2212  00B8  28C6               	goto	l1565
  2213  00B9                     l1563:	
  2214  00B9  3001               	movlw	1
  2215  00BA  00F8               	movwf	??___lldiv
  2216  00BB                     u1695:	
  2217  00BB  1003               	clrc
  2218  00BC  0DF0               	rlf	___lldiv@divisor,f
  2219  00BD  0DF1               	rlf	___lldiv@divisor+1,f
  2220  00BE  0DF2               	rlf	___lldiv@divisor+2,f
  2221  00BF  0DF3               	rlf	___lldiv@divisor+3,f
  2222  00C0  0BF8               	decfsz	??___lldiv,f
  2223  00C1  28BB               	goto	u1695
  2224  00C2  3001               	movlw	1
  2225  00C3  00F8               	movwf	??___lldiv
  2226  00C4  0878               	movf	??___lldiv,w
  2227  00C5  07FD               	addwf	___lldiv@counter,f
  2228  00C6                     l1565:	
  2229  00C6  1FF3               	btfss	___lldiv@divisor+3,7
  2230  00C7  28C9               	goto	u1701
  2231  00C8  28CA               	goto	u1700
  2232  00C9                     u1701:	
  2233  00C9  28B9               	goto	l1563
  2234  00CA                     u1700:	
  2235  00CA                     l1567:	
  2236  00CA  3001               	movlw	1
  2237  00CB  00F8               	movwf	??___lldiv
  2238  00CC                     u1715:	
  2239  00CC  1003               	clrc
  2240  00CD  0DF9               	rlf	___lldiv@quotient,f
  2241  00CE  0DFA               	rlf	___lldiv@quotient+1,f
  2242  00CF  0DFB               	rlf	___lldiv@quotient+2,f
  2243  00D0  0DFC               	rlf	___lldiv@quotient+3,f
  2244  00D1  0BF8               	decfsz	??___lldiv,f
  2245  00D2  28CC               	goto	u1715
  2246  00D3                     l1569:	
  2247  00D3  0873               	movf	___lldiv@divisor+3,w
  2248  00D4  0277               	subwf	___lldiv@dividend+3,w
  2249  00D5  1D03               	skipz
  2250  00D6  28E1               	goto	u1725
  2251  00D7  0872               	movf	___lldiv@divisor+2,w
  2252  00D8  0276               	subwf	___lldiv@dividend+2,w
  2253  00D9  1D03               	skipz
  2254  00DA  28E1               	goto	u1725
  2255  00DB  0871               	movf	___lldiv@divisor+1,w
  2256  00DC  0275               	subwf	___lldiv@dividend+1,w
  2257  00DD  1D03               	skipz
  2258  00DE  28E1               	goto	u1725
  2259  00DF  0870               	movf	___lldiv@divisor,w
  2260  00E0  0274               	subwf	___lldiv@dividend,w
  2261  00E1                     u1725:	
  2262  00E1  1C03               	skipc
  2263  00E2  28E4               	goto	u1721
  2264  00E3  28E5               	goto	u1720
  2265  00E4                     u1721:	
  2266  00E4  28F4               	goto	l1575
  2267  00E5                     u1720:	
  2268  00E5                     l1571:	
  2269  00E5  0870               	movf	___lldiv@divisor,w
  2270  00E6  02F4               	subwf	___lldiv@dividend,f
  2271  00E7  0871               	movf	___lldiv@divisor+1,w
  2272  00E8  1C03               	skipc
  2273  00E9  0F71               	incfsz	___lldiv@divisor+1,w
  2274  00EA  02F5               	subwf	___lldiv@dividend+1,f
  2275  00EB  0872               	movf	___lldiv@divisor+2,w
  2276  00EC  1C03               	skipc
  2277  00ED  0F72               	incfsz	___lldiv@divisor+2,w
  2278  00EE  02F6               	subwf	___lldiv@dividend+2,f
  2279  00EF  0873               	movf	___lldiv@divisor+3,w
  2280  00F0  1C03               	skipc
  2281  00F1  0F73               	incfsz	___lldiv@divisor+3,w
  2282  00F2  02F7               	subwf	___lldiv@dividend+3,f
  2283  00F3                     l1573:	
  2284  00F3  1479               	bsf	___lldiv@quotient,0
  2285  00F4                     l1575:	
  2286  00F4  3001               	movlw	1
  2287  00F5                     u1735:	
  2288  00F5  1003               	clrc
  2289  00F6  0CF3               	rrf	___lldiv@divisor+3,f
  2290  00F7  0CF2               	rrf	___lldiv@divisor+2,f
  2291  00F8  0CF1               	rrf	___lldiv@divisor+1,f
  2292  00F9  0CF0               	rrf	___lldiv@divisor,f
  2293  00FA  3EFF               	addlw	-1
  2294  00FB  1D03               	skipz
  2295  00FC  28F5               	goto	u1735
  2296  00FD                     l1577:	
  2297  00FD  3001               	movlw	1
  2298  00FE  02FD               	subwf	___lldiv@counter,f
  2299  00FF  1D03               	btfss	3,2
  2300  0100  2902               	goto	u1741
  2301  0101  2903               	goto	u1740
  2302  0102                     u1741:	
  2303  0102  28CA               	goto	l1567
  2304  0103                     u1740:	
  2305  0103                     l1579:	
  2306  0103  087C               	movf	___lldiv@quotient+3,w
  2307  0104  00F3               	movwf	?___lldiv+3
  2308  0105  087B               	movf	___lldiv@quotient+2,w
  2309  0106  00F2               	movwf	?___lldiv+2
  2310  0107  087A               	movf	___lldiv@quotient+1,w
  2311  0108  00F1               	movwf	?___lldiv+1
  2312  0109  0879               	movf	___lldiv@quotient,w
  2313  010A  00F0               	movwf	?___lldiv
  2314  010B                     l223:	
  2315  010B  0008               	return
  2316  010C                     __end_of___lldiv:	
  2317                           
  2318                           	psect	text12
  2319  010C                     __ptext12:	
  2320 ;; *************** function ___fltol *****************
  2321 ;; Defined at:
  2322 ;;		line 43 in file "D:\Program Files (x86)\Microchip\xc8\v2.10\pic\sources\c90\common\fltol.c"
  2323 ;; Parameters:    Size  Location     Type
  2324 ;;  f1              4   21[BANK0 ] unsigned long 
  2325 ;; Auto vars:     Size  Location     Type
  2326 ;;  exp1            1   31[BANK0 ] unsigned char 
  2327 ;;  sign1           1   30[BANK0 ] unsigned char 
  2328 ;; Return value:  Size  Location     Type
  2329 ;;                  4   21[BANK0 ] long 
  2330 ;; Registers used:
  2331 ;;		wreg, status,2, status,0
  2332 ;; Tracked objects:
  2333 ;;		On entry : 0/0
  2334 ;;		On exit  : 0/0
  2335 ;;		Unchanged: 0/0
  2336 ;; Data sizes:     COMMON   BANK0   BANK1   BANK3   BANK2
  2337 ;;      Params:         0       4       0       0       0
  2338 ;;      Locals:         0       2       0       0       0
  2339 ;;      Temps:          0       5       0       0       0
  2340 ;;      Totals:         0      11       0       0       0
  2341 ;;Total ram usage:       11 bytes
  2342 ;; Hardware stack levels used:    1
  2343 ;; This function calls:
  2344 ;;		Nothing
  2345 ;; This function is called by:
  2346 ;;		_int_distance
  2347 ;; This function uses a non-reentrant model
  2348 ;;
  2349                           
  2350                           
  2351                           ;psect for function ___fltol
  2352  010C                     ___fltol:	
  2353  010C                     l1583:	
  2354                           ;incstack = 0
  2355                           ; Regs used in ___fltol: [wreg+status,2+status,0]
  2356                           
  2357  010C  1003               	clrc
  2358  010D  1283               	bcf	3,5	;RP0=0, select bank0
  2359  010E  1303               	bcf	3,6	;RP1=0, select bank0
  2360  010F  0D37               	rlf	___fltol@f1+2,w
  2361  0110  0D38               	rlf	___fltol@f1+3,w
  2362  0111  00B9               	movwf	??___fltol
  2363  0112  0839               	movf	??___fltol,w
  2364  0113  00BF               	movwf	___fltol@exp1
  2365  0114  083F               	movf	___fltol@exp1,w
  2366  0115  1D03               	btfss	3,2
  2367  0116  2918               	goto	u1751
  2368  0117  2919               	goto	u1750
  2369  0118                     u1751:	
  2370  0118  2922               	goto	l1589
  2371  0119                     u1750:	
  2372  0119                     l1585:	
  2373  0119  3000               	movlw	0
  2374  011A  00B8               	movwf	?___fltol+3
  2375  011B  3000               	movlw	0
  2376  011C  00B7               	movwf	?___fltol+2
  2377  011D  3000               	movlw	0
  2378  011E  00B6               	movwf	?___fltol+1
  2379  011F  3000               	movlw	0
  2380  0120  00B5               	movwf	?___fltol
  2381  0121  2987               	goto	l373
  2382  0122                     l1589:	
  2383  0122  0835               	movf	___fltol@f1,w
  2384  0123  00B9               	movwf	??___fltol
  2385  0124  0836               	movf	___fltol@f1+1,w
  2386  0125  00BA               	movwf	??___fltol+1
  2387  0126  0837               	movf	___fltol@f1+2,w
  2388  0127  00BB               	movwf	??___fltol+2
  2389  0128  0838               	movf	___fltol@f1+3,w
  2390  0129  00BC               	movwf	??___fltol+3
  2391  012A  301F               	movlw	31
  2392  012B                     u1765:	
  2393  012B  1003               	clrc
  2394  012C  0CBC               	rrf	??___fltol+3,f
  2395  012D  0CBB               	rrf	??___fltol+2,f
  2396  012E  0CBA               	rrf	??___fltol+1,f
  2397  012F  0CB9               	rrf	??___fltol,f
  2398  0130                     u1760:	
  2399  0130  3EFF               	addlw	-1
  2400  0131  1D03               	skipz
  2401  0132  292B               	goto	u1765
  2402  0133  0839               	movf	??___fltol,w
  2403  0134  00BD               	movwf	??___fltol+4
  2404  0135  083D               	movf	??___fltol+4,w
  2405  0136  00BE               	movwf	___fltol@sign1
  2406  0137                     l1591:	
  2407  0137  17B7               	bsf	___fltol@f1+2,7
  2408  0138                     l1593:	
  2409  0138  30FF               	movlw	255
  2410  0139  05B5               	andwf	___fltol@f1,f
  2411  013A  30FF               	movlw	255
  2412  013B  05B6               	andwf	___fltol@f1+1,f
  2413  013C  30FF               	movlw	255
  2414  013D  05B7               	andwf	___fltol@f1+2,f
  2415  013E  3000               	movlw	0
  2416  013F  05B8               	andwf	___fltol@f1+3,f
  2417  0140                     l1595:	
  2418  0140  3096               	movlw	150
  2419  0141  02BF               	subwf	___fltol@exp1,f
  2420  0142                     l1597:	
  2421  0142  1FBF               	btfss	___fltol@exp1,7
  2422  0143  2945               	goto	u1771
  2423  0144  2946               	goto	u1770
  2424  0145                     u1771:	
  2425  0145  2960               	goto	l1607
  2426  0146                     u1770:	
  2427  0146                     l1599:	
  2428  0146  083F               	movf	___fltol@exp1,w
  2429  0147  3A80               	xorlw	128
  2430  0148  3E97               	addlw	151
  2431  0149  1803               	skipnc
  2432  014A  294C               	goto	u1781
  2433  014B  294D               	goto	u1780
  2434  014C                     u1781:	
  2435  014C  294E               	goto	l1605
  2436  014D                     u1780:	
  2437  014D  2919               	goto	l1585
  2438  014E                     l1605:	
  2439  014E  3001               	movlw	1
  2440  014F                     u1795:	
  2441  014F  1003               	clrc
  2442  0150  0CB8               	rrf	___fltol@f1+3,f
  2443  0151  0CB7               	rrf	___fltol@f1+2,f
  2444  0152  0CB6               	rrf	___fltol@f1+1,f
  2445  0153  0CB5               	rrf	___fltol@f1,f
  2446  0154  3EFF               	addlw	-1
  2447  0155  1D03               	skipz
  2448  0156  294F               	goto	u1795
  2449  0157  3001               	movlw	1
  2450  0158  00B9               	movwf	??___fltol
  2451  0159  0839               	movf	??___fltol,w
  2452  015A  07BF               	addwf	___fltol@exp1,f
  2453  015B  1D03               	btfss	3,2
  2454  015C  295E               	goto	u1801
  2455  015D  295F               	goto	u1800
  2456  015E                     u1801:	
  2457  015E  294E               	goto	l1605
  2458  015F                     u1800:	
  2459  015F  2977               	goto	l1615
  2460  0160                     l1607:	
  2461  0160  3020               	movlw	32
  2462  0161  023F               	subwf	___fltol@exp1,w
  2463  0162  1C03               	skipc
  2464  0163  2965               	goto	u1811
  2465  0164  2966               	goto	u1810
  2466  0165                     u1811:	
  2467  0165  2972               	goto	l380
  2468  0166                     u1810:	
  2469  0166  2919               	goto	l1585
  2470  0167                     l1613:	
  2471  0167  3001               	movlw	1
  2472  0168  00B9               	movwf	??___fltol
  2473  0169                     u1825:	
  2474  0169  1003               	clrc
  2475  016A  0DB5               	rlf	___fltol@f1,f
  2476  016B  0DB6               	rlf	___fltol@f1+1,f
  2477  016C  0DB7               	rlf	___fltol@f1+2,f
  2478  016D  0DB8               	rlf	___fltol@f1+3,f
  2479  016E  0BB9               	decfsz	??___fltol,f
  2480  016F  2969               	goto	u1825
  2481  0170  3001               	movlw	1
  2482  0171  02BF               	subwf	___fltol@exp1,f
  2483  0172                     l380:	
  2484  0172  083F               	movf	___fltol@exp1,w
  2485  0173  1D03               	btfss	3,2
  2486  0174  2976               	goto	u1831
  2487  0175  2977               	goto	u1830
  2488  0176                     u1831:	
  2489  0176  2967               	goto	l1613
  2490  0177                     u1830:	
  2491  0177                     l1615:	
  2492  0177  083E               	movf	___fltol@sign1,w
  2493  0178  1903               	btfsc	3,2
  2494  0179  297B               	goto	u1841
  2495  017A  297C               	goto	u1840
  2496  017B                     u1841:	
  2497  017B  2987               	goto	l383
  2498  017C                     u1840:	
  2499  017C                     l1617:	
  2500  017C  09B5               	comf	___fltol@f1,f
  2501  017D  09B6               	comf	___fltol@f1+1,f
  2502  017E  09B7               	comf	___fltol@f1+2,f
  2503  017F  09B8               	comf	___fltol@f1+3,f
  2504  0180  0AB5               	incf	___fltol@f1,f
  2505  0181  1903               	skipnz
  2506  0182  0AB6               	incf	___fltol@f1+1,f
  2507  0183  1903               	skipnz
  2508  0184  0AB7               	incf	___fltol@f1+2,f
  2509  0185  1903               	skipnz
  2510  0186  0AB8               	incf	___fltol@f1+3,f
  2511  0187                     l383:	
  2512  0187                     l373:	
  2513  0187  0008               	return
  2514  0188                     __end_of___fltol:	
  2515                           
  2516                           	psect	text13
  2517  0F20                     __ptext13:	
  2518 ;; *************** function ___flsub *****************
  2519 ;; Defined at:
  2520 ;;		line 242 in file "D:\Program Files (x86)\Microchip\xc8\v2.10\pic\sources\c90\common\sprcadd.c"
  2521 ;; Parameters:    Size  Location     Type
  2522 ;;  a               4   13[BANK0 ] long 
  2523 ;;  b               4   17[BANK0 ] long 
  2524 ;; Auto vars:     Size  Location     Type
  2525 ;;		None
  2526 ;; Return value:  Size  Location     Type
  2527 ;;                  4   13[BANK0 ] long 
  2528 ;; Registers used:
  2529 ;;		wreg, status,2, status,0, btemp+1, pclath, cstack
  2530 ;; Tracked objects:
  2531 ;;		On entry : 0/0
  2532 ;;		On exit  : 0/0
  2533 ;;		Unchanged: 0/0
  2534 ;; Data sizes:     COMMON   BANK0   BANK1   BANK3   BANK2
  2535 ;;      Params:         0       8       0       0       0
  2536 ;;      Locals:         0       0       0       0       0
  2537 ;;      Temps:          0       0       0       0       0
  2538 ;;      Totals:         0       8       0       0       0
  2539 ;;Total ram usage:        8 bytes
  2540 ;; Hardware stack levels used:    1
  2541 ;; Hardware stack levels required when called:    1
  2542 ;; This function calls:
  2543 ;;		___fladd
  2544 ;; This function is called by:
  2545 ;;		_int_distance
  2546 ;; This function uses a non-reentrant model
  2547 ;;
  2548                           
  2549                           
  2550                           ;psect for function ___flsub
  2551  0F20                     ___flsub:	
  2552  0F20                     l1619:	
  2553                           ;incstack = 0
  2554                           ; Regs used in ___flsub: [wreg+status,2+status,0+btemp+1+pclath+cstack]
  2555                           
  2556  0F20  3080               	movlw	128
  2557  0F21  1283               	bcf	3,5	;RP0=0, select bank0
  2558  0F22  1303               	bcf	3,6	;RP1=0, select bank0
  2559  0F23  06B0               	xorwf	___flsub@a+3,f
  2560  0F24                     l1621:	
  2561  0F24  0834               	movf	___flsub@b+3,w
  2562  0F25  00F3               	movwf	___fladd@b+3
  2563  0F26  0833               	movf	___flsub@b+2,w
  2564  0F27  00F2               	movwf	___fladd@b+2
  2565  0F28  0832               	movf	___flsub@b+1,w
  2566  0F29  00F1               	movwf	___fladd@b+1
  2567  0F2A  0831               	movf	___flsub@b,w
  2568  0F2B  00F0               	movwf	___fladd@b
  2569  0F2C  0830               	movf	___flsub@a+3,w
  2570  0F2D  00F7               	movwf	___fladd@a+3
  2571  0F2E  082F               	movf	___flsub@a+2,w
  2572  0F2F  00F6               	movwf	___fladd@a+2
  2573  0F30  082E               	movf	___flsub@a+1,w
  2574  0F31  00F5               	movwf	___fladd@a+1
  2575  0F32  082D               	movf	___flsub@a,w
  2576  0F33  00F4               	movwf	___fladd@a
  2577  0F34  120A  118A  255B  120A  158A  	fcall	___fladd
  2578  0F39  0873               	movf	?___fladd+3,w
  2579  0F3A  1283               	bcf	3,5	;RP0=0, select bank0
  2580  0F3B  1303               	bcf	3,6	;RP1=0, select bank0
  2581  0F3C  00B0               	movwf	?___flsub+3
  2582  0F3D  0872               	movf	?___fladd+2,w
  2583  0F3E  00AF               	movwf	?___flsub+2
  2584  0F3F  0871               	movf	?___fladd+1,w
  2585  0F40  00AE               	movwf	?___flsub+1
  2586  0F41  0870               	movf	?___fladd,w
  2587  0F42  00AD               	movwf	?___flsub
  2588  0F43                     l526:	
  2589  0F43  0008               	return
  2590  0F44                     __end_of___flsub:	
  2591                           
  2592                           	psect	text14
  2593  055B                     __ptext14:	
  2594 ;; *************** function ___fladd *****************
  2595 ;; Defined at:
  2596 ;;		line 10 in file "D:\Program Files (x86)\Microchip\xc8\v2.10\pic\sources\c90\common\sprcadd.c"
  2597 ;; Parameters:    Size  Location     Type
  2598 ;;  b               4    0[COMMON] long 
  2599 ;;  a               4    4[COMMON] long 
  2600 ;; Auto vars:     Size  Location     Type
  2601 ;;  grs             1   11[COMMON] unsigned char 
  2602 ;;  bexp            1   10[COMMON] unsigned char 
  2603 ;;  aexp            1    9[COMMON] unsigned char 
  2604 ;;  signs           1    8[COMMON] unsigned char 
  2605 ;; Return value:  Size  Location     Type
  2606 ;;                  4    0[COMMON] unsigned char 
  2607 ;; Registers used:
  2608 ;;		wreg, status,2, status,0, btemp+1
  2609 ;; Tracked objects:
  2610 ;;		On entry : 0/0
  2611 ;;		On exit  : 0/0
  2612 ;;		Unchanged: 0/0
  2613 ;; Data sizes:     COMMON   BANK0   BANK1   BANK3   BANK2
  2614 ;;      Params:         8       0       0       0       0
  2615 ;;      Locals:         4       0       0       0       0
  2616 ;;      Temps:          0       8       0       0       0
  2617 ;;      Totals:        12       8       0       0       0
  2618 ;;Total ram usage:       20 bytes
  2619 ;; Hardware stack levels used:    1
  2620 ;; This function calls:
  2621 ;;		Nothing
  2622 ;; This function is called by:
  2623 ;;		___flsub
  2624 ;; This function uses a non-reentrant model
  2625 ;;
  2626                           
  2627                           
  2628                           ;psect for function ___fladd
  2629  055B                     ___fladd:	
  2630  055B                     l1319:	
  2631                           ;incstack = 0
  2632                           ; Regs used in ___fladd: [wreg+status,2+status,0+btemp+1]
  2633                           
  2634  055B  0873               	movf	___fladd@b+3,w
  2635  055C  3980               	andlw	128
  2636  055D  1283               	bcf	3,5	;RP0=0, select bank0
  2637  055E  1303               	bcf	3,6	;RP1=0, select bank0
  2638  055F  00A0               	movwf	??___fladd
  2639  0560  0820               	movf	??___fladd,w
  2640  0561  00F8               	movwf	___fladd@signs
  2641  0562                     l1321:	
  2642  0562  0873               	movf	___fladd@b+3,w
  2643  0563  00A0               	movwf	??___fladd
  2644  0564  0720               	addwf	??___fladd,w
  2645  0565  00A1               	movwf	??___fladd+1
  2646  0566  0821               	movf	??___fladd+1,w
  2647  0567  00FA               	movwf	___fladd@bexp
  2648  0568                     l1323:	
  2649  0568  1FF2               	btfss	___fladd@b+2,7
  2650  0569  2D6B               	goto	u1181
  2651  056A  2D6C               	goto	u1180
  2652  056B                     u1181:	
  2653  056B  2D6D               	goto	l1327
  2654  056C                     u1180:	
  2655  056C                     l1325:	
  2656  056C  147A               	bsf	___fladd@bexp,0
  2657  056D                     l1327:	
  2658  056D  087A               	movf	___fladd@bexp,w
  2659  056E  1903               	btfsc	3,2
  2660  056F  2D71               	goto	u1191
  2661  0570  2D72               	goto	u1190
  2662  0571                     u1191:	
  2663  0571  2D82               	goto	l1337
  2664  0572                     u1190:	
  2665  0572                     l1329:	
  2666  0572  0A7A               	incf	___fladd@bexp,w
  2667  0573  1D03               	btfss	3,2
  2668  0574  2D76               	goto	u1201
  2669  0575  2D77               	goto	u1200
  2670  0576                     u1201:	
  2671  0576  2D7F               	goto	l1333
  2672  0577                     u1200:	
  2673  0577                     l1331:	
  2674  0577  3000               	movlw	0
  2675  0578  00F3               	movwf	___fladd@b+3
  2676  0579  3000               	movlw	0
  2677  057A  00F2               	movwf	___fladd@b+2
  2678  057B  3000               	movlw	0
  2679  057C  00F1               	movwf	___fladd@b+1
  2680  057D  3000               	movlw	0
  2681  057E  00F0               	movwf	___fladd@b
  2682  057F                     l1333:	
  2683  057F  17F2               	bsf	___fladd@b+2,7
  2684  0580                     l1335:	
  2685  0580  01F3               	clrf	___fladd@b+3
  2686  0581  2D8A               	goto	l1339
  2687  0582                     l1337:	
  2688  0582  3000               	movlw	0
  2689  0583  00F3               	movwf	___fladd@b+3
  2690  0584  3000               	movlw	0
  2691  0585  00F2               	movwf	___fladd@b+2
  2692  0586  3000               	movlw	0
  2693  0587  00F1               	movwf	___fladd@b+1
  2694  0588  3000               	movlw	0
  2695  0589  00F0               	movwf	___fladd@b
  2696  058A                     l1339:	
  2697  058A  0877               	movf	___fladd@a+3,w
  2698  058B  3980               	andlw	128
  2699  058C  00A0               	movwf	??___fladd
  2700  058D  0820               	movf	??___fladd,w
  2701  058E  00F9               	movwf	___fladd@aexp
  2702  058F                     l1341:	
  2703  058F  0879               	movf	___fladd@aexp,w
  2704  0590  0678               	xorwf	___fladd@signs,w
  2705  0591  1903               	skipnz
  2706  0592  2D94               	goto	u1211
  2707  0593  2D95               	goto	u1210
  2708  0594                     u1211:	
  2709  0594  2D96               	goto	l1345
  2710  0595                     u1210:	
  2711  0595                     l1343:	
  2712  0595  1778               	bsf	___fladd@signs,6
  2713  0596                     l1345:	
  2714  0596  0877               	movf	___fladd@a+3,w
  2715  0597  00A0               	movwf	??___fladd
  2716  0598  0720               	addwf	??___fladd,w
  2717  0599  00A1               	movwf	??___fladd+1
  2718  059A  0821               	movf	??___fladd+1,w
  2719  059B  00F9               	movwf	___fladd@aexp
  2720  059C                     l1347:	
  2721  059C  1FF6               	btfss	___fladd@a+2,7
  2722  059D  2D9F               	goto	u1221
  2723  059E  2DA0               	goto	u1220
  2724  059F                     u1221:	
  2725  059F  2DA1               	goto	l1351
  2726  05A0                     u1220:	
  2727  05A0                     l1349:	
  2728  05A0  1479               	bsf	___fladd@aexp,0
  2729  05A1                     l1351:	
  2730  05A1  0879               	movf	___fladd@aexp,w
  2731  05A2  1903               	btfsc	3,2
  2732  05A3  2DA5               	goto	u1231
  2733  05A4  2DA6               	goto	u1230
  2734  05A5                     u1231:	
  2735  05A5  2DB6               	goto	l1361
  2736  05A6                     u1230:	
  2737  05A6                     l1353:	
  2738  05A6  0A79               	incf	___fladd@aexp,w
  2739  05A7  1D03               	btfss	3,2
  2740  05A8  2DAA               	goto	u1241
  2741  05A9  2DAB               	goto	u1240
  2742  05AA                     u1241:	
  2743  05AA  2DB3               	goto	l1357
  2744  05AB                     u1240:	
  2745  05AB                     l1355:	
  2746  05AB  3000               	movlw	0
  2747  05AC  00F7               	movwf	___fladd@a+3
  2748  05AD  3000               	movlw	0
  2749  05AE  00F6               	movwf	___fladd@a+2
  2750  05AF  3000               	movlw	0
  2751  05B0  00F5               	movwf	___fladd@a+1
  2752  05B1  3000               	movlw	0
  2753  05B2  00F4               	movwf	___fladd@a
  2754  05B3                     l1357:	
  2755  05B3  17F6               	bsf	___fladd@a+2,7
  2756  05B4                     l1359:	
  2757  05B4  01F7               	clrf	___fladd@a+3
  2758  05B5  2DBE               	goto	l480
  2759  05B6                     l1361:	
  2760  05B6  3000               	movlw	0
  2761  05B7  00F7               	movwf	___fladd@a+3
  2762  05B8  3000               	movlw	0
  2763  05B9  00F6               	movwf	___fladd@a+2
  2764  05BA  3000               	movlw	0
  2765  05BB  00F5               	movwf	___fladd@a+1
  2766  05BC  3000               	movlw	0
  2767  05BD  00F4               	movwf	___fladd@a
  2768  05BE                     l480:	
  2769  05BE  087A               	movf	___fladd@bexp,w
  2770  05BF  0279               	subwf	___fladd@aexp,w
  2771  05C0  1803               	skipnc
  2772  05C1  2DC3               	goto	u1251
  2773  05C2  2DC4               	goto	u1250
  2774  05C3                     u1251:	
  2775  05C3  2E08               	goto	l1397
  2776  05C4                     u1250:	
  2777  05C4                     l1363:	
  2778  05C4  1F78               	btfss	___fladd@signs,6
  2779  05C5  2DC7               	goto	u1261
  2780  05C6  2DC8               	goto	u1260
  2781  05C7                     u1261:	
  2782  05C7  2DCC               	goto	l1367
  2783  05C8                     u1260:	
  2784  05C8                     l1365:	
  2785  05C8  3080               	movlw	128
  2786  05C9  00A0               	movwf	??___fladd
  2787  05CA  0820               	movf	??___fladd,w
  2788  05CB  06F8               	xorwf	___fladd@signs,f
  2789  05CC                     l1367:	
  2790  05CC  087A               	movf	___fladd@bexp,w
  2791  05CD  00A0               	movwf	??___fladd
  2792  05CE  0820               	movf	??___fladd,w
  2793  05CF  00FB               	movwf	___fladd@grs
  2794  05D0                     l1369:	
  2795  05D0  0879               	movf	___fladd@aexp,w
  2796  05D1  00A0               	movwf	??___fladd
  2797  05D2  0820               	movf	??___fladd,w
  2798  05D3  00FA               	movwf	___fladd@bexp
  2799  05D4                     l1371:	
  2800  05D4  087B               	movf	___fladd@grs,w
  2801  05D5  00A0               	movwf	??___fladd
  2802  05D6  0820               	movf	??___fladd,w
  2803  05D7  00F9               	movwf	___fladd@aexp
  2804  05D8                     l1373:	
  2805  05D8  0870               	movf	___fladd@b,w
  2806  05D9  00A0               	movwf	??___fladd
  2807  05DA  0820               	movf	??___fladd,w
  2808  05DB  00FB               	movwf	___fladd@grs
  2809  05DC                     l1375:	
  2810  05DC  0874               	movf	___fladd@a,w
  2811  05DD  00A0               	movwf	??___fladd
  2812  05DE  0820               	movf	??___fladd,w
  2813  05DF  00F0               	movwf	___fladd@b
  2814  05E0                     l1377:	
  2815  05E0  087B               	movf	___fladd@grs,w
  2816  05E1  00A0               	movwf	??___fladd
  2817  05E2  0820               	movf	??___fladd,w
  2818  05E3  00F4               	movwf	___fladd@a
  2819  05E4                     l1379:	
  2820  05E4  0871               	movf	___fladd@b+1,w
  2821  05E5  00A0               	movwf	??___fladd
  2822  05E6  0820               	movf	??___fladd,w
  2823  05E7  00FB               	movwf	___fladd@grs
  2824  05E8                     l1381:	
  2825  05E8  0875               	movf	___fladd@a+1,w
  2826  05E9  00A0               	movwf	??___fladd
  2827  05EA  0820               	movf	??___fladd,w
  2828  05EB  00F1               	movwf	___fladd@b+1
  2829  05EC                     l1383:	
  2830  05EC  087B               	movf	___fladd@grs,w
  2831  05ED  00A0               	movwf	??___fladd
  2832  05EE  0820               	movf	??___fladd,w
  2833  05EF  00F5               	movwf	___fladd@a+1
  2834  05F0                     l1385:	
  2835  05F0  0872               	movf	___fladd@b+2,w
  2836  05F1  00A0               	movwf	??___fladd
  2837  05F2  0820               	movf	??___fladd,w
  2838  05F3  00FB               	movwf	___fladd@grs
  2839  05F4                     l1387:	
  2840  05F4  0876               	movf	___fladd@a+2,w
  2841  05F5  00A0               	movwf	??___fladd
  2842  05F6  0820               	movf	??___fladd,w
  2843  05F7  00F2               	movwf	___fladd@b+2
  2844  05F8                     l1389:	
  2845  05F8  087B               	movf	___fladd@grs,w
  2846  05F9  00A0               	movwf	??___fladd
  2847  05FA  0820               	movf	??___fladd,w
  2848  05FB  00F6               	movwf	___fladd@a+2
  2849  05FC                     l1391:	
  2850  05FC  0873               	movf	___fladd@b+3,w
  2851  05FD  00A0               	movwf	??___fladd
  2852  05FE  0820               	movf	??___fladd,w
  2853  05FF  00FB               	movwf	___fladd@grs
  2854  0600                     l1393:	
  2855  0600  0877               	movf	___fladd@a+3,w
  2856  0601  00A0               	movwf	??___fladd
  2857  0602  0820               	movf	??___fladd,w
  2858  0603  00F3               	movwf	___fladd@b+3
  2859  0604                     l1395:	
  2860  0604  087B               	movf	___fladd@grs,w
  2861  0605  00A0               	movwf	??___fladd
  2862  0606  0820               	movf	??___fladd,w
  2863  0607  00F7               	movwf	___fladd@a+3
  2864  0608                     l1397:	
  2865  0608  01FB               	clrf	___fladd@grs
  2866  0609                     l1399:	
  2867  0609  0879               	movf	___fladd@aexp,w
  2868  060A  00A0               	movwf	??___fladd
  2869  060B  01A1               	clrf	??___fladd+1
  2870  060C  0821               	movf	??___fladd+1,w
  2871  060D  00A3               	movwf	??___fladd+3
  2872  060E  087A               	movf	___fladd@bexp,w
  2873  060F  0220               	subwf	??___fladd,w
  2874  0610  00A2               	movwf	??___fladd+2
  2875  0611  1C03               	skipc
  2876  0612  03A3               	decf	??___fladd+3,f
  2877  0613  0823               	movf	??___fladd+3,w
  2878  0614  3A80               	xorlw	128
  2879  0615  00FF               	movwf	btemp+1
  2880  0616  3080               	movlw	128
  2881  0617  027F               	subwf	btemp+1,w
  2882  0618  1D03               	skipz
  2883  0619  2E1C               	goto	u1275
  2884  061A  301A               	movlw	26
  2885  061B  0222               	subwf	??___fladd+2,w
  2886  061C                     u1275:	
  2887  061C  1C03               	skipc
  2888  061D  2E1F               	goto	u1271
  2889  061E  2E20               	goto	u1270
  2890  061F                     u1271:	
  2891  061F  2E61               	goto	l1415
  2892  0620                     u1270:	
  2893  0620                     l1401:	
  2894  0620  0873               	movf	___fladd@b+3,w
  2895  0621  0472               	iorwf	___fladd@b+2,w
  2896  0622  0471               	iorwf	___fladd@b+1,w
  2897  0623  0470               	iorwf	___fladd@b,w
  2898  0624  1D03               	skipz
  2899  0625  2E27               	goto	u1281
  2900  0626  2E29               	goto	u1280
  2901  0627                     u1281:	
  2902  0627  3001               	movlw	1
  2903  0628  2E2A               	goto	u1290
  2904  0629                     u1280:	
  2905  0629  3000               	movlw	0
  2906  062A                     u1290:	
  2907  062A  1283               	bcf	3,5	;RP0=0, select bank0
  2908  062B  1303               	bcf	3,6	;RP1=0, select bank0
  2909  062C  00A0               	movwf	??___fladd
  2910  062D  0820               	movf	??___fladd,w
  2911  062E  00FB               	movwf	___fladd@grs
  2912  062F  3000               	movlw	0
  2913  0630  00F3               	movwf	___fladd@b+3
  2914  0631  3000               	movlw	0
  2915  0632  00F2               	movwf	___fladd@b+2
  2916  0633  3000               	movlw	0
  2917  0634  00F1               	movwf	___fladd@b+1
  2918  0635  3000               	movlw	0
  2919  0636  00F0               	movwf	___fladd@b
  2920  0637  0879               	movf	___fladd@aexp,w
  2921  0638  00A0               	movwf	??___fladd
  2922  0639  0820               	movf	??___fladd,w
  2923  063A  00FA               	movwf	___fladd@bexp
  2924  063B  2E67               	goto	l484
  2925  063C                     l486:	
  2926  063C  1C7B               	btfss	___fladd@grs,0
  2927  063D  2E3F               	goto	u1301
  2928  063E  2E40               	goto	u1300
  2929  063F                     u1301:	
  2930  063F  2E4B               	goto	l1405
  2931  0640                     u1300:	
  2932  0640                     l1403:	
  2933  0640  087B               	movf	___fladd@grs,w
  2934  0641  1283               	bcf	3,5	;RP0=0, select bank0
  2935  0642  1303               	bcf	3,6	;RP1=0, select bank0
  2936  0643  00A0               	movwf	??___fladd
  2937  0644  1003               	clrc
  2938  0645  0C20               	rrf	??___fladd,w
  2939  0646  3801               	iorlw	1
  2940  0647  00A1               	movwf	??___fladd+1
  2941  0648  0821               	movf	??___fladd+1,w
  2942  0649  00FB               	movwf	___fladd@grs
  2943  064A  2E4D               	goto	l1407
  2944  064B                     l1405:	
  2945  064B  1003               	clrc
  2946  064C  0CFB               	rrf	___fladd@grs,f
  2947  064D                     l1407:	
  2948  064D  1C70               	btfss	___fladd@b,0
  2949  064E  2E50               	goto	u1311
  2950  064F  2E51               	goto	u1310
  2951  0650                     u1311:	
  2952  0650  2E52               	goto	l1411
  2953  0651                     u1310:	
  2954  0651                     l1409:	
  2955  0651  17FB               	bsf	___fladd@grs,7
  2956  0652                     l1411:	
  2957  0652  3001               	movlw	1
  2958  0653  1283               	bcf	3,5	;RP0=0, select bank0
  2959  0654  1303               	bcf	3,6	;RP1=0, select bank0
  2960  0655  00A0               	movwf	??___fladd
  2961  0656                     u1325:	
  2962  0656  0D73               	rlf	___fladd@b+3,w
  2963  0657  0CF3               	rrf	___fladd@b+3,f
  2964  0658  0CF2               	rrf	___fladd@b+2,f
  2965  0659  0CF1               	rrf	___fladd@b+1,f
  2966  065A  0CF0               	rrf	___fladd@b,f
  2967  065B  0BA0               	decfsz	??___fladd& (0+127),f
  2968  065C  2E56               	goto	u1325
  2969  065D                     l1413:	
  2970  065D  3001               	movlw	1
  2971  065E  00A0               	movwf	??___fladd
  2972  065F  0820               	movf	??___fladd,w
  2973  0660  07FA               	addwf	___fladd@bexp,f
  2974  0661                     l1415:	
  2975  0661  0879               	movf	___fladd@aexp,w
  2976  0662  027A               	subwf	___fladd@bexp,w
  2977  0663  1C03               	skipc
  2978  0664  2E66               	goto	u1331
  2979  0665  2E67               	goto	u1330
  2980  0666                     u1331:	
  2981  0666  2E3C               	goto	l486
  2982  0667                     u1330:	
  2983  0667                     l484:	
  2984  0667  1B78               	btfsc	___fladd@signs,6
  2985  0668  2E6A               	goto	u1341
  2986  0669  2E6B               	goto	u1340
  2987  066A                     u1341:	
  2988  066A  2EBA               	goto	l1441
  2989  066B                     u1340:	
  2990  066B                     l1417:	
  2991  066B  087A               	movf	___fladd@bexp,w
  2992  066C  1D03               	btfss	3,2
  2993  066D  2E6F               	goto	u1351
  2994  066E  2E70               	goto	u1350
  2995  066F                     u1351:	
  2996  066F  2E79               	goto	l1423
  2997  0670                     u1350:	
  2998  0670                     l1419:	
  2999  0670  3000               	movlw	0
  3000  0671  00F3               	movwf	?___fladd+3
  3001  0672  3000               	movlw	0
  3002  0673  00F2               	movwf	?___fladd+2
  3003  0674  3000               	movlw	0
  3004  0675  00F1               	movwf	?___fladd+1
  3005  0676  3000               	movlw	0
  3006  0677  00F0               	movwf	?___fladd
  3007  0678  2FF2               	goto	l493
  3008  0679                     l1423:	
  3009  0679  0874               	movf	___fladd@a,w
  3010  067A  07F0               	addwf	___fladd@b,f
  3011  067B  0875               	movf	___fladd@a+1,w
  3012  067C  1103               	clrz
  3013  067D  1803               	skipnc
  3014  067E  3E01               	addlw	1
  3015  067F  1903               	skipnz
  3016  0680  2E82               	goto	u1361
  3017  0681  07F1               	addwf	___fladd@b+1,f
  3018  0682                     u1361:	
  3019  0682  0876               	movf	___fladd@a+2,w
  3020  0683  1103               	clrz
  3021  0684  1803               	skipnc
  3022  0685  3E01               	addlw	1
  3023  0686  1903               	skipnz
  3024  0687  2E89               	goto	u1362
  3025  0688  07F2               	addwf	___fladd@b+2,f
  3026  0689                     u1362:	
  3027  0689  0877               	movf	___fladd@a+3,w
  3028  068A  1103               	clrz
  3029  068B  1803               	skipnc
  3030  068C  3E01               	addlw	1
  3031  068D  1903               	skipnz
  3032  068E  2E90               	goto	u1363
  3033  068F  07F3               	addwf	___fladd@b+3,f
  3034  0690                     u1363:	
  3035  0690                     l1425:	
  3036  0690  1C73               	btfss	___fladd@b+3,0
  3037  0691  2E93               	goto	u1371
  3038  0692  2E94               	goto	u1370
  3039  0693                     u1371:	
  3040  0693  2F72               	goto	l1475
  3041  0694                     u1370:	
  3042  0694                     l1427:	
  3043  0694  1C7B               	btfss	___fladd@grs,0
  3044  0695  2E97               	goto	u1381
  3045  0696  2E98               	goto	u1380
  3046  0697                     u1381:	
  3047  0697  2EA3               	goto	l1431
  3048  0698                     u1380:	
  3049  0698                     l1429:	
  3050  0698  087B               	movf	___fladd@grs,w
  3051  0699  1283               	bcf	3,5	;RP0=0, select bank0
  3052  069A  1303               	bcf	3,6	;RP1=0, select bank0
  3053  069B  00A0               	movwf	??___fladd
  3054  069C  1003               	clrc
  3055  069D  0C20               	rrf	??___fladd,w
  3056  069E  3801               	iorlw	1
  3057  069F  00A1               	movwf	??___fladd+1
  3058  06A0  0821               	movf	??___fladd+1,w
  3059  06A1  00FB               	movwf	___fladd@grs
  3060  06A2  2EA5               	goto	l1433
  3061  06A3                     l1431:	
  3062  06A3  1003               	clrc
  3063  06A4  0CFB               	rrf	___fladd@grs,f
  3064  06A5                     l1433:	
  3065  06A5  1C70               	btfss	___fladd@b,0
  3066  06A6  2EA8               	goto	u1391
  3067  06A7  2EA9               	goto	u1390
  3068  06A8                     u1391:	
  3069  06A8  2EAA               	goto	l1437
  3070  06A9                     u1390:	
  3071  06A9                     l1435:	
  3072  06A9  17FB               	bsf	___fladd@grs,7
  3073  06AA                     l1437:	
  3074  06AA  3001               	movlw	1
  3075  06AB  1283               	bcf	3,5	;RP0=0, select bank0
  3076  06AC  1303               	bcf	3,6	;RP1=0, select bank0
  3077  06AD  00A0               	movwf	??___fladd
  3078  06AE                     u1405:	
  3079  06AE  0D73               	rlf	___fladd@b+3,w
  3080  06AF  0CF3               	rrf	___fladd@b+3,f
  3081  06B0  0CF2               	rrf	___fladd@b+2,f
  3082  06B1  0CF1               	rrf	___fladd@b+1,f
  3083  06B2  0CF0               	rrf	___fladd@b,f
  3084  06B3  0BA0               	decfsz	??___fladd& (0+127),f
  3085  06B4  2EAE               	goto	u1405
  3086  06B5                     l1439:	
  3087  06B5  3001               	movlw	1
  3088  06B6  00A0               	movwf	??___fladd
  3089  06B7  0820               	movf	??___fladd,w
  3090  06B8  07FA               	addwf	___fladd@bexp,f
  3091  06B9  2F72               	goto	l1475
  3092  06BA                     l1441:	
  3093  06BA  0873               	movf	___fladd@b+3,w
  3094  06BB  3A80               	xorlw	128
  3095  06BC  00FF               	movwf	btemp+1
  3096  06BD  0877               	movf	___fladd@a+3,w
  3097  06BE  3A80               	xorlw	128
  3098  06BF  027F               	subwf	btemp+1,w
  3099  06C0  1D03               	skipz
  3100  06C1  2ECC               	goto	u1413
  3101  06C2  0876               	movf	___fladd@a+2,w
  3102  06C3  0272               	subwf	___fladd@b+2,w
  3103  06C4  1D03               	skipz
  3104  06C5  2ECC               	goto	u1413
  3105  06C6  0875               	movf	___fladd@a+1,w
  3106  06C7  0271               	subwf	___fladd@b+1,w
  3107  06C8  1D03               	skipz
  3108  06C9  2ECC               	goto	u1413
  3109  06CA  0874               	movf	___fladd@a,w
  3110  06CB  0270               	subwf	___fladd@b,w
  3111  06CC                     u1413:	
  3112  06CC  1803               	skipnc
  3113  06CD  2ECF               	goto	u1411
  3114  06CE  2ED0               	goto	u1410
  3115  06CF                     u1411:	
  3116  06CF  2F2A               	goto	l1451
  3117  06D0                     u1410:	
  3118  06D0                     l1443:	
  3119  06D0  30FF               	movlw	255
  3120  06D1  1283               	bcf	3,5	;RP0=0, select bank0
  3121  06D2  1303               	bcf	3,6	;RP1=0, select bank0
  3122  06D3  00A0               	movwf	??___fladd
  3123  06D4  30FF               	movlw	255
  3124  06D5  00A1               	movwf	??___fladd+1
  3125  06D6  30FF               	movlw	255
  3126  06D7  00A2               	movwf	??___fladd+2
  3127  06D8  30FF               	movlw	255
  3128  06D9  00A3               	movwf	??___fladd+3
  3129  06DA  0874               	movf	___fladd@a,w
  3130  06DB  00A4               	movwf	??___fladd+4
  3131  06DC  0875               	movf	___fladd@a+1,w
  3132  06DD  00A5               	movwf	??___fladd+5
  3133  06DE  0876               	movf	___fladd@a+2,w
  3134  06DF  00A6               	movwf	??___fladd+6
  3135  06E0  0877               	movf	___fladd@a+3,w
  3136  06E1  00A7               	movwf	??___fladd+7
  3137  06E2  0870               	movf	___fladd@b,w
  3138  06E3  02A4               	subwf	??___fladd+4,f
  3139  06E4  0871               	movf	___fladd@b+1,w
  3140  06E5  1C03               	skipc
  3141  06E6  0F71               	incfsz	___fladd@b+1,w
  3142  06E7  2EE9               	goto	u1421
  3143  06E8  2EEA               	goto	u1422
  3144  06E9                     u1421:	
  3145  06E9  02A5               	subwf	??___fladd+5,f
  3146  06EA                     u1422:	
  3147  06EA  0872               	movf	___fladd@b+2,w
  3148  06EB  1C03               	skipc
  3149  06EC  0F72               	incfsz	___fladd@b+2,w
  3150  06ED  2EEF               	goto	u1423
  3151  06EE  2EF0               	goto	u1424
  3152  06EF                     u1423:	
  3153  06EF  02A6               	subwf	??___fladd+6,f
  3154  06F0                     u1424:	
  3155  06F0  0873               	movf	___fladd@b+3,w
  3156  06F1  1C03               	skipc
  3157  06F2  0F73               	incfsz	___fladd@b+3,w
  3158  06F3  2EF5               	goto	u1425
  3159  06F4  2EF6               	goto	u1426
  3160  06F5                     u1425:	
  3161  06F5  02A7               	subwf	??___fladd+7,f
  3162  06F6                     u1426:	
  3163  06F6  0824               	movf	??___fladd+4,w
  3164  06F7  07A0               	addwf	??___fladd,f
  3165  06F8  0825               	movf	??___fladd+5,w
  3166  06F9  1803               	skipnc
  3167  06FA  0F25               	incfsz	??___fladd+5,w
  3168  06FB  2EFD               	goto	u1430
  3169  06FC  2EFE               	goto	u1431
  3170  06FD                     u1430:	
  3171  06FD  07A1               	addwf	??___fladd+1,f
  3172  06FE                     u1431:	
  3173  06FE  0826               	movf	??___fladd+6,w
  3174  06FF  1803               	skipnc
  3175  0700  0F26               	incfsz	??___fladd+6,w
  3176  0701  2F03               	goto	u1432
  3177  0702  2F04               	goto	u1433
  3178  0703                     u1432:	
  3179  0703  07A2               	addwf	??___fladd+2,f
  3180  0704                     u1433:	
  3181  0704  0827               	movf	??___fladd+7,w
  3182  0705  1803               	skipnc
  3183  0706  0A27               	incf	??___fladd+7,w
  3184  0707  07A3               	addwf	??___fladd+3,f
  3185  0708  0823               	movf	??___fladd+3,w
  3186  0709  00F3               	movwf	___fladd@b+3
  3187  070A  0822               	movf	??___fladd+2,w
  3188  070B  00F2               	movwf	___fladd@b+2
  3189  070C  0821               	movf	??___fladd+1,w
  3190  070D  00F1               	movwf	___fladd@b+1
  3191  070E  0820               	movf	??___fladd,w
  3192  070F  00F0               	movwf	___fladd@b
  3193  0710                     l1445:	
  3194  0710  3080               	movlw	128
  3195  0711  00A0               	movwf	??___fladd
  3196  0712  0820               	movf	??___fladd,w
  3197  0713  06F8               	xorwf	___fladd@signs,f
  3198  0714  09FB               	comf	___fladd@grs,f
  3199  0715  0AFB               	incf	___fladd@grs,f
  3200  0716                     l1447:	
  3201  0716  087B               	movf	___fladd@grs,w
  3202  0717  1D03               	btfss	3,2
  3203  0718  2F1A               	goto	u1441
  3204  0719  2F1B               	goto	u1440
  3205  071A                     u1441:	
  3206  071A  2F38               	goto	l501
  3207  071B                     u1440:	
  3208  071B                     l1449:	
  3209  071B  3001               	movlw	1
  3210  071C  07F0               	addwf	___fladd@b,f
  3211  071D  3000               	movlw	0
  3212  071E  1803               	skipnc
  3213  071F  3001               	movlw	1
  3214  0720  07F1               	addwf	___fladd@b+1,f
  3215  0721  3000               	movlw	0
  3216  0722  1803               	skipnc
  3217  0723  3001               	movlw	1
  3218  0724  07F2               	addwf	___fladd@b+2,f
  3219  0725  3000               	movlw	0
  3220  0726  1803               	skipnc
  3221  0727  3001               	movlw	1
  3222  0728  07F3               	addwf	___fladd@b+3,f
  3223  0729  2F38               	goto	l501
  3224  072A                     l1451:	
  3225  072A  0874               	movf	___fladd@a,w
  3226  072B  02F0               	subwf	___fladd@b,f
  3227  072C  0875               	movf	___fladd@a+1,w
  3228  072D  1C03               	skipc
  3229  072E  0F75               	incfsz	___fladd@a+1,w
  3230  072F  02F1               	subwf	___fladd@b+1,f
  3231  0730  0876               	movf	___fladd@a+2,w
  3232  0731  1C03               	skipc
  3233  0732  0F76               	incfsz	___fladd@a+2,w
  3234  0733  02F2               	subwf	___fladd@b+2,f
  3235  0734  0877               	movf	___fladd@a+3,w
  3236  0735  1C03               	skipc
  3237  0736  0F77               	incfsz	___fladd@a+3,w
  3238  0737  02F3               	subwf	___fladd@b+3,f
  3239  0738                     l501:	
  3240  0738  0873               	movf	___fladd@b+3,w
  3241  0739  0472               	iorwf	___fladd@b+2,w
  3242  073A  0471               	iorwf	___fladd@b+1,w
  3243  073B  0470               	iorwf	___fladd@b,w
  3244  073C  1D03               	skipz
  3245  073D  2F3F               	goto	u1451
  3246  073E  2F40               	goto	u1450
  3247  073F                     u1451:	
  3248  073F  2F6E               	goto	l1473
  3249  0740                     u1450:	
  3250  0740                     l1453:	
  3251  0740  087B               	movf	___fladd@grs,w
  3252  0741  1D03               	btfss	3,2
  3253  0742  2F44               	goto	u1461
  3254  0743  2F45               	goto	u1460
  3255  0744                     u1461:	
  3256  0744  2F6E               	goto	l1473
  3257  0745                     u1460:	
  3258  0745                     l1455:	
  3259  0745  3000               	movlw	0
  3260  0746  00F3               	movwf	?___fladd+3
  3261  0747  3000               	movlw	0
  3262  0748  00F2               	movwf	?___fladd+2
  3263  0749  3000               	movlw	0
  3264  074A  00F1               	movwf	?___fladd+1
  3265  074B  3000               	movlw	0
  3266  074C  00F0               	movwf	?___fladd
  3267  074D  2FF2               	goto	l493
  3268  074E                     l1459:	
  3269  074E  3001               	movlw	1
  3270  074F  1283               	bcf	3,5	;RP0=0, select bank0
  3271  0750  1303               	bcf	3,6	;RP1=0, select bank0
  3272  0751  00A0               	movwf	??___fladd
  3273  0752                     u1475:	
  3274  0752  1003               	clrc
  3275  0753  0DF0               	rlf	___fladd@b,f
  3276  0754  0DF1               	rlf	___fladd@b+1,f
  3277  0755  0DF2               	rlf	___fladd@b+2,f
  3278  0756  0DF3               	rlf	___fladd@b+3,f
  3279  0757  0BA0               	decfsz	??___fladd,f
  3280  0758  2F52               	goto	u1475
  3281  0759                     l1461:	
  3282  0759  1FFB               	btfss	___fladd@grs,7
  3283  075A  2F5C               	goto	u1481
  3284  075B  2F5D               	goto	u1480
  3285  075C                     u1481:	
  3286  075C  2F5E               	goto	l505
  3287  075D                     u1480:	
  3288  075D                     l1463:	
  3289  075D  1470               	bsf	___fladd@b,0
  3290  075E                     l505:	
  3291  075E  1C7B               	btfss	___fladd@grs,0
  3292  075F  2F61               	goto	u1491
  3293  0760  2F62               	goto	u1490
  3294  0761                     u1491:	
  3295  0761  2F65               	goto	l1467
  3296  0762                     u1490:	
  3297  0762                     l1465:	
  3298  0762  1403               	setc
  3299  0763  0DFB               	rlf	___fladd@grs,f
  3300  0764  2F67               	goto	l1469
  3301  0765                     l1467:	
  3302  0765  1003               	clrc
  3303  0766  0DFB               	rlf	___fladd@grs,f
  3304  0767                     l1469:	
  3305  0767  087A               	movf	___fladd@bexp,w
  3306  0768  1903               	btfsc	3,2
  3307  0769  2F6B               	goto	u1501
  3308  076A  2F6C               	goto	u1500
  3309  076B                     u1501:	
  3310  076B  2F6E               	goto	l1473
  3311  076C                     u1500:	
  3312  076C                     l1471:	
  3313  076C  3001               	movlw	1
  3314  076D  02FA               	subwf	___fladd@bexp,f
  3315  076E                     l1473:	
  3316  076E  1FF2               	btfss	___fladd@b+2,7
  3317  076F  2F71               	goto	u1511
  3318  0770  2F72               	goto	u1510
  3319  0771                     u1511:	
  3320  0771  2F4E               	goto	l1459
  3321  0772                     u1510:	
  3322  0772                     l1475:	
  3323  0772  01F9               	clrf	___fladd@aexp
  3324  0773                     l1477:	
  3325  0773  1FFB               	btfss	___fladd@grs,7
  3326  0774  2F76               	goto	u1521
  3327  0775  2F77               	goto	u1520
  3328  0776                     u1521:	
  3329  0776  2F85               	goto	l1485
  3330  0777                     u1520:	
  3331  0777                     l1479:	
  3332  0777  087B               	movf	___fladd@grs,w
  3333  0778  397F               	andlw	127
  3334  0779  1903               	btfsc	3,2
  3335  077A  2F7C               	goto	u1531
  3336  077B  2F7D               	goto	u1530
  3337  077C                     u1531:	
  3338  077C  2F80               	goto	l511
  3339  077D                     u1530:	
  3340  077D                     l1481:	
  3341  077D  01F9               	clrf	___fladd@aexp
  3342  077E  0AF9               	incf	___fladd@aexp,f
  3343  077F  2F85               	goto	l1485
  3344  0780                     l511:	
  3345  0780  1C70               	btfss	___fladd@b,0
  3346  0781  2F83               	goto	u1541
  3347  0782  2F84               	goto	u1540
  3348  0783                     u1541:	
  3349  0783  2F85               	goto	l1485
  3350  0784                     u1540:	
  3351  0784  2F7D               	goto	l1481
  3352  0785                     l1485:	
  3353  0785  0879               	movf	___fladd@aexp,w
  3354  0786  1903               	btfsc	3,2
  3355  0787  2F89               	goto	u1551
  3356  0788  2F8A               	goto	u1550
  3357  0789                     u1551:	
  3358  0789  2FC0               	goto	l514
  3359  078A                     u1550:	
  3360  078A                     l1487:	
  3361  078A  3001               	movlw	1
  3362  078B  07F0               	addwf	___fladd@b,f
  3363  078C  3000               	movlw	0
  3364  078D  1803               	skipnc
  3365  078E  3001               	movlw	1
  3366  078F  07F1               	addwf	___fladd@b+1,f
  3367  0790  3000               	movlw	0
  3368  0791  1803               	skipnc
  3369  0792  3001               	movlw	1
  3370  0793  07F2               	addwf	___fladd@b+2,f
  3371  0794  3000               	movlw	0
  3372  0795  1803               	skipnc
  3373  0796  3001               	movlw	1
  3374  0797  07F3               	addwf	___fladd@b+3,f
  3375  0798                     l1489:	
  3376  0798  1C73               	btfss	___fladd@b+3,0
  3377  0799  2F9B               	goto	u1561
  3378  079A  2F9C               	goto	u1560
  3379  079B                     u1561:	
  3380  079B  2FC0               	goto	l514
  3381  079C                     u1560:	
  3382  079C                     l1491:	
  3383  079C  0870               	movf	___fladd@b,w
  3384  079D  1283               	bcf	3,5	;RP0=0, select bank0
  3385  079E  1303               	bcf	3,6	;RP1=0, select bank0
  3386  079F  00A0               	movwf	??___fladd
  3387  07A0  0871               	movf	___fladd@b+1,w
  3388  07A1  00A1               	movwf	??___fladd+1
  3389  07A2  0872               	movf	___fladd@b+2,w
  3390  07A3  00A2               	movwf	??___fladd+2
  3391  07A4  0873               	movf	___fladd@b+3,w
  3392  07A5  00A3               	movwf	??___fladd+3
  3393  07A6  3001               	movlw	1
  3394  07A7  00A4               	movwf	??___fladd+4
  3395  07A8                     u1575:	
  3396  07A8  0D23               	rlf	??___fladd+3,w
  3397  07A9  0CA3               	rrf	??___fladd+3,f
  3398  07AA  0CA2               	rrf	??___fladd+2,f
  3399  07AB  0CA1               	rrf	??___fladd+1,f
  3400  07AC  0CA0               	rrf	??___fladd,f
  3401  07AD                     u1570:	
  3402  07AD  0BA4               	decfsz	??___fladd+4,f
  3403  07AE  2FA8               	goto	u1575
  3404  07AF  0823               	movf	??___fladd+3,w
  3405  07B0  00F3               	movwf	___fladd@b+3
  3406  07B1  0822               	movf	??___fladd+2,w
  3407  07B2  00F2               	movwf	___fladd@b+2
  3408  07B3  0821               	movf	??___fladd+1,w
  3409  07B4  00F1               	movwf	___fladd@b+1
  3410  07B5  0820               	movf	??___fladd,w
  3411  07B6  00F0               	movwf	___fladd@b
  3412  07B7  0A7A               	incf	___fladd@bexp,w
  3413  07B8  1903               	btfsc	3,2
  3414  07B9  2FBB               	goto	u1581
  3415  07BA  2FBC               	goto	u1580
  3416  07BB                     u1581:	
  3417  07BB  2FC0               	goto	l514
  3418  07BC                     u1580:	
  3419  07BC                     l1493:	
  3420  07BC  3001               	movlw	1
  3421  07BD  00A0               	movwf	??___fladd
  3422  07BE  0820               	movf	??___fladd,w
  3423  07BF  07FA               	addwf	___fladd@bexp,f
  3424  07C0                     l514:	
  3425  07C0  0A7A               	incf	___fladd@bexp,w
  3426  07C1  1903               	btfsc	3,2
  3427  07C2  2FC4               	goto	u1591
  3428  07C3  2FC5               	goto	u1590
  3429  07C4                     u1591:	
  3430  07C4  2FCA               	goto	l1497
  3431  07C5                     u1590:	
  3432  07C5                     l1495:	
  3433  07C5  087A               	movf	___fladd@bexp,w
  3434  07C6  1D03               	btfss	3,2
  3435  07C7  2FC9               	goto	u1601
  3436  07C8  2FCA               	goto	u1600
  3437  07C9                     u1601:	
  3438  07C9  2FD8               	goto	l1503
  3439  07CA                     u1600:	
  3440  07CA                     l1497:	
  3441  07CA  3000               	movlw	0
  3442  07CB  00F3               	movwf	___fladd@b+3
  3443  07CC  3000               	movlw	0
  3444  07CD  00F2               	movwf	___fladd@b+2
  3445  07CE  3000               	movlw	0
  3446  07CF  00F1               	movwf	___fladd@b+1
  3447  07D0  3000               	movlw	0
  3448  07D1  00F0               	movwf	___fladd@b
  3449  07D2                     l1499:	
  3450  07D2  087A               	movf	___fladd@bexp,w
  3451  07D3  1D03               	btfss	3,2
  3452  07D4  2FD6               	goto	u1611
  3453  07D5  2FD7               	goto	u1610
  3454  07D6                     u1611:	
  3455  07D6  2FD8               	goto	l1503
  3456  07D7                     u1610:	
  3457  07D7                     l1501:	
  3458  07D7  01F8               	clrf	___fladd@signs
  3459  07D8                     l1503:	
  3460  07D8  1C7A               	btfss	___fladd@bexp,0
  3461  07D9  2FDB               	goto	u1621
  3462  07DA  2FDC               	goto	u1620
  3463  07DB                     u1621:	
  3464  07DB  2FDE               	goto	l1507
  3465  07DC                     u1620:	
  3466  07DC                     l1505:	
  3467  07DC  17F2               	bsf	___fladd@b+2,7
  3468  07DD  2FE4               	goto	l522
  3469  07DE                     l1507:	
  3470  07DE  307F               	movlw	127
  3471  07DF  1283               	bcf	3,5	;RP0=0, select bank0
  3472  07E0  1303               	bcf	3,6	;RP1=0, select bank0
  3473  07E1  00A0               	movwf	??___fladd
  3474  07E2  0820               	movf	??___fladd,w
  3475  07E3  05F2               	andwf	___fladd@b+2,f
  3476  07E4                     l522:	
  3477  07E4  087A               	movf	___fladd@bexp,w
  3478  07E5  1283               	bcf	3,5	;RP0=0, select bank0
  3479  07E6  1303               	bcf	3,6	;RP1=0, select bank0
  3480  07E7  00A0               	movwf	??___fladd
  3481  07E8  1003               	clrc
  3482  07E9  0C20               	rrf	??___fladd,w
  3483  07EA  00A1               	movwf	??___fladd+1
  3484  07EB  0821               	movf	??___fladd+1,w
  3485  07EC  00F3               	movwf	___fladd@b+3
  3486  07ED                     l1509:	
  3487  07ED  1FF8               	btfss	___fladd@signs,7
  3488  07EE  2FF0               	goto	u1631
  3489  07EF  2FF1               	goto	u1630
  3490  07F0                     u1631:	
  3491  07F0  2FF2               	goto	l523
  3492  07F1                     u1630:	
  3493  07F1                     l1511:	
  3494  07F1  17F3               	bsf	___fladd@b+3,7
  3495  07F2                     l523:	
  3496  07F2                     l493:	
  3497  07F2  0008               	return
  3498  07F3                     __end_of___fladd:	
  3499                           
  3500                           	psect	text15
  3501  0378                     __ptext15:	
  3502 ;; *************** function ___fldiv *****************
  3503 ;; Defined at:
  3504 ;;		line 8 in file "D:\Program Files (x86)\Microchip\xc8\v2.10\pic\sources\c90\common\sprcdiv.c"
  3505 ;; Parameters:    Size  Location     Type
  3506 ;;  a               4    0[COMMON] unsigned char 
  3507 ;;  b               4    4[COMMON] unsigned char 
  3508 ;; Auto vars:     Size  Location     Type
  3509 ;;  grs             4    7[BANK0 ] unsigned long 
  3510 ;;  rem             4    0[BANK0 ] unsigned long 
  3511 ;;  new_exp         2    5[BANK0 ] int 
  3512 ;;  aexp            1   12[BANK0 ] unsigned char 
  3513 ;;  bexp            1   11[BANK0 ] unsigned char 
  3514 ;;  sign            1    4[BANK0 ] unsigned char 
  3515 ;; Return value:  Size  Location     Type
  3516 ;;                  4    0[COMMON] unsigned char 
  3517 ;; Registers used:
  3518 ;;		wreg, status,2, status,0, btemp+1
  3519 ;; Tracked objects:
  3520 ;;		On entry : 0/0
  3521 ;;		On exit  : 0/0
  3522 ;;		Unchanged: 0/0
  3523 ;; Data sizes:     COMMON   BANK0   BANK1   BANK3   BANK2
  3524 ;;      Params:         8       0       0       0       0
  3525 ;;      Locals:         0      13       0       0       0
  3526 ;;      Temps:          5       0       0       0       0
  3527 ;;      Totals:        13      13       0       0       0
  3528 ;;Total ram usage:       26 bytes
  3529 ;; Hardware stack levels used:    1
  3530 ;; This function calls:
  3531 ;;		Nothing
  3532 ;; This function is called by:
  3533 ;;		_int_distance
  3534 ;; This function uses a non-reentrant model
  3535 ;;
  3536                           
  3537                           
  3538                           ;psect for function ___fldiv
  3539  0378                     ___fldiv:	
  3540  0378                     l1625:	
  3541                           ;incstack = 0
  3542                           ; Regs used in ___fldiv: [wreg+status,2+status,0+btemp+1]
  3543                           
  3544  0378  0877               	movf	___fldiv@b+3,w
  3545  0379  3980               	andlw	128
  3546  037A  00F8               	movwf	??___fldiv
  3547  037B  0878               	movf	??___fldiv,w
  3548  037C  1283               	bcf	3,5	;RP0=0, select bank0
  3549  037D  1303               	bcf	3,6	;RP1=0, select bank0
  3550  037E  00A4               	movwf	___fldiv@sign
  3551  037F                     l1627:	
  3552  037F  0877               	movf	___fldiv@b+3,w
  3553  0380  00F8               	movwf	??___fldiv
  3554  0381  0778               	addwf	??___fldiv,w
  3555  0382  00F9               	movwf	??___fldiv+1
  3556  0383  0879               	movf	??___fldiv+1,w
  3557  0384  00AB               	movwf	___fldiv@bexp
  3558  0385                     l1629:	
  3559  0385  1FF6               	btfss	___fldiv@b+2,7
  3560  0386  2B88               	goto	u1851
  3561  0387  2B89               	goto	u1850
  3562  0388                     u1851:	
  3563  0388  2B8A               	goto	l1633
  3564  0389                     u1850:	
  3565  0389                     l1631:	
  3566  0389  142B               	bsf	___fldiv@bexp,0
  3567  038A                     l1633:	
  3568  038A  082B               	movf	___fldiv@bexp,w
  3569  038B  1903               	btfsc	3,2
  3570  038C  2B8E               	goto	u1861
  3571  038D  2B8F               	goto	u1860
  3572  038E                     u1861:	
  3573  038E  2B9F               	goto	l1643
  3574  038F                     u1860:	
  3575  038F                     l1635:	
  3576  038F  0A2B               	incf	___fldiv@bexp,w
  3577  0390  1D03               	btfss	3,2
  3578  0391  2B93               	goto	u1871
  3579  0392  2B94               	goto	u1870
  3580  0393                     u1871:	
  3581  0393  2B9C               	goto	l1639
  3582  0394                     u1870:	
  3583  0394                     l1637:	
  3584  0394  3000               	movlw	0
  3585  0395  00F7               	movwf	___fldiv@b+3
  3586  0396  3000               	movlw	0
  3587  0397  00F6               	movwf	___fldiv@b+2
  3588  0398  3000               	movlw	0
  3589  0399  00F5               	movwf	___fldiv@b+1
  3590  039A  3000               	movlw	0
  3591  039B  00F4               	movwf	___fldiv@b
  3592  039C                     l1639:	
  3593  039C  17F6               	bsf	___fldiv@b+2,7
  3594  039D                     l1641:	
  3595  039D  01F7               	clrf	___fldiv@b+3
  3596  039E  2BA7               	goto	l1645
  3597  039F                     l1643:	
  3598  039F  3000               	movlw	0
  3599  03A0  00F7               	movwf	___fldiv@b+3
  3600  03A1  3000               	movlw	0
  3601  03A2  00F6               	movwf	___fldiv@b+2
  3602  03A3  3000               	movlw	0
  3603  03A4  00F5               	movwf	___fldiv@b+1
  3604  03A5  3000               	movlw	0
  3605  03A6  00F4               	movwf	___fldiv@b
  3606  03A7                     l1645:	
  3607  03A7  0873               	movf	___fldiv@a+3,w
  3608  03A8  3980               	andlw	128
  3609  03A9  00F8               	movwf	??___fldiv
  3610  03AA  0878               	movf	??___fldiv,w
  3611  03AB  06A4               	xorwf	___fldiv@sign,f
  3612  03AC                     l1647:	
  3613  03AC  0873               	movf	___fldiv@a+3,w
  3614  03AD  00F8               	movwf	??___fldiv
  3615  03AE  0778               	addwf	??___fldiv,w
  3616  03AF  00F9               	movwf	??___fldiv+1
  3617  03B0  0879               	movf	??___fldiv+1,w
  3618  03B1  00AC               	movwf	___fldiv@aexp
  3619  03B2                     l1649:	
  3620  03B2  1FF2               	btfss	___fldiv@a+2,7
  3621  03B3  2BB5               	goto	u1881
  3622  03B4  2BB6               	goto	u1880
  3623  03B5                     u1881:	
  3624  03B5  2BB7               	goto	l1653
  3625  03B6                     u1880:	
  3626  03B6                     l1651:	
  3627  03B6  142C               	bsf	___fldiv@aexp,0
  3628  03B7                     l1653:	
  3629  03B7  082C               	movf	___fldiv@aexp,w
  3630  03B8  1903               	btfsc	3,2
  3631  03B9  2BBB               	goto	u1891
  3632  03BA  2BBC               	goto	u1890
  3633  03BB                     u1891:	
  3634  03BB  2BCC               	goto	l1663
  3635  03BC                     u1890:	
  3636  03BC                     l1655:	
  3637  03BC  0A2C               	incf	___fldiv@aexp,w
  3638  03BD  1D03               	btfss	3,2
  3639  03BE  2BC0               	goto	u1901
  3640  03BF  2BC1               	goto	u1900
  3641  03C0                     u1901:	
  3642  03C0  2BC9               	goto	l1659
  3643  03C1                     u1900:	
  3644  03C1                     l1657:	
  3645  03C1  3000               	movlw	0
  3646  03C2  00F3               	movwf	___fldiv@a+3
  3647  03C3  3000               	movlw	0
  3648  03C4  00F2               	movwf	___fldiv@a+2
  3649  03C5  3000               	movlw	0
  3650  03C6  00F1               	movwf	___fldiv@a+1
  3651  03C7  3000               	movlw	0
  3652  03C8  00F0               	movwf	___fldiv@a
  3653  03C9                     l1659:	
  3654  03C9  17F2               	bsf	___fldiv@a+2,7
  3655  03CA                     l1661:	
  3656  03CA  01F3               	clrf	___fldiv@a+3
  3657  03CB  2BD4               	goto	l536
  3658  03CC                     l1663:	
  3659  03CC  3000               	movlw	0
  3660  03CD  00F3               	movwf	___fldiv@a+3
  3661  03CE  3000               	movlw	0
  3662  03CF  00F2               	movwf	___fldiv@a+2
  3663  03D0  3000               	movlw	0
  3664  03D1  00F1               	movwf	___fldiv@a+1
  3665  03D2  3000               	movlw	0
  3666  03D3  00F0               	movwf	___fldiv@a
  3667  03D4                     l536:	
  3668  03D4  0873               	movf	___fldiv@a+3,w
  3669  03D5  0472               	iorwf	___fldiv@a+2,w
  3670  03D6  0471               	iorwf	___fldiv@a+1,w
  3671  03D7  0470               	iorwf	___fldiv@a,w
  3672  03D8  1D03               	skipz
  3673  03D9  2BDB               	goto	u1911
  3674  03DA  2BDC               	goto	u1910
  3675  03DB                     u1911:	
  3676  03DB  2BF5               	goto	l1673
  3677  03DC                     u1910:	
  3678  03DC                     l1665:	
  3679  03DC  3000               	movlw	0
  3680  03DD  00F7               	movwf	___fldiv@b+3
  3681  03DE  3000               	movlw	0
  3682  03DF  00F6               	movwf	___fldiv@b+2
  3683  03E0  3000               	movlw	0
  3684  03E1  00F5               	movwf	___fldiv@b+1
  3685  03E2  3000               	movlw	0
  3686  03E3  00F4               	movwf	___fldiv@b
  3687  03E4  3080               	movlw	128
  3688  03E5  04F6               	iorwf	___fldiv@b+2,f
  3689  03E6  307F               	movlw	127
  3690  03E7  04F7               	iorwf	___fldiv@b+3,f
  3691  03E8                     l1667:	
  3692  03E8  0824               	movf	___fldiv@sign,w
  3693  03E9  00F8               	movwf	??___fldiv
  3694  03EA  0878               	movf	??___fldiv,w
  3695  03EB  04F7               	iorwf	___fldiv@b+3,f
  3696  03EC                     l1669:	
  3697  03EC  0877               	movf	___fldiv@b+3,w
  3698  03ED  00F3               	movwf	?___fldiv+3
  3699  03EE  0876               	movf	___fldiv@b+2,w
  3700  03EF  00F2               	movwf	?___fldiv+2
  3701  03F0  0875               	movf	___fldiv@b+1,w
  3702  03F1  00F1               	movwf	?___fldiv+1
  3703  03F2  0874               	movf	___fldiv@b,w
  3704  03F3  00F0               	movwf	?___fldiv
  3705  03F4  2D5A               	goto	l538
  3706  03F5                     l1673:	
  3707  03F5  082B               	movf	___fldiv@bexp,w
  3708  03F6  1D03               	btfss	3,2
  3709  03F7  2BF9               	goto	u1921
  3710  03F8  2BFA               	goto	u1920
  3711  03F9                     u1921:	
  3712  03F9  2C03               	goto	l1679
  3713  03FA                     u1920:	
  3714  03FA                     l1675:	
  3715  03FA  3000               	movlw	0
  3716  03FB  00F3               	movwf	?___fldiv+3
  3717  03FC  3000               	movlw	0
  3718  03FD  00F2               	movwf	?___fldiv+2
  3719  03FE  3000               	movlw	0
  3720  03FF  00F1               	movwf	?___fldiv+1
  3721  0400  3000               	movlw	0
  3722  0401  00F0               	movwf	?___fldiv
  3723  0402  2D5A               	goto	l538
  3724  0403                     l1679:	
  3725  0403  082B               	movf	___fldiv@bexp,w
  3726  0404  00F8               	movwf	??___fldiv
  3727  0405  01F9               	clrf	??___fldiv+1
  3728  0406  0879               	movf	??___fldiv+1,w
  3729  0407  00FB               	movwf	??___fldiv+3
  3730  0408  082C               	movf	___fldiv@aexp,w
  3731  0409  0278               	subwf	??___fldiv,w
  3732  040A  00FA               	movwf	??___fldiv+2
  3733  040B  1C03               	skipc
  3734  040C  03FB               	decf	??___fldiv+3,f
  3735  040D  087A               	movf	??___fldiv+2,w
  3736  040E  3E7F               	addlw	127
  3737  040F  00A5               	movwf	___fldiv@new_exp
  3738  0410  087B               	movf	??___fldiv+3,w
  3739  0411  1803               	skipnc
  3740  0412  3E01               	addlw	1
  3741  0413  3E00               	addlw	0
  3742  0414  00A6               	movwf	___fldiv@new_exp+1
  3743  0415                     l1681:	
  3744  0415  0877               	movf	___fldiv@b+3,w
  3745  0416  00A3               	movwf	___fldiv@rem+3
  3746  0417  0876               	movf	___fldiv@b+2,w
  3747  0418  00A2               	movwf	___fldiv@rem+2
  3748  0419  0875               	movf	___fldiv@b+1,w
  3749  041A  00A1               	movwf	___fldiv@rem+1
  3750  041B  0874               	movf	___fldiv@b,w
  3751  041C  00A0               	movwf	___fldiv@rem
  3752  041D                     l1683:	
  3753  041D  3000               	movlw	0
  3754  041E  00F7               	movwf	___fldiv@b+3
  3755  041F  3000               	movlw	0
  3756  0420  00F6               	movwf	___fldiv@b+2
  3757  0421  3000               	movlw	0
  3758  0422  00F5               	movwf	___fldiv@b+1
  3759  0423  3000               	movlw	0
  3760  0424  00F4               	movwf	___fldiv@b
  3761  0425                     l1685:	
  3762  0425  3000               	movlw	0
  3763  0426  00AA               	movwf	___fldiv@grs+3
  3764  0427  3000               	movlw	0
  3765  0428  00A9               	movwf	___fldiv@grs+2
  3766  0429  3000               	movlw	0
  3767  042A  00A8               	movwf	___fldiv@grs+1
  3768  042B  3000               	movlw	0
  3769  042C  00A7               	movwf	___fldiv@grs
  3770  042D                     l1687:	
  3771  042D  01AC               	clrf	___fldiv@aexp
  3772  042E  2C7F               	goto	l1707
  3773  042F                     l1689:	
  3774  042F  082C               	movf	___fldiv@aexp,w
  3775  0430  1903               	btfsc	3,2
  3776  0431  2C33               	goto	u1931
  3777  0432  2C34               	goto	u1930
  3778  0433                     u1931:	
  3779  0433  2C54               	goto	l1699
  3780  0434                     u1930:	
  3781  0434                     l1691:	
  3782  0434  3001               	movlw	1
  3783  0435  00F8               	movwf	??___fldiv
  3784  0436                     u1945:	
  3785  0436  1003               	clrc
  3786  0437  0DA0               	rlf	___fldiv@rem,f
  3787  0438  0DA1               	rlf	___fldiv@rem+1,f
  3788  0439  0DA2               	rlf	___fldiv@rem+2,f
  3789  043A  0DA3               	rlf	___fldiv@rem+3,f
  3790  043B  0BF8               	decfsz	??___fldiv,f
  3791  043C  2C36               	goto	u1945
  3792  043D  3001               	movlw	1
  3793  043E  00F8               	movwf	??___fldiv
  3794  043F                     u1955:	
  3795  043F  1003               	clrc
  3796  0440  0DF4               	rlf	___fldiv@b,f
  3797  0441  0DF5               	rlf	___fldiv@b+1,f
  3798  0442  0DF6               	rlf	___fldiv@b+2,f
  3799  0443  0DF7               	rlf	___fldiv@b+3,f
  3800  0444  0BF8               	decfsz	??___fldiv,f
  3801  0445  2C3F               	goto	u1955
  3802  0446                     l1693:	
  3803  0446  1FAA               	btfss	___fldiv@grs+3,7
  3804  0447  2C49               	goto	u1961
  3805  0448  2C4A               	goto	u1960
  3806  0449                     u1961:	
  3807  0449  2C4B               	goto	l1697
  3808  044A                     u1960:	
  3809  044A                     l1695:	
  3810  044A  1474               	bsf	___fldiv@b,0
  3811  044B                     l1697:	
  3812  044B  3001               	movlw	1
  3813  044C  00F8               	movwf	??___fldiv
  3814  044D                     u1975:	
  3815  044D  1003               	clrc
  3816  044E  0DA7               	rlf	___fldiv@grs,f
  3817  044F  0DA8               	rlf	___fldiv@grs+1,f
  3818  0450  0DA9               	rlf	___fldiv@grs+2,f
  3819  0451  0DAA               	rlf	___fldiv@grs+3,f
  3820  0452  0BF8               	decfsz	??___fldiv,f
  3821  0453  2C4D               	goto	u1975
  3822  0454                     l1699:	
  3823  0454  0873               	movf	___fldiv@a+3,w
  3824  0455  0223               	subwf	___fldiv@rem+3,w
  3825  0456  1D03               	skipz
  3826  0457  2C62               	goto	u1985
  3827  0458  0872               	movf	___fldiv@a+2,w
  3828  0459  0222               	subwf	___fldiv@rem+2,w
  3829  045A  1D03               	skipz
  3830  045B  2C62               	goto	u1985
  3831  045C  0871               	movf	___fldiv@a+1,w
  3832  045D  0221               	subwf	___fldiv@rem+1,w
  3833  045E  1D03               	skipz
  3834  045F  2C62               	goto	u1985
  3835  0460  0870               	movf	___fldiv@a,w
  3836  0461  0220               	subwf	___fldiv@rem,w
  3837  0462                     u1985:	
  3838  0462  1C03               	skipc
  3839  0463  2C65               	goto	u1981
  3840  0464  2C66               	goto	u1980
  3841  0465                     u1981:	
  3842  0465  2C7B               	goto	l1705
  3843  0466                     u1980:	
  3844  0466                     l1701:	
  3845  0466  172A               	bsf	___fldiv@grs+3,6
  3846  0467                     l1703:	
  3847  0467  0870               	movf	___fldiv@a,w
  3848  0468  02A0               	subwf	___fldiv@rem,f
  3849  0469  0871               	movf	___fldiv@a+1,w
  3850  046A  1C03               	skipc
  3851  046B  0F71               	incfsz	___fldiv@a+1,w
  3852  046C  2C6E               	goto	u1995
  3853  046D  2C6F               	goto	u1996
  3854  046E                     u1995:	
  3855  046E  02A1               	subwf	___fldiv@rem+1,f
  3856  046F                     u1996:	
  3857  046F  0872               	movf	___fldiv@a+2,w
  3858  0470  1C03               	skipc
  3859  0471  0F72               	incfsz	___fldiv@a+2,w
  3860  0472  2C74               	goto	u1997
  3861  0473  2C75               	goto	u1998
  3862  0474                     u1997:	
  3863  0474  02A2               	subwf	___fldiv@rem+2,f
  3864  0475                     u1998:	
  3865  0475  0873               	movf	___fldiv@a+3,w
  3866  0476  1C03               	skipc
  3867  0477  0F73               	incfsz	___fldiv@a+3,w
  3868  0478  2C7A               	goto	u1999
  3869  0479  2C7B               	goto	u1990
  3870  047A                     u1999:	
  3871  047A  02A3               	subwf	___fldiv@rem+3,f
  3872  047B                     u1990:	
  3873  047B                     l1705:	
  3874  047B  3001               	movlw	1
  3875  047C  00F8               	movwf	??___fldiv
  3876  047D  0878               	movf	??___fldiv,w
  3877  047E  07AC               	addwf	___fldiv@aexp,f
  3878  047F                     l1707:	
  3879  047F  301A               	movlw	26
  3880  0480  022C               	subwf	___fldiv@aexp,w
  3881  0481  1C03               	skipc
  3882  0482  2C84               	goto	u2001
  3883  0483  2C85               	goto	u2000
  3884  0484                     u2001:	
  3885  0484  2C2F               	goto	l1689
  3886  0485                     u2000:	
  3887  0485                     l1709:	
  3888  0485  0823               	movf	___fldiv@rem+3,w
  3889  0486  0422               	iorwf	___fldiv@rem+2,w
  3890  0487  0421               	iorwf	___fldiv@rem+1,w
  3891  0488  0420               	iorwf	___fldiv@rem,w
  3892  0489  1903               	skipnz
  3893  048A  2C8C               	goto	u2011
  3894  048B  2C8D               	goto	u2010
  3895  048C                     u2011:	
  3896  048C  2CAC               	goto	l1723
  3897  048D                     u2010:	
  3898  048D                     l1711:	
  3899  048D  1427               	bsf	___fldiv@grs,0
  3900  048E  2CAC               	goto	l1723
  3901  048F                     l1713:	
  3902  048F  3001               	movlw	1
  3903  0490  00F8               	movwf	??___fldiv
  3904  0491                     u2025:	
  3905  0491  1003               	clrc
  3906  0492  0DF4               	rlf	___fldiv@b,f
  3907  0493  0DF5               	rlf	___fldiv@b+1,f
  3908  0494  0DF6               	rlf	___fldiv@b+2,f
  3909  0495  0DF7               	rlf	___fldiv@b+3,f
  3910  0496  0BF8               	decfsz	??___fldiv,f
  3911  0497  2C91               	goto	u2025
  3912  0498                     l1715:	
  3913  0498  1FAA               	btfss	___fldiv@grs+3,7
  3914  0499  2C9B               	goto	u2031
  3915  049A  2C9C               	goto	u2030
  3916  049B                     u2031:	
  3917  049B  2C9D               	goto	l1719
  3918  049C                     u2030:	
  3919  049C                     l1717:	
  3920  049C  1474               	bsf	___fldiv@b,0
  3921  049D                     l1719:	
  3922  049D  3001               	movlw	1
  3923  049E  00F8               	movwf	??___fldiv
  3924  049F                     u2045:	
  3925  049F  1003               	clrc
  3926  04A0  0DA7               	rlf	___fldiv@grs,f
  3927  04A1  0DA8               	rlf	___fldiv@grs+1,f
  3928  04A2  0DA9               	rlf	___fldiv@grs+2,f
  3929  04A3  0DAA               	rlf	___fldiv@grs+3,f
  3930  04A4  0BF8               	decfsz	??___fldiv,f
  3931  04A5  2C9F               	goto	u2045
  3932  04A6                     l1721:	
  3933  04A6  30FF               	movlw	255
  3934  04A7  07A5               	addwf	___fldiv@new_exp,f
  3935  04A8  1803               	skipnc
  3936  04A9  0AA6               	incf	___fldiv@new_exp+1,f
  3937  04AA  30FF               	movlw	255
  3938  04AB  07A6               	addwf	___fldiv@new_exp+1,f
  3939  04AC                     l1723:	
  3940  04AC  1FF6               	btfss	___fldiv@b+2,7
  3941  04AD  2CAF               	goto	u2051
  3942  04AE  2CB0               	goto	u2050
  3943  04AF                     u2051:	
  3944  04AF  2C8F               	goto	l1713
  3945  04B0                     u2050:	
  3946  04B0                     l1725:	
  3947  04B0  01AC               	clrf	___fldiv@aexp
  3948  04B1                     l1727:	
  3949  04B1  1FAA               	btfss	___fldiv@grs+3,7
  3950  04B2  2CB4               	goto	u2061
  3951  04B3  2CB5               	goto	u2060
  3952  04B4                     u2061:	
  3953  04B4  2CD1               	goto	l1735
  3954  04B5                     u2060:	
  3955  04B5                     l1729:	
  3956  04B5  30FF               	movlw	255
  3957  04B6  0527               	andwf	___fldiv@grs,w
  3958  04B7  00F8               	movwf	??___fldiv
  3959  04B8  30FF               	movlw	255
  3960  04B9  0528               	andwf	___fldiv@grs+1,w
  3961  04BA  00F9               	movwf	??___fldiv+1
  3962  04BB  30FF               	movlw	255
  3963  04BC  0529               	andwf	___fldiv@grs+2,w
  3964  04BD  00FA               	movwf	??___fldiv+2
  3965  04BE  307F               	movlw	127
  3966  04BF  052A               	andwf	___fldiv@grs+3,w
  3967  04C0  00FB               	movwf	??___fldiv+3
  3968  04C1  087B               	movf	??___fldiv+3,w
  3969  04C2  047A               	iorwf	??___fldiv+2,w
  3970  04C3  0479               	iorwf	??___fldiv+1,w
  3971  04C4  0478               	iorwf	??___fldiv,w
  3972  04C5  1903               	skipnz
  3973  04C6  2CC8               	goto	u2071
  3974  04C7  2CC9               	goto	u2070
  3975  04C8                     u2071:	
  3976  04C8  2CCC               	goto	l552
  3977  04C9                     u2070:	
  3978  04C9                     l1731:	
  3979  04C9  01AC               	clrf	___fldiv@aexp
  3980  04CA  0AAC               	incf	___fldiv@aexp,f
  3981  04CB  2CD1               	goto	l1735
  3982  04CC                     l552:	
  3983  04CC  1C74               	btfss	___fldiv@b,0
  3984  04CD  2CCF               	goto	u2081
  3985  04CE  2CD0               	goto	u2080
  3986  04CF                     u2081:	
  3987  04CF  2CD1               	goto	l1735
  3988  04D0                     u2080:	
  3989  04D0  2CC9               	goto	l1731
  3990  04D1                     l1735:	
  3991  04D1  082C               	movf	___fldiv@aexp,w
  3992  04D2  1903               	btfsc	3,2
  3993  04D3  2CD5               	goto	u2091
  3994  04D4  2CD6               	goto	u2090
  3995  04D5                     u2091:	
  3996  04D5  2D07               	goto	l1745
  3997  04D6                     u2090:	
  3998  04D6                     l1737:	
  3999  04D6  3001               	movlw	1
  4000  04D7  07F4               	addwf	___fldiv@b,f
  4001  04D8  3000               	movlw	0
  4002  04D9  1803               	skipnc
  4003  04DA  3001               	movlw	1
  4004  04DB  07F5               	addwf	___fldiv@b+1,f
  4005  04DC  3000               	movlw	0
  4006  04DD  1803               	skipnc
  4007  04DE  3001               	movlw	1
  4008  04DF  07F6               	addwf	___fldiv@b+2,f
  4009  04E0  3000               	movlw	0
  4010  04E1  1803               	skipnc
  4011  04E2  3001               	movlw	1
  4012  04E3  07F7               	addwf	___fldiv@b+3,f
  4013  04E4                     l1739:	
  4014  04E4  1C77               	btfss	___fldiv@b+3,0
  4015  04E5  2CE7               	goto	u2101
  4016  04E6  2CE8               	goto	u2100
  4017  04E7                     u2101:	
  4018  04E7  2D07               	goto	l1745
  4019  04E8                     u2100:	
  4020  04E8                     l1741:	
  4021  04E8  0874               	movf	___fldiv@b,w
  4022  04E9  00F8               	movwf	??___fldiv
  4023  04EA  0875               	movf	___fldiv@b+1,w
  4024  04EB  00F9               	movwf	??___fldiv+1
  4025  04EC  0876               	movf	___fldiv@b+2,w
  4026  04ED  00FA               	movwf	??___fldiv+2
  4027  04EE  0877               	movf	___fldiv@b+3,w
  4028  04EF  00FB               	movwf	??___fldiv+3
  4029  04F0  3001               	movlw	1
  4030  04F1  00FC               	movwf	??___fldiv+4
  4031  04F2                     u2115:	
  4032  04F2  0D7B               	rlf	??___fldiv+3,w
  4033  04F3  0CFB               	rrf	??___fldiv+3,f
  4034  04F4  0CFA               	rrf	??___fldiv+2,f
  4035  04F5  0CF9               	rrf	??___fldiv+1,f
  4036  04F6  0CF8               	rrf	??___fldiv,f
  4037  04F7                     u2110:	
  4038  04F7  0BFC               	decfsz	??___fldiv+4,f
  4039  04F8  2CF2               	goto	u2115
  4040  04F9  087B               	movf	??___fldiv+3,w
  4041  04FA  00F7               	movwf	___fldiv@b+3
  4042  04FB  087A               	movf	??___fldiv+2,w
  4043  04FC  00F6               	movwf	___fldiv@b+2
  4044  04FD  0879               	movf	??___fldiv+1,w
  4045  04FE  00F5               	movwf	___fldiv@b+1
  4046  04FF  0878               	movf	??___fldiv,w
  4047  0500  00F4               	movwf	___fldiv@b
  4048  0501                     l1743:	
  4049  0501  3001               	movlw	1
  4050  0502  07A5               	addwf	___fldiv@new_exp,f
  4051  0503  1803               	skipnc
  4052  0504  0AA6               	incf	___fldiv@new_exp+1,f
  4053  0505  3000               	movlw	0
  4054  0506  07A6               	addwf	___fldiv@new_exp+1,f
  4055  0507                     l1745:	
  4056  0507  0826               	movf	___fldiv@new_exp+1,w
  4057  0508  3A80               	xorlw	128
  4058  0509  00FF               	movwf	btemp+1
  4059  050A  3080               	movlw	128
  4060  050B  027F               	subwf	btemp+1,w
  4061  050C  1D03               	skipz
  4062  050D  2D10               	goto	u2125
  4063  050E  30FF               	movlw	255
  4064  050F  0225               	subwf	___fldiv@new_exp,w
  4065  0510                     u2125:	
  4066  0510  1C03               	skipc
  4067  0511  2D13               	goto	u2121
  4068  0512  2D14               	goto	u2120
  4069  0513                     u2121:	
  4070  0513  2D22               	goto	l1749
  4071  0514                     u2120:	
  4072  0514                     l1747:	
  4073  0514  30FF               	movlw	255
  4074  0515  1283               	bcf	3,5	;RP0=0, select bank0
  4075  0516  1303               	bcf	3,6	;RP1=0, select bank0
  4076  0517  00A5               	movwf	___fldiv@new_exp
  4077  0518  3000               	movlw	0
  4078  0519  00A6               	movwf	___fldiv@new_exp+1
  4079  051A  3000               	movlw	0
  4080  051B  00F7               	movwf	___fldiv@b+3
  4081  051C  3000               	movlw	0
  4082  051D  00F6               	movwf	___fldiv@b+2
  4083  051E  3000               	movlw	0
  4084  051F  00F5               	movwf	___fldiv@b+1
  4085  0520  3000               	movlw	0
  4086  0521  00F4               	movwf	___fldiv@b
  4087  0522                     l1749:	
  4088  0522  1283               	bcf	3,5	;RP0=0, select bank0
  4089  0523  1303               	bcf	3,6	;RP1=0, select bank0
  4090  0524  0826               	movf	___fldiv@new_exp+1,w
  4091  0525  3A80               	xorlw	128
  4092  0526  00FF               	movwf	btemp+1
  4093  0527  3080               	movlw	128
  4094  0528  027F               	subwf	btemp+1,w
  4095  0529  1D03               	skipz
  4096  052A  2D2D               	goto	u2135
  4097  052B  3001               	movlw	1
  4098  052C  0225               	subwf	___fldiv@new_exp,w
  4099  052D                     u2135:	
  4100  052D  1803               	skipnc
  4101  052E  2D30               	goto	u2131
  4102  052F  2D31               	goto	u2130
  4103  0530                     u2131:	
  4104  0530  2D3E               	goto	l558
  4105  0531                     u2130:	
  4106  0531                     l1751:	
  4107  0531  1283               	bcf	3,5	;RP0=0, select bank0
  4108  0532  1303               	bcf	3,6	;RP1=0, select bank0
  4109  0533  01A5               	clrf	___fldiv@new_exp
  4110  0534  01A6               	clrf	___fldiv@new_exp+1
  4111  0535                     l1753:	
  4112  0535  3000               	movlw	0
  4113  0536  00F7               	movwf	___fldiv@b+3
  4114  0537  3000               	movlw	0
  4115  0538  00F6               	movwf	___fldiv@b+2
  4116  0539  3000               	movlw	0
  4117  053A  00F5               	movwf	___fldiv@b+1
  4118  053B  3000               	movlw	0
  4119  053C  00F4               	movwf	___fldiv@b
  4120  053D                     l1755:	
  4121  053D  01A4               	clrf	___fldiv@sign
  4122  053E                     l558:	
  4123  053E  1283               	bcf	3,5	;RP0=0, select bank0
  4124  053F  1303               	bcf	3,6	;RP1=0, select bank0
  4125  0540  0825               	movf	___fldiv@new_exp,w
  4126  0541  00F8               	movwf	??___fldiv
  4127  0542  0878               	movf	??___fldiv,w
  4128  0543  00AB               	movwf	___fldiv@bexp
  4129  0544                     l1757:	
  4130  0544  1C2B               	btfss	___fldiv@bexp,0
  4131  0545  2D47               	goto	u2141
  4132  0546  2D48               	goto	u2140
  4133  0547                     u2141:	
  4134  0547  2D4A               	goto	l1761
  4135  0548                     u2140:	
  4136  0548                     l1759:	
  4137  0548  17F6               	bsf	___fldiv@b+2,7
  4138  0549  2D4E               	goto	l560
  4139  054A                     l1761:	
  4140  054A  307F               	movlw	127
  4141  054B  00F8               	movwf	??___fldiv
  4142  054C  0878               	movf	??___fldiv,w
  4143  054D  05F6               	andwf	___fldiv@b+2,f
  4144  054E                     l560:	
  4145  054E  082B               	movf	___fldiv@bexp,w
  4146  054F  00F8               	movwf	??___fldiv
  4147  0550  1003               	clrc
  4148  0551  0C78               	rrf	??___fldiv,w
  4149  0552  00F9               	movwf	??___fldiv+1
  4150  0553  0879               	movf	??___fldiv+1,w
  4151  0554  00F7               	movwf	___fldiv@b+3
  4152  0555  0824               	movf	___fldiv@sign,w
  4153  0556  00F8               	movwf	??___fldiv
  4154  0557  0878               	movf	??___fldiv,w
  4155  0558  04F7               	iorwf	___fldiv@b+3,f
  4156  0559  2BEC               	goto	l1669
  4157  055A                     l538:	
  4158  055A  0008               	return
  4159  055B                     __end_of___fldiv:	
  4160                           
  4161                           	psect	text16
  4162  0FAF                     __ptext16:	
  4163 ;; *************** function _celdaRead *****************
  4164 ;; Defined at:
  4165 ;;		line 23 in file "peso.c"
  4166 ;; Parameters:    Size  Location     Type
  4167 ;;		None
  4168 ;; Auto vars:     Size  Location     Type
  4169 ;;  valor           4    8[COMMON] unsigned long 
  4170 ;;  v               4    4[COMMON] unsigned long 
  4171 ;;  i               1   12[COMMON] unsigned char 
  4172 ;; Return value:  Size  Location     Type
  4173 ;;                  4   11[None  ] unsigned long 
  4174 ;; Registers used:
  4175 ;;		wreg, status,2, status,0
  4176 ;; Tracked objects:
  4177 ;;		On entry : 0/0
  4178 ;;		On exit  : 0/0
  4179 ;;		Unchanged: 0/0
  4180 ;; Data sizes:     COMMON   BANK0   BANK1   BANK3   BANK2
  4181 ;;      Params:         0       0       0       0       0
  4182 ;;      Locals:         9       0       0       0       0
  4183 ;;      Temps:          4       0       0       0       0
  4184 ;;      Totals:        13       0       0       0       0
  4185 ;;Total ram usage:       13 bytes
  4186 ;; Hardware stack levels used:    1
  4187 ;; This function calls:
  4188 ;;		Nothing
  4189 ;; This function is called by:
  4190 ;;		_main
  4191 ;; This function uses a non-reentrant model
  4192 ;;
  4193                           
  4194                           
  4195                           ;psect for function _celdaRead
  4196  0FAF                     _celdaRead:	
  4197  0FAF                     l1811:	
  4198                           ;incstack = 0
  4199                           ; Regs used in _celdaRead: [wreg+status,2+status,0]
  4200                           
  4201  0FAF                     l12:	
  4202                           ;peso.c: 28:     {}
  4203                           
  4204                           
  4205                           ;peso.c: 27:     while(PORTAbits.RA1)
  4206  0FAF  1283               	bcf	3,5	;RP0=0, select bank0
  4207  0FB0  1303               	bcf	3,6	;RP1=0, select bank0
  4208  0FB1  1885               	btfsc	5,1	;volatile
  4209  0FB2  2FB4               	goto	u2291
  4210  0FB3  2FB5               	goto	u2290
  4211  0FB4                     u2291:	
  4212  0FB4  2FAF               	goto	l12
  4213  0FB5                     u2290:	
  4214  0FB5                     l1813:	
  4215                           
  4216                           ;peso.c: 29:     for(i=0;i<24;i++){
  4217  0FB5  01FC               	clrf	celdaRead@i
  4218  0FB6                     l1819:	
  4219                           
  4220                           ;peso.c: 30:         v = 0x0+PORTAbits.RA1;;
  4221  0FB6  1283               	bcf	3,5	;RP0=0, select bank0
  4222  0FB7  1303               	bcf	3,6	;RP1=0, select bank0
  4223  0FB8  0C05               	rrf	5,w	;volatile
  4224  0FB9  3901               	andlw	1
  4225  0FBA  00F0               	movwf	??_celdaRead
  4226  0FBB  01F1               	clrf	??_celdaRead+1
  4227  0FBC  01F2               	clrf	??_celdaRead+2
  4228  0FBD  01F3               	clrf	??_celdaRead+3
  4229  0FBE  0873               	movf	??_celdaRead+3,w
  4230  0FBF  00F7               	movwf	celdaRead@v+3
  4231  0FC0  0872               	movf	??_celdaRead+2,w
  4232  0FC1  00F6               	movwf	celdaRead@v+2
  4233  0FC2  0871               	movf	??_celdaRead+1,w
  4234  0FC3  00F5               	movwf	celdaRead@v+1
  4235  0FC4  0870               	movf	??_celdaRead,w
  4236  0FC5  00F4               	movwf	celdaRead@v
  4237  0FC6                     l1821:	
  4238                           
  4239                           ;peso.c: 31:         valor = valor|v;
  4240  0FC6  0874               	movf	celdaRead@v,w
  4241  0FC7  0478               	iorwf	celdaRead@valor,w
  4242  0FC8  00F0               	movwf	??_celdaRead
  4243  0FC9  0875               	movf	celdaRead@v+1,w
  4244  0FCA  0479               	iorwf	celdaRead@valor+1,w
  4245  0FCB  00F1               	movwf	??_celdaRead+1
  4246  0FCC  0876               	movf	celdaRead@v+2,w
  4247  0FCD  047A               	iorwf	celdaRead@valor+2,w
  4248  0FCE  00F2               	movwf	??_celdaRead+2
  4249  0FCF  0877               	movf	celdaRead@v+3,w
  4250  0FD0  047B               	iorwf	celdaRead@valor+3,w
  4251  0FD1  00F3               	movwf	??_celdaRead+3
  4252  0FD2  0873               	movf	??_celdaRead+3,w
  4253  0FD3  00FB               	movwf	celdaRead@valor+3
  4254  0FD4  0872               	movf	??_celdaRead+2,w
  4255  0FD5  00FA               	movwf	celdaRead@valor+2
  4256  0FD6  0871               	movf	??_celdaRead+1,w
  4257  0FD7  00F9               	movwf	celdaRead@valor+1
  4258  0FD8  0870               	movf	??_celdaRead,w
  4259  0FD9  00F8               	movwf	celdaRead@valor
  4260  0FDA                     l1823:	
  4261                           
  4262                           ;peso.c: 32:         valor <<= 1;
  4263  0FDA  3001               	movlw	1
  4264  0FDB  00F0               	movwf	??_celdaRead
  4265  0FDC                     u2305:	
  4266  0FDC  1003               	clrc
  4267  0FDD  0DF8               	rlf	celdaRead@valor,f
  4268  0FDE  0DF9               	rlf	celdaRead@valor+1,f
  4269  0FDF  0DFA               	rlf	celdaRead@valor+2,f
  4270  0FE0  0DFB               	rlf	celdaRead@valor+3,f
  4271  0FE1  0BF0               	decfsz	??_celdaRead,f
  4272  0FE2  2FDC               	goto	u2305
  4273  0FE3                     l1825:	
  4274                           
  4275                           ;peso.c: 33:         PORTAbits.RA0 = 1;
  4276  0FE3  1405               	bsf	5,0	;volatile
  4277                           
  4278                           ;peso.c: 34:         _delay((unsigned long)((1)*(4000000/4000.0)));
  4279  0FE4  30C7               	movlw	199
  4280  0FE5  00F0               	movwf	??_celdaRead
  4281  0FE6                     u2407:	
  4282  0FE6  2FE7               	nop2
  4283  0FE7  0BF0               	decfsz	??_celdaRead,f
  4284  0FE8  2FE6               	goto	u2407
  4285  0FE9  2FEA               	nop2
  4286  0FEA  2FEB               	nop2
  4287  0FEB                     l1827:	
  4288                           
  4289                           ;peso.c: 35:         PORTAbits.RA0 = 0;
  4290  0FEB  1283               	bcf	3,5	;RP0=0, select bank0
  4291  0FEC  1303               	bcf	3,6	;RP1=0, select bank0
  4292  0FED  1005               	bcf	5,0	;volatile
  4293                           
  4294                           ;peso.c: 36:         _delay((unsigned long)((1)*(4000000/4000.0)));
  4295  0FEE  30C7               	movlw	199
  4296  0FEF  00F0               	movwf	??_celdaRead
  4297  0FF0                     u2417:	
  4298  0FF0  2FF1               	nop2
  4299  0FF1  0BF0               	decfsz	??_celdaRead,f
  4300  0FF2  2FF0               	goto	u2417
  4301  0FF3  2FF4               	nop2
  4302  0FF4  2FF5               	nop2
  4303  0FF5                     l1829:	
  4304                           
  4305                           ;peso.c: 37:     }
  4306  0FF5  3001               	movlw	1
  4307  0FF6  00F0               	movwf	??_celdaRead
  4308  0FF7  0870               	movf	??_celdaRead,w
  4309  0FF8  07FC               	addwf	celdaRead@i,f
  4310  0FF9                     l1831:	
  4311  0FF9  3018               	movlw	24
  4312  0FFA  027C               	subwf	celdaRead@i,w
  4313  0FFB  1C03               	skipc
  4314  0FFC  2FFE               	goto	u2311
  4315  0FFD  2FFF               	goto	u2310
  4316  0FFE                     u2311:	
  4317  0FFE  2FB6               	goto	l1819
  4318  0FFF                     u2310:	
  4319  0FFF                     l17:	
  4320  0FFF  0008               	return
  4321  1000                     __end_of_celdaRead:	
  4322  007E                     btemp	set	126	;btemp
  4323  007E                     wtemp0	set	126


Data Sizes:
    Strings     14
    Constant    0
    Data        0
    BSS         7
    Persistent  0
    Stack       0

Auto Spaces:
    Space          Size  Autos    Used
    COMMON           14     14      14
    BANK0            80     58      65
    BANK1            80      0       0
    BANK3            96      0       0
    BANK2            96      0       0

Pointer List with Targets:

    lcd_wstring@string	PTR unsigned char  size(1) Largest target is 12
		 -> STR_2(CODE[2]), STR_1(CODE[12]), 

    int_distance@v3	PTR unsigned char  size(1) Largest target is 1
		 -> u1(BANK0[1]), 

    int_distance@v2	PTR unsigned char  size(1) Largest target is 1
		 -> d1(BANK0[1]), 

    int_distance@v1	PTR unsigned char  size(1) Largest target is 1
		 -> c1(BANK0[1]), 


Critical Paths under _main in COMMON

    _setup->_lcd_setup
    _lcd_setup->_lcd_command
    _lcd_wstring->_lcd_wchar
    _lcd_cursor->_lcd_command
    _int_distance->___lldiv
    _int_distance->___xxtofl
    ___xxtofl->___wmul
    ___fltol->___xxtofl
    ___flsub->___xxtofl

Critical Paths under _main in BANK0

    _main->_int_distance
    _int_distance->___fltol
    ___fltol->___flsub
    ___flsub->___fldiv

Critical Paths under _main in BANK1

    None.

Critical Paths under _main in BANK3

    None.

Critical Paths under _main in BANK2

    None.

Call Graph Tables:

 ---------------------------------------------------------------------------------
 (Depth) Function   	        Calls       Base Space   Used Autos Params    Refs
 ---------------------------------------------------------------------------------
 (0) _main                                                 3     3      0    6858
                                             55 BANK0      3     3      0
                          _celdaRead
                       _int_distance
                         _lcd_cursor
                          _lcd_wchar
                        _lcd_wstring
                              _setup
 ---------------------------------------------------------------------------------
 (1) _setup                                                0     0      0      22
                         _celdaSetup
                          _lcd_setup
 ---------------------------------------------------------------------------------
 (2) _lcd_setup                                            2     2      0      22
                                              3 COMMON     2     2      0
                        _lcd_command
 ---------------------------------------------------------------------------------
 (2) _celdaSetup                                           0     0      0       0
 ---------------------------------------------------------------------------------
 (1) _lcd_wstring                                          3     3      0     178
                                              3 COMMON     3     3      0
                          _lcd_wchar
 ---------------------------------------------------------------------------------
 (2) _lcd_wchar                                            3     3      0      22
                                              0 COMMON     3     3      0
 ---------------------------------------------------------------------------------
 (1) _lcd_cursor                                           4     3      1     240
                                              3 COMMON     4     3      1
                        _lcd_command
 ---------------------------------------------------------------------------------
 (3) _lcd_command                                          3     3      0      22
                                              0 COMMON     3     3      0
 ---------------------------------------------------------------------------------
 (1) _int_distance                                        23    16      7    6297
                                             32 BANK0     23    16      7
                            ___fldiv
                            ___flsub
                            ___fltol
                            ___lldiv
                             ___wmul
                           ___xxtofl
 ---------------------------------------------------------------------------------
 (2) ___xxtofl                                            14    10      4     550
                                              6 COMMON     8     4      4
                                              0 BANK0      6     6      0
                             ___wmul (ARG)
 ---------------------------------------------------------------------------------
 (2) ___wmul                                               6     2      4     548
                                              0 COMMON     6     2      4
 ---------------------------------------------------------------------------------
 (2) ___lldiv                                             14     6      8     314
                                              0 COMMON    14     6      8
 ---------------------------------------------------------------------------------
 (2) ___fltol                                             11     7      4     381
                                             21 BANK0     11     7      4
                            ___fldiv (ARG)
                            ___flsub (ARG)
                             ___wmul (ARG)
                           ___xxtofl (ARG)
 ---------------------------------------------------------------------------------
 (2) ___flsub                                              8     0      8    2485
                                             13 BANK0      8     0      8
                            ___fladd
                            ___fldiv (ARG)
                             ___wmul (ARG)
                           ___xxtofl (ARG)
 ---------------------------------------------------------------------------------
 (3) ___fladd                                             20    12      8    2136
                                              0 COMMON    12     4      8
                                              0 BANK0      8     8      0
 ---------------------------------------------------------------------------------
 (2) ___fldiv                                             26    18      8    1425
                                              0 COMMON    13     5      8
                                              0 BANK0     13    13      0
 ---------------------------------------------------------------------------------
 (1) _celdaRead                                           13    13      0      99
                                              0 COMMON    13    13      0
 ---------------------------------------------------------------------------------
 Estimated maximum stack depth 3
 ---------------------------------------------------------------------------------

 Call Graph Graphs:

 _main (ROOT)
   _celdaRead
   _int_distance
     ___fldiv
     ___flsub
       ___fladd
       ___fldiv (ARG)
       ___wmul (ARG)
       ___xxtofl (ARG)
         ___wmul (ARG)
     ___fltol
       ___fldiv (ARG)
       ___flsub (ARG)
         ___fladd
         ___fldiv (ARG)
         ___wmul (ARG)
         ___xxtofl (ARG)
           ___wmul (ARG)
       ___wmul (ARG)
       ___xxtofl (ARG)
         ___wmul (ARG)
     ___lldiv
     ___wmul
     ___xxtofl
       ___wmul (ARG)
   _lcd_cursor
     _lcd_command
   _lcd_wchar
   _lcd_wstring
     _lcd_wchar
   _setup
     _celdaSetup
     _lcd_setup
       _lcd_command

 Address spaces:
Name               Size   Autos  Total    Cost      Usage
BITCOMMON            E      0       0       0        0.0%
EEDATA             100      0       0       0        0.0%
NULL                 0      0       0       0        0.0%
CODE                 0      0       0       0        0.0%
COMMON               E      E       E       1      100.0%
BITSFR0              0      0       0       1        0.0%
SFR0                 0      0       0       1        0.0%
BITSFR1              0      0       0       2        0.0%
SFR1                 0      0       0       2        0.0%
STACK                0      0       0       2        0.0%
ABS                  0      0      4F       3        0.0%
BITBANK0            50      0       0       4        0.0%
BITSFR3              0      0       0       4        0.0%
SFR3                 0      0       0       4        0.0%
BANK0               50     3A      41       5       81.3%
BITSFR2              0      0       0       5        0.0%
SFR2                 0      0       0       5        0.0%
BITBANK1            50      0       0       6        0.0%
BANK1               50      0       0       7        0.0%
BITBANK3            60      0       0       8        0.0%
BANK3               60      0       0       9        0.0%
BITBANK2            60      0       0      10        0.0%
BANK2               60      0       0      11        0.0%
DATA                 0      0      4F      12        0.0%


Microchip Technology PIC Macro Assembler V2.10 build 88905656 
Symbol Table                                                                                   Sun Mar 01 22:13:10 2020

                       l9 0EDD              ___fldiv@aexp 002C              ___fldiv@bexp 002B  
                       pc 0002              ___fldiv@sign 0024               __CFG_CP$OFF 0000  
                      l12 0FAF                        l17 0FFF                        l52 0EE8  
                      l70 001B                        l46 0046                        l55 0377  
                      l92 0EFC                        l77 0F1F                        l98 0040  
                      _c1 0060                        _d1 005F                        _u1 005E  
                      fsr 0004       ___wmul@multiplicand 0072              ?_lcd_wstring 0070  
                     l101 0FAE                       l223 010B                       l501 0738  
                     l511 0780                       l505 075E                       l522 07E4  
                     l514 07C0                       l523 07F2                       l187 0F50  
                     l380 0172                       l620 01F1                       l373 0187  
                     l189 0F68                       l526 0F43                       l614 01AC  
                     l383 0187                       l560 054E                       l552 04CC  
                     l536 03D4                       l480 05BE                       l616 0243  
                     l538 055A                       l627 020D                       l484 0667  
                     l628 0219                       l493 07F2                       l558 053E  
                     l486 063C              __CFG_CPD$OFF 0000                       fsr0 0004  
                     indf 0000               lcd_cursor@a 0076               lcd_cursor@b 0073  
            __CFG_LVP$OFF 0000              lcd_command@a 0072              ___fltol@exp1 003F  
                    l1311 0008                      l1401 0620                      l1321 0562  
                    l1313 000C                      l1411 0652                      l1403 0640  
                    l1331 0577                      l1323 0568                      l1315 000E  
                    l1501 07D7                      l1413 065D                      l1405 064B  
                    l1341 058F                      l1333 057F                      l1325 056C  
                    l1317 0018                      l1511 07F1                      l1503 07D8  
                    l1431 06A3                      l1423 0679                      l1407 064D  
                    l1415 0661                      l1351 05A1                      l1343 0595  
                    l1335 0580                      l1327 056D                      l1319 055B  
                    l1505 07DC                      l1433 06A5                      l1425 0690  
                    l1417 066B                      l1441 06BA                      l1409 0651  
                    l1353 05A6                      l1361 05B6                      l1345 0596  
                    l1329 0572                      l1337 0582                      l1521 0EF9  
                    l1513 0ED5                      l1507 07DE                      l1443 06D0  
                    l1451 072A                      l1435 06A9                      l1427 0694  
                    l1419 0670                      l1371 05D4                      l1363 05C4  
                    l1355 05AB                      l1347 059C                      l1339 058A  
                    l1515 0EEA                      l1531 0F81                      l1701 0466  
                    l1509 07ED                      l1461 0759                      l1453 0740  
                    l1445 0710                      l1437 06AA                      l1429 0698  
                    l1381 05E8                      l1373 05D8                      l1365 05C8  
                    l1357 05B3                      l1349 05A0                      l1621 0F24  
                    l1613 0167                      l1605 014E                      l1517 0EED  
                    l1541 0FA2                      l1533 0F89                      l1525 0F69  
                    l1711 048D                      l1703 0467                      l1631 0389  
                    l1471 076C                      l1463 075D                      l1455 0745  
                    l1447 0716                      l1439 06B5                      l1391 05FC  
                    l1383 05EC                      l1375 05DC                      l1367 05CC  
                    l1359 05B4                      l1615 0177                      l1607 0160  
                    l1551 0F57                      l1519 0EEF                      l1543 0FA8  
                    l1535 0F8F                      l1527 0F72                      l1721 04A6  
                    l1713 048F                      l1705 047B                      l1641 039D  
                    l1633 038A                      l1625 0378                      l1481 077D  
                    l1465 0762                      l1473 076E                      l1449 071B  
                    l1393 0600                      l1385 05F0                      l1377 05E0  
                    l1369 05D0                      l1617 017C                      l1561 00B6  
                    l1553 0F5E                      l1545 0F44                      l1801 0231  
                    l1537 0F96                      l1529 0F7B                      l1811 0FAF  
                    l1731 04C9                      l1715 0498                      l1723 04AC  
                    l1707 047F                      l1651 03B6                      l1635 038F  
                    l1643 039F                      l1627 037F                      l1491 079C  
                    l1467 0765                      l1459 074E                      l1475 0772  
                    l1395 0604                      l1387 05F4                      l1379 05E4  
                    l1619 0F20                      l1571 00E5                      l1563 00B9  
                    l1555 0F64                      l1547 0F46                      l1803 0236  
                    l1539 0F9C                      l1821 0FC6                      l1813 0FB5  
                    l1741 04E8                      l1725 04B0                      l1717 049C  
                    l1709 0485                      l1661 03CA                      l1653 03B7  
                    l1645 03A7                      l1637 0394                      l1629 0385  
                    l1493 07BC                      l1485 0785                      l1477 0773  
                    l1469 0767                      l1389 05F8                      l1397 0608  
                    l1573 00F3                      l1565 00C6                      l1549 0F4A  
                    l1805 023A                      l1831 0FF9                      l1823 0FDA  
                    l1751 0531                      l1743 0501                      l1735 04D1  
                    l1727 04B1                      l1719 049D                      l1655 03BC  
                    l1663 03CC                      l1647 03AC                      l1639 039C  
                    l1495 07C5                      l1487 078A                      l1479 0777  
                    l1399 0609                      l1591 0137                      l1583 010C  
                    l1575 00F4                      l1567 00CA                      l1559 00A6  
                    l1807 023B                      l1825 0FE3                      l1761 054A  
                    l1753 0535                      l1737 04D6                      l1745 0507  
                    l1729 04B5                      l1681 0415                      l1665 03DC  
                    l1673 03F5                      l1657 03C1                      l1649 03B2  
                    l1497 07CA                      l1489 0798                      l1593 0138  
                    l1585 0119                      l1577 00FD                      l1569 00D3  
                    l1841 027D                      l1833 0EDE                      l1827 0FEB  
                    l1819 0FB6                      l1755 053D                      l1747 0514  
                    l1739 04E4                      l1691 0434                      l1683 041D  
                    l1675 03FA                      l1667 03E8                      l1659 03C9  
                    l1499 07D2                      l1595 0140                      l1579 0103  
                    l1771 0194                      l1843 02DF                      l1835 0EE3  
                    l1829 0FF5                      l1757 0544                      l1749 0522  
                    l1693 0446                      l1685 0425                      l1669 03EC  
                    l1597 0142                      l1589 0122                      l1781 01C2  
                    l1773 01A4                      l1845 0361                      l1861 0F0F  
                    l1853 0EFE                      l1759 0548                      l1695 044A  
                    l1687 042D                      l1679 0403                      l1599 0146  
                    l1791 01F8                      l1783 01CF                      l1775 01B4  
                    l1767 018B                      l1847 0369                      l1839 0244  
                    l1855 0EFF                      l1871 002D                      l1697 044B  
                    l1689 042F                      l1793 0203                      l1785 01D6  
                    l1769 0190                      l1849 0370                      l1929 0F17  
                    l1857 0F07                      l1873 0033                      l1881 0072  
                    l1699 0454                      l1795 0207                      l1787 01DA  
                    l1779 01BD                      l1867 001D                      l1891 009A  
                    l1883 0078                      l1875 0041                      l1797 0211  
                    l1789 01E8                      l1869 0020                      l1885 0084  
                    l1877 004B                      l1799 021B                      l1887 008C  
                    l1879 0066                      l1889 0094                      STR_1 0806  
                    STR_2 0812                      u2000 0485                      u1200 0577  
                    u2001 0484                      u1201 0576                      u2010 048D  
                    u1210 0595                      u2011 048C                      u1211 0594  
                    u2100 04E8                      u1300 0640                      u1220 05A0  
                    u2101 04E7                      u1301 063F                      u1221 059F  
                    u2110 04F7                      u2030 049C                      u1310 0651  
                    u1230 05A6                      u2031 049B                      u1311 0650  
                    u1231 05A5                      u2120 0514                      u1240 05AB  
                    u2121 0513                      u2025 0491                      u1241 05AA  
                    u2130 0531                      u2050 04B0                      u1410 06D0  
                    u1330 0667                      u1250 05C4                      u2210 01F7  
                    u2131 0530                      u2115 04F2                      u2051 04AF  
                    u1411 06CF                      u1331 0666                      u1251 05C3  
                    u2211 01F6                      u2140 0548                      u2060 04B5  
                    u1500 076C                      u1340 066B                      u1260 05C8  
                    u1180 056C                      u2141 0547                      u2125 0510  
                    u2061 04B4                      u2045 049F                      u1501 076B  
                    u1421 06E9                      u1413 06CC                      u1405 06AE  
                    u1341 066A                      u1325 0656                      u1261 05C7  
                    u1181 056B                      u2205 01E9                      u2310 0FFF  
                    u2070 04C9                      u1510 0772                      u1430 06FD  
                    u1422 06EA                      u1350 0670                      u1270 0620  
                    u1190 0572                      u2230 0207                      u2150 0190  
                    u2311 0FFE                      u2135 052D                      u2071 04C8  
                    u1511 0771                      u1431 06FE                      u1423 06EF  
                    u1351 066F                      u1271 061F                      u1191 0571  
                    u2231 0206                      u2151 018F                      u2080 04D0  
                    u1600 07CA                      u1520 0777                      u1440 071B  
                    u1432 0703                      u1424 06F0                      u1280 0629  
                    u2240 020D                      u2160 0194                      u2320 0040  
                    u2305 0FDC                      u2081 04CF                      u1601 07C9  
                    u1521 0776                      u1441 071A                      u1433 0704  
                    u1425 06F5                      u1361 0682                      u1281 0627  
                    u2241 020C                      u2225 01FC                      u2161 0193  
                    u2321 003F                      u2090 04D6                      u1610 07D7  
                    u1530 077D                      u1450 0740                      u1426 06F6  
                    u1370 0694                      u1362 0689                      u1290 062A  
                    u2250 0211                      u2170 01B4                      u2091 04D5  
                    u1611 07D6                      u1531 077C                      u1451 073F  
                    u1371 0693                      u1363 0690                      u1275 061C  
                    u2251 0210                      u2171 01B3                      u1620 07DC  
                    u1540 0784                      u1460 0745                      u1380 0698  
                    u1700 00CA                      u2260 0226                      u1621 07DB  
                    u1541 0783                      u1461 0744                      u1381 0697  
                    u1701 00C9                      u1630 07F1                      u1550 078A  
                    u1390 06A9                      u2270 0236                      u2190 01D5  
                    u2407 0FE6                      u1631 07F0                      u1551 0789  
                    u1391 06A8                      u2271 0235                      u2191 01D4  
                    u1560 079C                      u1480 075D                      u1800 015F  
                    u1720 00E5                      u1640 0F4A                      u2280 023A  
                    u2417 0FF0                      u1561 079B                      u1481 075C  
                    u1801 015E                      u1721 00E4                      u1641 0F49  
                    u2281 0239                      u2265 0221                      u2185 01C7  
                    u2290 0FB5                      u1570 07AD                      u1490 0762  
                    u1810 0166                      u2291 0FB4                      u1491 0761  
                    u1475 0752                      u1811 0165                      u1715 00CC  
                    u1900 03C1                      u1580 07BC                      u1740 0103  
                    u1901 03C0                      u1581 07BB                      u1741 0102  
                    u1725 00E1                      u2357 0F76                      u1910 03DC  
                    u1590 07C5                      u1830 0177                      u1750 0119  
                    u1670 0F64                      u1911 03DB                      u1591 07C4  
                    u1575 07A8                      u1831 0176                      u1751 0118  
                    u1735 00F5                      u1671 0F63                      u1655 0F51  
                    u2367 0F85                      u1920 03FA                      u1840 017C  
                    u1760 0130                      u1680 00B6                      u1921 03F9  
                    u1841 017B                      u1825 0169                      u1681 00B5  
                    u1665 0F58                      u2377 0F91                      u1930 0434  
                    u1850 0389                      u1770 0146                      u1931 0433  
                    u1851 0388                      u1771 0145                      u2387 0EF4  
                    u1860 038F                      u1780 014D                      u1861 038E  
                    u1781 014C                      u1765 012B                      u2397 0013  
                    u1870 0394                      u1871 0393                      u1695 00BB  
                    u1960 044A                      u1880 03B6                      u1961 0449  
                    u1945 0436                      u1881 03B5                      u1890 03BC  
                    u1955 043F                      u1891 03BB                      u1795 014F  
                    u1980 0466                      u1981 0465                      u1990 047B  
                    u1975 044D                      u1985 0462                      u1995 046E  
                    u1996 046F                      u1997 0474                      u1998 0475  
                    u1999 047A              __CFG_WRT$OFF 0000                      _main 0041  
                    _peso 005A                      btemp 007E                      start 0000  
           __CFG_IESO$OFF 0000           ___fldiv@new_exp 0025             ___fltol@sign1 003E  
         __end_of___fladd 07F3                     ?_main 0070           __end_of___fldiv 055B  
           __CFG_WDTE$OFF 0000           __end_of___flsub 0F44           __end_of___fltol 0188  
         __end_of___lldiv 010C                     _PORTB 0006                     _TRISB 0086  
                   _TRISD 0088            __CFG_FCMEN$OFF 0000                     _setup 0EDE  
          __CFG_BOREN$OFF 0000                     pclath 000A                     status 0003  
                   wtemp0 007E            __CFG_MCLRE$OFF 0000           __initialization 07F3  
            __end_of_main 00A6              lcd_wstring@i 0073                    ??_main 0057  
           lcd_wchar@dato 0072                    ?_setup 0070                    _ANSELH 0189  
        __end_of___xxtofl 0244            __CFG_PWRTE$OFF 0000      __size_of_lcd_command 0015  
           ?_int_distance 0040                 ??___fladd 0020                    ___wmul 0F44  
               ??___fldiv 0078                 ??___flsub 007E                 ??___fltol 0039  
               ??___lldiv 0078      __size_of_lcd_wstring 0025              ___xxtofl@arg 0022  
            ___xxtofl@exp 0021              ___xxtofl@val 0076   __end_of__initialization 07FC  
              ___fltol@f1 0035            ??_int_distance 0047            __pcstackCOMMON 0070  
      __size_of_celdaRead 0051             __end_of_setup 0EE9        __size_of_lcd_wchar 0014  
      __size_of_lcd_setup 0046                   ??_setup 0075                _celdaSetup 0ED5  
              __pbssBANK0 005A                __pmaintext 0041                   ?___wmul 0070  
          celdaRead@valor 0078                 ?___xxtofl 0076                _lcd_cursor 0EFD  
       __end_of_celdaRead 1000                __stringtab 0800                celdaRead@i 007C  
              celdaRead@v 0074         __end_of_lcd_wchar 0EFD         __end_of_lcd_setup 0FAF  
                 ___fladd 055B                   ___fldiv 0378                   ___flsub 0F20  
                 ___fltol 010C                   ___lldiv 00A6           __size_of___wmul 0025  
                 __ptext1 0EDE                   __ptext2 0F69                   __ptext3 0ED5  
                 __ptext4 001C                   __ptext5 0EE9                   __ptext6 0EFD  
                 __ptext7 0007                   __ptext8 0244                   __ptext9 0188  
              ??___xxtofl 007A      __end_of_int_distance 0378               ?_celdaSetup 0070  
    end_of_initialization 07FC         int_distance@valor 0040           ___lldiv@divisor 0070  
         ___lldiv@counter 007D                 _PORTAbits 0005                 _PORTDbits 0008  
             ___fladd@grs 007B             ___xxtofl@sign 0020                 _TRISAbits 0085  
             ?_lcd_cursor 0073               ___fldiv@grs 0027               ___fldiv@rem 0020  
           ??_lcd_command 0070            __end_of___wmul 0F69       __size_of_celdaSetup 0009  
           ??_lcd_wstring 0073       start_initialization 07F3  __CFG_FOSC$INTRC_NOCLKOUT 0000  
     __size_of_lcd_cursor 0023                  ??___wmul 0074       __end_of_lcd_command 001C  
               ___fladd@a 0074                 ___fladd@b 0070     __size_of_int_distance 0134  
               ___fldiv@a 0070                 ___fldiv@b 0074                 ___flsub@a 002D  
               ___flsub@b 0031                 ___latbits 0002             __pcstackBANK0 0020  
     __end_of_lcd_wstring 0041         __size_of___xxtofl 00BC                 _celdaRead 0FAF  
                ?___fladd 0070                  ?___fldiv 0070              _int_distance 0244  
                ?___flsub 002D                  ?___fltol 0035                  ?___lldiv 0070  
       lcd_wstring@string 0075                 __pstrings 0800                 _lcd_wchar 0EE9  
               _lcd_setup 0F69              ??_celdaSetup 0070            __size_of_setup 000B  
          ___wmul@product 0074                ?_celdaRead 0070          int_distance@conv 0051  
             _lcd_command 0007        __end_of_celdaSetup 0EDE                ?_lcd_wchar 0070  
              ?_lcd_setup 0070               __stringbase 0805               _lcd_wstring 001C  
       ___wmul@multiplier 0070              ??_lcd_cursor 0074        __end_of_lcd_cursor 0F20  
        __size_of___fladd 0298          __size_of___fldiv 01E3          __size_of___flsub 0024  
        __size_of___fltol 007C          __size_of___lldiv 0066        __end_of__stringtab 0806  
                ___xxtofl 0188                  __ptext10 0F44                  __ptext11 00A6  
                __ptext12 010C                  __ptext13 0F20                  __ptext14 055B  
                __ptext15 0378                  __ptext16 0FAF         __CFG_BOR4V$BOR40V 0000  
             ??_celdaRead 0070             __size_of_main 0065               ??_lcd_wchar 0070  
             ??_lcd_setup 0073          ___lldiv@dividend 0074                 stringcode 0800  
          int_distance@v1 0044            int_distance@v2 0045            int_distance@v3 0046  
        ___lldiv@quotient 0079                  stringdir 0800             int_distance@c 0056  
           int_distance@d 0055                  stringtab 0800             int_distance@u 0050  
           ___fladd@signs 0078              ___fladd@aexp 0079              ___fladd@bexp 007A  
            ?_lcd_command 0070  
