

Microchip MPLAB XC8 Assembler V2.10 build 88905656 
                                                                                               Sun Mar 15 11:39:07 2020

Microchip MPLAB XC8 C Compiler v2.10 (Free license) build 20190730164152 Og1 
     1                           	processor	16F887
     2                           	opt	pw 120
     3                           	opt	flic
     4                           	psect	idataBANK3,global,class=CODE,delta=2
     5                           	psect	nvBANK3,global,class=BANK3,space=1,delta=1
     6                           	psect	cinit,global,class=CODE,merge=1,delta=2
     7                           	psect	bssCOMMON,global,class=COMMON,space=1,delta=1
     8                           	psect	bssBANK0,global,class=BANK0,space=1,delta=1
     9                           	psect	dataBANK3,global,class=BANK3,space=1,delta=1
    10                           	psect	cstackBANK3,global,class=BANK3,space=1,delta=1
    11                           	psect	cstackBANK1,global,class=BANK1,space=1,delta=1
    12                           	psect	cstackCOMMON,global,class=COMMON,space=1,delta=1
    13                           	psect	cstackBANK0,global,class=BANK0,space=1,delta=1
    14                           	psect	maintext,global,class=CODE,split=1,delta=2
    15                           	psect	text1,local,class=CODE,merge=1,delta=2
    16                           	psect	text2,local,class=CODE,merge=1,delta=2,group=1
    17                           	psect	text3,local,class=CODE,merge=1,delta=2,group=1
    18                           	psect	text4,local,class=CODE,merge=1,delta=2,group=1
    19                           	psect	text5,local,class=CODE,merge=1,delta=2,group=1
    20                           	psect	text6,local,class=CODE,merge=1,delta=2
    21                           	psect	text7,local,class=CODE,merge=1,delta=2
    22                           	psect	text8,local,class=CODE,merge=1,delta=2
    23                           	psect	text9,local,class=CODE,merge=1,delta=2
    24                           	psect	text10,local,class=CODE,merge=1,delta=2,group=1
    25                           	psect	text11,local,class=CODE,merge=1,delta=2,group=1
    26                           	psect	text12,local,class=CODE,merge=1,delta=2,group=1
    27                           	psect	text13,local,class=CODE,merge=1,delta=2,group=1
    28                           	psect	text14,local,class=CODE,merge=1,delta=2,group=1
    29                           	psect	text15,local,class=CODE,merge=1,delta=2
    30                           	psect	text16,local,class=CODE,merge=1,delta=2
    31                           	psect	intentry,global,class=CODE,delta=2
    32                           	psect	text17,local,class=CODE,merge=1,delta=2
    33                           	dabs	1,0x7E,2
    34  0000                     
    35                           ; Version 2.10
    36                           ; Generated 31/07/2019 GMT
    37                           ; 
    38                           ; Copyright © 2019, Microchip Technology Inc. and its subsidiaries ("Microchip")
    39                           ; All rights reserved.
    40                           ; 
    41                           ; This software is developed by Microchip Technology Inc. and its subsidiaries ("Microch
      +                          ip").
    42                           ; 
    43                           ; Redistribution and use in source and binary forms, with or without modification, are
    44                           ; permitted provided that the following conditions are met:
    45                           ; 
    46                           ;     1. Redistributions of source code must retain the above copyright notice, this lis
      +                          t of
    47                           ;        conditions and the following disclaimer.
    48                           ; 
    49                           ;     2. Redistributions in binary form must reproduce the above copyright notice, this 
      +                          list
    50                           ;        of conditions and the following disclaimer in the documentation and/or other
    51                           ;        materials provided with the distribution.
    52                           ; 
    53                           ;     3. Microchip's name may not be used to endorse or promote products derived from th
      +                          is
    54                           ;        software without specific prior written permission.
    55                           ; 
    56                           ; THIS SOFTWARE IS PROVIDED BY MICROCHIP "AS IS" AND ANY EXPRESS OR IMPLIED WARRANTIES,
    57                           ; INCLUDING, BUT NOT LIMITED TO, THE IMPLIED WARRANTIES OF MERCHANTABILITY AND FITNESS F
      +                          OR
    58                           ; PURPOSE ARE DISCLAIMED.  IN NO EVENT SHALL MICROCHIP BE LIABLE FOR ANY DIRECT, INDIREC
      +                          T,
    59                           ; INCIDENTAL, SPECIAL, EXEMPLARY, OR CONSEQUENTIAL DAMAGES (INCLUDING BUT NOT LIMITED TO
    60                           ; PROCUREMENT OF SUBSTITUTE GOODS OR SERVICES; LOSS OF USE, DATA OR PROFITS; OR BUSINESS
    61                           ; INTERRUPTION) HOWSOEVER CAUSED AND ON ANY THEORY OF LIABILITY, WHETHER IN CONTRACT, ST
      +                          RICT
    62                           ; LIABILITY, OR TORT (INCLUDING NEGLIGENCE OR OTHERWISE) ARISING IN ANY WAY OUT OF THE U
      +                          SE OF
    63                           ; THIS SOFTWARE, EVEN IF ADVISED OF THE POSSIBILITY OF SUCH DAMAGE.
    64                           ; 
    65                           ; 
    66                           ; Code-generator required, PIC16F887 Definitions
    67                           ; 
    68                           ; SFR Addresses
    69  0000                     	;# 
    70  0001                     	;# 
    71  0002                     	;# 
    72  0003                     	;# 
    73  0004                     	;# 
    74  0005                     	;# 
    75  0006                     	;# 
    76  0007                     	;# 
    77  0008                     	;# 
    78  0009                     	;# 
    79  000A                     	;# 
    80  000B                     	;# 
    81  000C                     	;# 
    82  000D                     	;# 
    83  000E                     	;# 
    84  000E                     	;# 
    85  000F                     	;# 
    86  0010                     	;# 
    87  0011                     	;# 
    88  0012                     	;# 
    89  0013                     	;# 
    90  0014                     	;# 
    91  0015                     	;# 
    92  0015                     	;# 
    93  0016                     	;# 
    94  0017                     	;# 
    95  0018                     	;# 
    96  0019                     	;# 
    97  001A                     	;# 
    98  001B                     	;# 
    99  001B                     	;# 
   100  001C                     	;# 
   101  001D                     	;# 
   102  001E                     	;# 
   103  001F                     	;# 
   104  0081                     	;# 
   105  0085                     	;# 
   106  0086                     	;# 
   107  0087                     	;# 
   108  0088                     	;# 
   109  0089                     	;# 
   110  008C                     	;# 
   111  008D                     	;# 
   112  008E                     	;# 
   113  008F                     	;# 
   114  0090                     	;# 
   115  0091                     	;# 
   116  0092                     	;# 
   117  0093                     	;# 
   118  0093                     	;# 
   119  0093                     	;# 
   120  0094                     	;# 
   121  0095                     	;# 
   122  0096                     	;# 
   123  0097                     	;# 
   124  0098                     	;# 
   125  0099                     	;# 
   126  009A                     	;# 
   127  009B                     	;# 
   128  009C                     	;# 
   129  009D                     	;# 
   130  009E                     	;# 
   131  009F                     	;# 
   132  0105                     	;# 
   133  0107                     	;# 
   134  0108                     	;# 
   135  0109                     	;# 
   136  010C                     	;# 
   137  010C                     	;# 
   138  010D                     	;# 
   139  010E                     	;# 
   140  010F                     	;# 
   141  0185                     	;# 
   142  0187                     	;# 
   143  0188                     	;# 
   144  0189                     	;# 
   145  018C                     	;# 
   146  018D                     	;# 
   147  0000                     	;# 
   148  0001                     	;# 
   149  0002                     	;# 
   150  0003                     	;# 
   151  0004                     	;# 
   152  0005                     	;# 
   153  0006                     	;# 
   154  0007                     	;# 
   155  0008                     	;# 
   156  0009                     	;# 
   157  000A                     	;# 
   158  000B                     	;# 
   159  000C                     	;# 
   160  000D                     	;# 
   161  000E                     	;# 
   162  000E                     	;# 
   163  000F                     	;# 
   164  0010                     	;# 
   165  0011                     	;# 
   166  0012                     	;# 
   167  0013                     	;# 
   168  0014                     	;# 
   169  0015                     	;# 
   170  0015                     	;# 
   171  0016                     	;# 
   172  0017                     	;# 
   173  0018                     	;# 
   174  0019                     	;# 
   175  001A                     	;# 
   176  001B                     	;# 
   177  001B                     	;# 
   178  001C                     	;# 
   179  001D                     	;# 
   180  001E                     	;# 
   181  001F                     	;# 
   182  0081                     	;# 
   183  0085                     	;# 
   184  0086                     	;# 
   185  0087                     	;# 
   186  0088                     	;# 
   187  0089                     	;# 
   188  008C                     	;# 
   189  008D                     	;# 
   190  008E                     	;# 
   191  008F                     	;# 
   192  0090                     	;# 
   193  0091                     	;# 
   194  0092                     	;# 
   195  0093                     	;# 
   196  0093                     	;# 
   197  0093                     	;# 
   198  0094                     	;# 
   199  0095                     	;# 
   200  0096                     	;# 
   201  0097                     	;# 
   202  0098                     	;# 
   203  0099                     	;# 
   204  009A                     	;# 
   205  009B                     	;# 
   206  009C                     	;# 
   207  009D                     	;# 
   208  009E                     	;# 
   209  009F                     	;# 
   210  0105                     	;# 
   211  0107                     	;# 
   212  0108                     	;# 
   213  0109                     	;# 
   214  010C                     	;# 
   215  010C                     	;# 
   216  010D                     	;# 
   217  010E                     	;# 
   218  010F                     	;# 
   219  0185                     	;# 
   220  0187                     	;# 
   221  0188                     	;# 
   222  0189                     	;# 
   223  018C                     	;# 
   224  018D                     	;# 
   225  0000                     	;# 
   226  0001                     	;# 
   227  0002                     	;# 
   228  0003                     	;# 
   229  0004                     	;# 
   230  0005                     	;# 
   231  0006                     	;# 
   232  0007                     	;# 
   233  0008                     	;# 
   234  0009                     	;# 
   235  000A                     	;# 
   236  000B                     	;# 
   237  000C                     	;# 
   238  000D                     	;# 
   239  000E                     	;# 
   240  000E                     	;# 
   241  000F                     	;# 
   242  0010                     	;# 
   243  0011                     	;# 
   244  0012                     	;# 
   245  0013                     	;# 
   246  0014                     	;# 
   247  0015                     	;# 
   248  0015                     	;# 
   249  0016                     	;# 
   250  0017                     	;# 
   251  0018                     	;# 
   252  0019                     	;# 
   253  001A                     	;# 
   254  001B                     	;# 
   255  001B                     	;# 
   256  001C                     	;# 
   257  001D                     	;# 
   258  001E                     	;# 
   259  001F                     	;# 
   260  0081                     	;# 
   261  0085                     	;# 
   262  0086                     	;# 
   263  0087                     	;# 
   264  0088                     	;# 
   265  0089                     	;# 
   266  008C                     	;# 
   267  008D                     	;# 
   268  008E                     	;# 
   269  008F                     	;# 
   270  0090                     	;# 
   271  0091                     	;# 
   272  0092                     	;# 
   273  0093                     	;# 
   274  0093                     	;# 
   275  0093                     	;# 
   276  0094                     	;# 
   277  0095                     	;# 
   278  0096                     	;# 
   279  0097                     	;# 
   280  0098                     	;# 
   281  0099                     	;# 
   282  009A                     	;# 
   283  009B                     	;# 
   284  009C                     	;# 
   285  009D                     	;# 
   286  009E                     	;# 
   287  009F                     	;# 
   288  0105                     	;# 
   289  0107                     	;# 
   290  0108                     	;# 
   291  0109                     	;# 
   292  010C                     	;# 
   293  010C                     	;# 
   294  010D                     	;# 
   295  010E                     	;# 
   296  010F                     	;# 
   297  0185                     	;# 
   298  0187                     	;# 
   299  0188                     	;# 
   300  0189                     	;# 
   301  018C                     	;# 
   302  018D                     	;# 
   303  0000                     	;# 
   304  0001                     	;# 
   305  0002                     	;# 
   306  0003                     	;# 
   307  0004                     	;# 
   308  0005                     	;# 
   309  0006                     	;# 
   310  0007                     	;# 
   311  0008                     	;# 
   312  0009                     	;# 
   313  000A                     	;# 
   314  000B                     	;# 
   315  000C                     	;# 
   316  000D                     	;# 
   317  000E                     	;# 
   318  000E                     	;# 
   319  000F                     	;# 
   320  0010                     	;# 
   321  0011                     	;# 
   322  0012                     	;# 
   323  0013                     	;# 
   324  0014                     	;# 
   325  0015                     	;# 
   326  0015                     	;# 
   327  0016                     	;# 
   328  0017                     	;# 
   329  0018                     	;# 
   330  0019                     	;# 
   331  001A                     	;# 
   332  001B                     	;# 
   333  001B                     	;# 
   334  001C                     	;# 
   335  001D                     	;# 
   336  001E                     	;# 
   337  001F                     	;# 
   338  0081                     	;# 
   339  0085                     	;# 
   340  0086                     	;# 
   341  0087                     	;# 
   342  0088                     	;# 
   343  0089                     	;# 
   344  008C                     	;# 
   345  008D                     	;# 
   346  008E                     	;# 
   347  008F                     	;# 
   348  0090                     	;# 
   349  0091                     	;# 
   350  0092                     	;# 
   351  0093                     	;# 
   352  0093                     	;# 
   353  0093                     	;# 
   354  0094                     	;# 
   355  0095                     	;# 
   356  0096                     	;# 
   357  0097                     	;# 
   358  0098                     	;# 
   359  0099                     	;# 
   360  009A                     	;# 
   361  009B                     	;# 
   362  009C                     	;# 
   363  009D                     	;# 
   364  009E                     	;# 
   365  009F                     	;# 
   366  0105                     	;# 
   367  0107                     	;# 
   368  0108                     	;# 
   369  0109                     	;# 
   370  010C                     	;# 
   371  010C                     	;# 
   372  010D                     	;# 
   373  010E                     	;# 
   374  010F                     	;# 
   375  0185                     	;# 
   376  0187                     	;# 
   377  0188                     	;# 
   378  0189                     	;# 
   379  018C                     	;# 
   380  018D                     	;# 
   381  0000                     	;# 
   382  0001                     	;# 
   383  0002                     	;# 
   384  0003                     	;# 
   385  0004                     	;# 
   386  0005                     	;# 
   387  0006                     	;# 
   388  0007                     	;# 
   389  0008                     	;# 
   390  0009                     	;# 
   391  000A                     	;# 
   392  000B                     	;# 
   393  000C                     	;# 
   394  000D                     	;# 
   395  000E                     	;# 
   396  000E                     	;# 
   397  000F                     	;# 
   398  0010                     	;# 
   399  0011                     	;# 
   400  0012                     	;# 
   401  0013                     	;# 
   402  0014                     	;# 
   403  0015                     	;# 
   404  0015                     	;# 
   405  0016                     	;# 
   406  0017                     	;# 
   407  0018                     	;# 
   408  0019                     	;# 
   409  001A                     	;# 
   410  001B                     	;# 
   411  001B                     	;# 
   412  001C                     	;# 
   413  001D                     	;# 
   414  001E                     	;# 
   415  001F                     	;# 
   416  0081                     	;# 
   417  0085                     	;# 
   418  0086                     	;# 
   419  0087                     	;# 
   420  0088                     	;# 
   421  0089                     	;# 
   422  008C                     	;# 
   423  008D                     	;# 
   424  008E                     	;# 
   425  008F                     	;# 
   426  0090                     	;# 
   427  0091                     	;# 
   428  0092                     	;# 
   429  0093                     	;# 
   430  0093                     	;# 
   431  0093                     	;# 
   432  0094                     	;# 
   433  0095                     	;# 
   434  0096                     	;# 
   435  0097                     	;# 
   436  0098                     	;# 
   437  0099                     	;# 
   438  009A                     	;# 
   439  009B                     	;# 
   440  009C                     	;# 
   441  009D                     	;# 
   442  009E                     	;# 
   443  009F                     	;# 
   444  0105                     	;# 
   445  0107                     	;# 
   446  0108                     	;# 
   447  0109                     	;# 
   448  010C                     	;# 
   449  010C                     	;# 
   450  010D                     	;# 
   451  010E                     	;# 
   452  010F                     	;# 
   453  0185                     	;# 
   454  0187                     	;# 
   455  0188                     	;# 
   456  0189                     	;# 
   457  018C                     	;# 
   458  018D                     	;# 
   459                           
   460                           	psect	idataBANK3
   461  07F8                     __pidataBANK3:	
   462                           
   463                           ;initializer for _lambda
   464  07F8  3433               	retlw	51
   465  07F9  3433               	retlw	51
   466  07FA  34B3               	retlw	179
   467  07FB  343E               	retlw	62
   468                           
   469                           	psect	nvBANK3
   470  0190                     __pnvBANK3:	
   471  0190                     _tare:	
   472  0190                     	ds	4
   473  0194                     _peso_pasado:	
   474  0194                     	ds	4
   475  0198                     _peso:	
   476  0198                     	ds	4
   477  0014                     _SSPCON	set	20
   478  0006                     _PORTB	set	6
   479  0008                     _PORTDbits	set	8
   480  000B                     _INTCON	set	11
   481  0013                     _SSPBUF	set	19
   482  0014                     _SSPCONbits	set	20
   483  000C                     _PIR1bits	set	12
   484  0005                     _PORTAbits	set	5
   485  0063                     _SSPIF	set	99
   486  005E                     _PEIE	set	94
   487  005F                     _GIE	set	95
   488  0091                     _SSPCON2bits	set	145
   489  0087                     _TRISCbits	set	135
   490  0094                     _SSPSTAT	set	148
   491  0093                     _SSPADD	set	147
   492  0091                     _SSPCON2	set	145
   493  0088                     _TRISD	set	136
   494  0086                     _TRISB	set	134
   495  0094                     _SSPSTATbits	set	148
   496  0085                     _TRISAbits	set	133
   497  0463                     _SSPIE	set	1123
   498  043C                     _TRISC4	set	1084
   499  043B                     _TRISC3	set	1083
   500  04A0                     _BF	set	1184
   501  0189                     _ANSELH	set	393
   502  0188                     _ANSEL	set	392
   503                           
   504                           ; #config settings
   505  0000                     
   506                           	psect	cinit
   507  0013                     start_initialization:	
   508  0013                     __initialization:	
   509                           
   510                           ; Initialize objects allocated to BANK3
   511  0013  1683               	bsf	3,5	;RP0=1, select bank3
   512  0014  1703               	bsf	3,6	;RP1=1, select bank3
   513  0015  120A  118A  27F8  120A  118A  	fcall	__pidataBANK3	;fetch initializer
   514  001A  00A1               	movwf	__pdataBANK3& (0+127)
   515  001B  120A  118A  27F9  120A  118A  	fcall	__pidataBANK3+1	;fetch initializer
   516  0020  00A2               	movwf	(__pdataBANK3+1)& (0+127)
   517  0021  120A  118A  27FA  120A  118A  	fcall	__pidataBANK3+2	;fetch initializer
   518  0026  00A3               	movwf	(__pdataBANK3+2)& (0+127)
   519  0027  120A  118A  27FB  120A  118A  	fcall	__pidataBANK3+3	;fetch initializer
   520  002C  00A4               	movwf	(__pdataBANK3+3)& (0+127)
   521                           
   522                           ; Clear objects allocated to BANK0
   523  002D  1283               	bcf	3,5	;RP0=0, select bank0
   524  002E  1303               	bcf	3,6	;RP1=0, select bank0
   525  002F  01E1               	clrf	__pbssBANK0& (0+127)
   526  0030  01E2               	clrf	(__pbssBANK0+1)& (0+127)
   527  0031  01E3               	clrf	(__pbssBANK0+2)& (0+127)
   528  0032  01E4               	clrf	(__pbssBANK0+3)& (0+127)
   529  0033  01E5               	clrf	(__pbssBANK0+4)& (0+127)
   530  0034  01E6               	clrf	(__pbssBANK0+5)& (0+127)
   531                           
   532                           ; Clear objects allocated to COMMON
   533  0035  01F0               	clrf	__pbssCOMMON& (0+127)
   534  0036  01F1               	clrf	(__pbssCOMMON+1)& (0+127)
   535  0037  01F2               	clrf	(__pbssCOMMON+2)& (0+127)
   536  0038  01F3               	clrf	(__pbssCOMMON+3)& (0+127)
   537  0039  01F4               	clrf	(__pbssCOMMON+4)& (0+127)
   538  003A  01F5               	clrf	(__pbssCOMMON+5)& (0+127)
   539  003B  01F6               	clrf	(__pbssCOMMON+6)& (0+127)
   540  003C                     end_of_initialization:	
   541                           ;End of C runtime variable initialization code
   542                           
   543  003C                     __end_of__initialization:	
   544  003C  0183               	clrf	3
   545  003D  120A  158A  2A02   	ljmp	_main	;jump to C main() function
   546                           
   547                           	psect	bssCOMMON
   548  0070                     __pbssCOMMON:	
   549  0070                     _mandar:	
   550  0070                     	ds	1
   551  0071                     _u1:	
   552  0071                     	ds	1
   553  0072                     _d1:	
   554  0072                     	ds	1
   555  0073                     _c1:	
   556  0073                     	ds	1
   557  0074                     _m1:	
   558  0074                     	ds	1
   559  0075                     _b1:	
   560  0075                     	ds	1
   561  0076                     _contador:	
   562  0076                     	ds	1
   563                           
   564                           	psect	bssBANK0
   565  0061                     __pbssBANK0:	
   566  0061                     _peso1:	
   567  0061                     	ds	4
   568  0065                     _z:	
   569  0065                     	ds	1
   570  0066                     _borrar:	
   571  0066                     	ds	1
   572                           
   573                           	psect	dataBANK3
   574  01A1                     __pdataBANK3:	
   575  01A1                     _lambda:	
   576  01A1                     	ds	4
   577                           
   578                           	psect	cstackBANK3
   579  019C                     __pcstackBANK3:	
   580  019C                     ??_main:	
   581                           
   582                           ; 1 bytes @ 0x0
   583  019C                     	ds	5
   584                           
   585                           	psect	cstackBANK1
   586  00A0                     __pcstackBANK1:	
   587  00A0                     ___flmul@sign:	
   588                           
   589                           ; 1 bytes @ 0x0
   590  00A0                     	ds	1
   591  00A1                     ___flmul@aexp:	
   592                           
   593                           ; 1 bytes @ 0x1
   594  00A1                     	ds	1
   595  00A2                     ___flmul@grs:	
   596                           
   597                           ; 4 bytes @ 0x2
   598  00A2                     	ds	4
   599  00A6                     ___flmul@bexp:	
   600                           
   601                           ; 1 bytes @ 0x6
   602  00A6                     	ds	1
   603  00A7                     ___flmul@prod:	
   604                           
   605                           ; 4 bytes @ 0x7
   606  00A7                     	ds	4
   607  00AB                     ___flmul@temp:	
   608                           
   609                           ; 2 bytes @ 0xB
   610  00AB                     	ds	2
   611  00AD                     ?___fladd:	
   612  00AD                     ___fladd@b:	
   613                           ; 4 bytes @ 0xD
   614                           
   615                           
   616                           ; 4 bytes @ 0xD
   617  00AD                     	ds	4
   618  00B1                     ___fladd@a:	
   619                           
   620                           ; 4 bytes @ 0x11
   621  00B1                     	ds	4
   622  00B5                     ?___flsub:	
   623  00B5                     ___flsub@a:	
   624                           ; 4 bytes @ 0x15
   625                           
   626                           
   627                           ; 4 bytes @ 0x15
   628  00B5                     	ds	4
   629  00B9                     ___flsub@b:	
   630                           
   631                           ; 4 bytes @ 0x19
   632  00B9                     	ds	4
   633  00BD                     ?___fltol:	
   634  00BD                     ___fltol@f1:	
   635                           ; 4 bytes @ 0x1D
   636                           
   637                           
   638                           ; 4 bytes @ 0x1D
   639  00BD                     	ds	4
   640  00C1                     ??___fltol:	
   641                           
   642                           ; 1 bytes @ 0x21
   643  00C1                     	ds	5
   644  00C6                     ___fltol@sign1:	
   645                           
   646                           ; 1 bytes @ 0x26
   647  00C6                     	ds	1
   648  00C7                     ___fltol@exp1:	
   649                           
   650                           ; 1 bytes @ 0x27
   651  00C7                     	ds	1
   652  00C8                     ?_weight:	
   653  00C8                     ?_tarar:	
   654                           ; 1 bytes @ 0x28
   655                           
   656  00C8                     weight@valor:	
   657                           ; 4 bytes @ 0x28
   658                           
   659                           
   660                           ; 4 bytes @ 0x28
   661  00C8                     	ds	4
   662  00CC                     ??_tarar:	
   663  00CC                     weight@tare:	
   664                           ; 1 bytes @ 0x2C
   665                           
   666                           
   667                           ; 4 bytes @ 0x2C
   668  00CC                     	ds	1
   669  00CD                     tarar@pasado:	
   670                           
   671                           ; 4 bytes @ 0x2D
   672  00CD                     	ds	3
   673  00D0                     weight@v4:	
   674                           
   675                           ; 1 bytes @ 0x30
   676  00D0                     	ds	1
   677  00D1                     weight@v0:	
   678  00D1                     tarar@total:	
   679                           ; 1 bytes @ 0x31
   680                           
   681                           
   682                           ; 4 bytes @ 0x31
   683  00D1                     	ds	1
   684  00D2                     weight@v1:	
   685                           
   686                           ; 1 bytes @ 0x32
   687  00D2                     	ds	1
   688  00D3                     weight@v2:	
   689                           
   690                           ; 1 bytes @ 0x33
   691  00D3                     	ds	1
   692  00D4                     weight@v3:	
   693                           
   694                           ; 1 bytes @ 0x34
   695  00D4                     	ds	1
   696  00D5                     ??_weight:	
   697  00D5                     tarar@i:	
   698                           ; 1 bytes @ 0x35
   699                           
   700                           
   701                           ; 1 bytes @ 0x35
   702  00D5                     	ds	1
   703  00D6                     ?_celdaSetup:	
   704                           
   705                           ; 4 bytes @ 0x36
   706  00D6                     	ds	4
   707  00DA                     ??_celdaSetup:	
   708                           
   709                           ; 1 bytes @ 0x3A
   710  00DA                     	ds	3
   711  00DD                     celdaSetup@tare:	
   712                           
   713                           ; 4 bytes @ 0x3D
   714  00DD                     	ds	9
   715  00E6                     weight@u:	
   716                           
   717                           ; 1 bytes @ 0x46
   718  00E6                     	ds	1
   719  00E7                     weight@d:	
   720                           
   721                           ; 1 bytes @ 0x47
   722  00E7                     	ds	1
   723  00E8                     weight@c:	
   724                           
   725                           ; 1 bytes @ 0x48
   726  00E8                     	ds	1
   727  00E9                     weight@m:	
   728                           
   729                           ; 1 bytes @ 0x49
   730  00E9                     	ds	1
   731  00EA                     weight@b:	
   732                           
   733                           ; 1 bytes @ 0x4A
   734  00EA                     	ds	1
   735  00EB                     weight@conv:	
   736                           
   737                           ; 4 bytes @ 0x4B
   738  00EB                     	ds	4
   739                           
   740                           	psect	cstackCOMMON
   741  0077                     __pcstackCOMMON:	
   742  0077                     ?_select:	
   743  0077                     ?_setup:	
   744                           ; 1 bytes @ 0x0
   745                           
   746  0077                     ?_I2C_Slave_Init:	
   747                           ; 1 bytes @ 0x0
   748                           
   749  0077                     ?_isr:	
   750                           ; 1 bytes @ 0x0
   751                           
   752  0077                     ?_main:	
   753                           ; 1 bytes @ 0x0
   754                           
   755  0077                     select@b:	
   756                           ; 1 bytes @ 0x0
   757                           
   758                           
   759                           ; 1 bytes @ 0x0
   760  0077                     	ds	1
   761  0078                     select@c:	
   762                           
   763                           ; 1 bytes @ 0x1
   764  0078                     	ds	1
   765  0079                     select@d:	
   766                           
   767                           ; 1 bytes @ 0x2
   768  0079                     	ds	1
   769  007A                     select@e:	
   770                           
   771                           ; 1 bytes @ 0x3
   772  007A                     	ds	1
   773  007B                     select@contador:	
   774                           
   775                           ; 1 bytes @ 0x4
   776  007B                     	ds	1
   777  007C                     ??_select:	
   778                           
   779                           ; 1 bytes @ 0x5
   780  007C                     	ds	1
   781  007D                     select@a:	
   782                           
   783                           ; 1 bytes @ 0x6
   784  007D                     	ds	1
   785                           
   786                           	psect	cstackBANK0
   787  0020                     __pcstackBANK0:	
   788  0020                     ??_isr:	
   789                           
   790                           ; 1 bytes @ 0x0
   791  0020                     	ds	9
   792  0029                     ?___flge:	
   793  0029                     ??_I2C_Slave_Init:	
   794                           ; 1 bit 
   795                           
   796  0029                     ?__Umul8_16:	
   797                           ; 1 bytes @ 0x9
   798                           
   799  0029                     ?___wmul:	
   800                           ; 2 bytes @ 0x9
   801                           
   802  0029                     ?_celdaRead:	
   803                           ; 2 bytes @ 0x9
   804                           
   805  0029                     ?___fldiv:	
   806                           ; 4 bytes @ 0x9
   807                           
   808  0029                     I2C_Slave_Init@address:	
   809                           ; 4 bytes @ 0x9
   810                           
   811  0029                     __Umul8_16@multiplicand:	
   812                           ; 1 bytes @ 0x9
   813                           
   814  0029                     ___wmul@multiplier:	
   815                           ; 1 bytes @ 0x9
   816                           
   817  0029                     ___flge@ff1:	
   818                           ; 2 bytes @ 0x9
   819                           
   820  0029                     ___fldiv@a:	
   821                           ; 4 bytes @ 0x9
   822                           
   823                           
   824                           ; 4 bytes @ 0x9
   825  0029                     	ds	2
   826  002B                     ??__Umul8_16:	
   827  002B                     ___wmul@multiplicand:	
   828                           ; 1 bytes @ 0xB
   829                           
   830                           
   831                           ; 2 bytes @ 0xB
   832  002B                     	ds	2
   833  002D                     ??_celdaRead:	
   834  002D                     ??___wmul:	
   835                           ; 1 bytes @ 0xD
   836                           
   837  002D                     ___wmul@product:	
   838                           ; 1 bytes @ 0xD
   839                           
   840  002D                     __Umul8_16@product:	
   841                           ; 2 bytes @ 0xD
   842                           
   843  002D                     ___flge@ff2:	
   844                           ; 2 bytes @ 0xD
   845                           
   846  002D                     ___fldiv@b:	
   847                           ; 4 bytes @ 0xD
   848                           
   849                           
   850                           ; 4 bytes @ 0xD
   851  002D                     	ds	2
   852  002F                     __Umul8_16@word_mpld:	
   853                           
   854                           ; 2 bytes @ 0xF
   855  002F                     	ds	2
   856  0031                     ??___flge:	
   857  0031                     ??___fldiv:	
   858                           ; 1 bytes @ 0x11
   859                           
   860  0031                     __Umul8_16@multiplier:	
   861                           ; 1 bytes @ 0x11
   862                           
   863  0031                     celdaRead@v:	
   864                           ; 1 bytes @ 0x11
   865                           
   866                           
   867                           ; 4 bytes @ 0x11
   868  0031                     	ds	4
   869  0035                     celdaRead@i:	
   870                           
   871                           ; 1 bytes @ 0x15
   872  0035                     	ds	1
   873  0036                     celdaRead@valor:	
   874  0036                     ___fldiv@rem:	
   875                           ; 4 bytes @ 0x16
   876                           
   877                           
   878                           ; 4 bytes @ 0x16
   879  0036                     	ds	4
   880  003A                     ?___xxtofl:	
   881  003A                     ___fldiv@sign:	
   882                           ; 4 bytes @ 0x1A
   883                           
   884  003A                     ___xxtofl@val:	
   885                           ; 1 bytes @ 0x1A
   886                           
   887                           
   888                           ; 4 bytes @ 0x1A
   889  003A                     	ds	1
   890  003B                     ___fldiv@new_exp:	
   891                           
   892                           ; 2 bytes @ 0x1B
   893  003B                     	ds	2
   894  003D                     ___fldiv@grs:	
   895                           
   896                           ; 4 bytes @ 0x1D
   897  003D                     	ds	1
   898  003E                     ??___xxtofl:	
   899                           
   900                           ; 1 bytes @ 0x1E
   901  003E                     	ds	3
   902  0041                     ___fldiv@bexp:	
   903                           
   904                           ; 1 bytes @ 0x21
   905  0041                     	ds	1
   906  0042                     ___fldiv@aexp:	
   907  0042                     ___xxtofl@sign:	
   908                           ; 1 bytes @ 0x22
   909                           
   910                           
   911                           ; 1 bytes @ 0x22
   912  0042                     	ds	1
   913  0043                     ___xxtofl@exp:	
   914                           
   915                           ; 1 bytes @ 0x23
   916  0043                     	ds	1
   917  0044                     ___xxtofl@arg:	
   918                           
   919                           ; 4 bytes @ 0x24
   920  0044                     	ds	4
   921  0048                     ?___flmul:	
   922  0048                     ___flmul@b:	
   923                           ; 4 bytes @ 0x28
   924                           
   925                           
   926                           ; 4 bytes @ 0x28
   927  0048                     	ds	4
   928  004C                     ___flmul@a:	
   929                           
   930                           ; 4 bytes @ 0x2C
   931  004C                     	ds	4
   932  0050                     ??___flmul:	
   933                           
   934                           ; 1 bytes @ 0x30
   935  0050                     	ds	5
   936  0055                     ??___fladd:	
   937                           
   938                           ; 1 bytes @ 0x35
   939  0055                     	ds	8
   940  005D                     ___fladd@signs:	
   941                           
   942                           ; 1 bytes @ 0x3D
   943  005D                     	ds	1
   944  005E                     ___fladd@aexp:	
   945                           
   946                           ; 1 bytes @ 0x3E
   947  005E                     	ds	1
   948  005F                     ___fladd@bexp:	
   949                           
   950                           ; 1 bytes @ 0x3F
   951  005F                     	ds	1
   952  0060                     ___fladd@grs:	
   953                           
   954                           ; 1 bytes @ 0x40
   955  0060                     	ds	1
   956  0061                     ??_setup:	
   957  0061                     ??___flsub:	
   958                           ; 1 bytes @ 0x41
   959                           
   960                           
   961                           	psect	maintext
   962  0A02                     __pmaintext:	
   963                           ; 1 bytes @ 0x41
   964 ;;
   965 ;;Main: autosize = 0, tempsize = 5, incstack = 0, save=0
   966 ;;
   967 ;; *************** function _main *****************
   968 ;; Defined at:
   969 ;;		line 94 in file "main.c"
   970 ;; Parameters:    Size  Location     Type
   971 ;;		None
   972 ;; Auto vars:     Size  Location     Type
   973 ;;		None
   974 ;; Return value:  Size  Location     Type
   975 ;;                  1    wreg      void 
   976 ;; Registers used:
   977 ;;		wreg, fsr0l, fsr0h, status,2, status,0, btemp+1, pclath, cstack
   978 ;; Tracked objects:
   979 ;;		On entry : B00/0
   980 ;;		On exit  : 0/0
   981 ;;		Unchanged: 0/0
   982 ;; Data sizes:     COMMON   BANK0   BANK1   BANK3   BANK2
   983 ;;      Params:         0       0       0       0       0
   984 ;;      Locals:         0       0       0       0       0
   985 ;;      Temps:          0       0       0       5       0
   986 ;;      Totals:         0       0       0       5       0
   987 ;;Total ram usage:        5 bytes
   988 ;; Hardware stack levels required when called:    7
   989 ;; This function calls:
   990 ;;		___fladd
   991 ;;		___flmul
   992 ;;		___fltol
   993 ;;		___xxtofl
   994 ;;		_celdaRead
   995 ;;		_setup
   996 ;;		_weight
   997 ;; This function is called by:
   998 ;;		Startup code after reset
   999 ;; This function uses a non-reentrant model
  1000 ;;
  1001                           
  1002                           
  1003                           ;psect for function _main
  1004  0A02                     _main:	
  1005  0A02                     l3001:	
  1006                           ;incstack = 0
  1007                           ; Regs used in _main: [wreg-fsr0h+status,2+status,0+btemp+1+pclath+cstack]
  1008                           
  1009                           
  1010                           ;main.c: 95:     setup();
  1011  0A02  160A  118A  227B  120A  158A  	fcall	_setup
  1012  0A07                     l3003:	
  1013                           
  1014                           ;main.c: 97:         peso_pasado = peso;
  1015  0A07  1683               	bsf	3,5	;RP0=1, select bank3
  1016  0A08  1703               	bsf	3,6	;RP1=1, select bank3
  1017  0A09  081B               	movf	(_peso+3)^(0+384),w
  1018  0A0A  0097               	movwf	(_peso_pasado+3)^(0+384)
  1019  0A0B  081A               	movf	(_peso+2)^(0+384),w
  1020  0A0C  0096               	movwf	(_peso_pasado+2)^(0+384)
  1021  0A0D  0819               	movf	(_peso+1)^(0+384),w
  1022  0A0E  0095               	movwf	(_peso_pasado+1)^(0+384)
  1023  0A0F  0818               	movf	_peso^(0+384),w
  1024  0A10  0094               	movwf	_peso_pasado^(0+384)
  1025  0A11                     l3005:	
  1026                           
  1027                           ;main.c: 98:         peso = (1-lambda)*celdaRead()+lambda*peso_pasado;
  1028  0A11  120A  118A  277C  120A  158A  	fcall	_celdaRead
  1029  0A16  1283               	bcf	3,5	;RP0=0, select bank0
  1030  0A17  1303               	bcf	3,6	;RP1=0, select bank0
  1031  0A18  082C               	movf	?_celdaRead+3,w
  1032  0A19  00BD               	movwf	___xxtofl@val+3
  1033  0A1A  082B               	movf	?_celdaRead+2,w
  1034  0A1B  00BC               	movwf	___xxtofl@val+2
  1035  0A1C  082A               	movf	?_celdaRead+1,w
  1036  0A1D  00BB               	movwf	___xxtofl@val+1
  1037  0A1E  0829               	movf	?_celdaRead,w
  1038  0A1F  00BA               	movwf	___xxtofl@val
  1039  0A20  3000               	movlw	0
  1040  0A21  120A  158A  2060  120A  158A  	fcall	___xxtofl
  1041  0A26  1283               	bcf	3,5	;RP0=0, select bank0
  1042  0A27  1303               	bcf	3,6	;RP1=0, select bank0
  1043  0A28  083D               	movf	?___xxtofl+3,w
  1044  0A29  00CF               	movwf	___flmul@a+3
  1045  0A2A  083C               	movf	?___xxtofl+2,w
  1046  0A2B  00CE               	movwf	___flmul@a+2
  1047  0A2C  083B               	movf	?___xxtofl+1,w
  1048  0A2D  00CD               	movwf	___flmul@a+1
  1049  0A2E  083A               	movf	?___xxtofl,w
  1050  0A2F  00CC               	movwf	___flmul@a
  1051  0A30  303F               	movlw	63
  1052  0A31  00CB               	movwf	___flmul@b+3
  1053  0A32  3026               	movlw	38
  1054  0A33  00CA               	movwf	___flmul@b+2
  1055  0A34  3066               	movlw	102
  1056  0A35  00C9               	movwf	___flmul@b+1
  1057  0A36  3066               	movlw	102
  1058  0A37  00C8               	movwf	___flmul@b
  1059  0A38  120A  118A  2040  120A  158A  	fcall	___flmul
  1060  0A3D  1283               	bcf	3,5	;RP0=0, select bank0
  1061  0A3E  1303               	bcf	3,6	;RP1=0, select bank0
  1062  0A3F  084B               	movf	?___flmul+3,w
  1063  0A40  1683               	bsf	3,5	;RP0=1, select bank1
  1064  0A41  1303               	bcf	3,6	;RP1=0, select bank1
  1065  0A42  00B4               	movwf	(___fladd@a+3)^(0+128)
  1066  0A43  1283               	bcf	3,5	;RP0=0, select bank0
  1067  0A44  1303               	bcf	3,6	;RP1=0, select bank0
  1068  0A45  084A               	movf	?___flmul+2,w
  1069  0A46  1683               	bsf	3,5	;RP0=1, select bank1
  1070  0A47  1303               	bcf	3,6	;RP1=0, select bank1
  1071  0A48  00B3               	movwf	(___fladd@a+2)^(0+128)
  1072  0A49  1283               	bcf	3,5	;RP0=0, select bank0
  1073  0A4A  1303               	bcf	3,6	;RP1=0, select bank0
  1074  0A4B  0849               	movf	?___flmul+1,w
  1075  0A4C  1683               	bsf	3,5	;RP0=1, select bank1
  1076  0A4D  1303               	bcf	3,6	;RP1=0, select bank1
  1077  0A4E  00B2               	movwf	(___fladd@a+1)^(0+128)
  1078  0A4F  1283               	bcf	3,5	;RP0=0, select bank0
  1079  0A50  1303               	bcf	3,6	;RP1=0, select bank0
  1080  0A51  0848               	movf	?___flmul,w
  1081  0A52  1683               	bsf	3,5	;RP0=1, select bank1
  1082  0A53  1303               	bcf	3,6	;RP1=0, select bank1
  1083  0A54  00B1               	movwf	___fladd@a^(0+128)
  1084  0A55  1683               	bsf	3,5	;RP0=1, select bank3
  1085  0A56  1703               	bsf	3,6	;RP1=1, select bank3
  1086  0A57  0817               	movf	(_peso_pasado+3)^(0+384),w
  1087  0A58  1283               	bcf	3,5	;RP0=0, select bank0
  1088  0A59  1303               	bcf	3,6	;RP1=0, select bank0
  1089  0A5A  00BD               	movwf	___xxtofl@val+3
  1090  0A5B  1683               	bsf	3,5	;RP0=1, select bank3
  1091  0A5C  1703               	bsf	3,6	;RP1=1, select bank3
  1092  0A5D  0816               	movf	(_peso_pasado+2)^(0+384),w
  1093  0A5E  1283               	bcf	3,5	;RP0=0, select bank0
  1094  0A5F  1303               	bcf	3,6	;RP1=0, select bank0
  1095  0A60  00BC               	movwf	___xxtofl@val+2
  1096  0A61  1683               	bsf	3,5	;RP0=1, select bank3
  1097  0A62  1703               	bsf	3,6	;RP1=1, select bank3
  1098  0A63  0815               	movf	(_peso_pasado+1)^(0+384),w
  1099  0A64  1283               	bcf	3,5	;RP0=0, select bank0
  1100  0A65  1303               	bcf	3,6	;RP1=0, select bank0
  1101  0A66  00BB               	movwf	___xxtofl@val+1
  1102  0A67  1683               	bsf	3,5	;RP0=1, select bank3
  1103  0A68  1703               	bsf	3,6	;RP1=1, select bank3
  1104  0A69  0814               	movf	_peso_pasado^(0+384),w
  1105  0A6A  1283               	bcf	3,5	;RP0=0, select bank0
  1106  0A6B  1303               	bcf	3,6	;RP1=0, select bank0
  1107  0A6C  00BA               	movwf	___xxtofl@val
  1108  0A6D  3000               	movlw	0
  1109  0A6E  120A  158A  2060  120A  158A  	fcall	___xxtofl
  1110  0A73  1283               	bcf	3,5	;RP0=0, select bank0
  1111  0A74  1303               	bcf	3,6	;RP1=0, select bank0
  1112  0A75  083D               	movf	?___xxtofl+3,w
  1113  0A76  00CF               	movwf	___flmul@a+3
  1114  0A77  083C               	movf	?___xxtofl+2,w
  1115  0A78  00CE               	movwf	___flmul@a+2
  1116  0A79  083B               	movf	?___xxtofl+1,w
  1117  0A7A  00CD               	movwf	___flmul@a+1
  1118  0A7B  083A               	movf	?___xxtofl,w
  1119  0A7C  00CC               	movwf	___flmul@a
  1120  0A7D  303E               	movlw	62
  1121  0A7E  00CB               	movwf	___flmul@b+3
  1122  0A7F  30B3               	movlw	179
  1123  0A80  00CA               	movwf	___flmul@b+2
  1124  0A81  3033               	movlw	51
  1125  0A82  00C9               	movwf	___flmul@b+1
  1126  0A83  3033               	movlw	51
  1127  0A84  00C8               	movwf	___flmul@b
  1128  0A85  120A  118A  2040  120A  158A  	fcall	___flmul
  1129  0A8A  1283               	bcf	3,5	;RP0=0, select bank0
  1130  0A8B  1303               	bcf	3,6	;RP1=0, select bank0
  1131  0A8C  084B               	movf	?___flmul+3,w
  1132  0A8D  1683               	bsf	3,5	;RP0=1, select bank1
  1133  0A8E  1303               	bcf	3,6	;RP1=0, select bank1
  1134  0A8F  00B0               	movwf	(___fladd@b+3)^(0+128)
  1135  0A90  1283               	bcf	3,5	;RP0=0, select bank0
  1136  0A91  1303               	bcf	3,6	;RP1=0, select bank0
  1137  0A92  084A               	movf	?___flmul+2,w
  1138  0A93  1683               	bsf	3,5	;RP0=1, select bank1
  1139  0A94  1303               	bcf	3,6	;RP1=0, select bank1
  1140  0A95  00AF               	movwf	(___fladd@b+2)^(0+128)
  1141  0A96  1283               	bcf	3,5	;RP0=0, select bank0
  1142  0A97  1303               	bcf	3,6	;RP1=0, select bank0
  1143  0A98  0849               	movf	?___flmul+1,w
  1144  0A99  1683               	bsf	3,5	;RP0=1, select bank1
  1145  0A9A  1303               	bcf	3,6	;RP1=0, select bank1
  1146  0A9B  00AE               	movwf	(___fladd@b+1)^(0+128)
  1147  0A9C  1283               	bcf	3,5	;RP0=0, select bank0
  1148  0A9D  1303               	bcf	3,6	;RP1=0, select bank0
  1149  0A9E  0848               	movf	?___flmul,w
  1150  0A9F  1683               	bsf	3,5	;RP0=1, select bank1
  1151  0AA0  1303               	bcf	3,6	;RP1=0, select bank1
  1152  0AA1  00AD               	movwf	___fladd@b^(0+128)
  1153  0AA2  160A  118A  2482  120A  158A  	fcall	___fladd
  1154  0AA7  1683               	bsf	3,5	;RP0=1, select bank1
  1155  0AA8  1303               	bcf	3,6	;RP1=0, select bank1
  1156  0AA9  0830               	movf	(?___fladd+3)^(0+128),w
  1157  0AAA  00C0               	movwf	(___fltol@f1+3)^(0+128)
  1158  0AAB  082F               	movf	(?___fladd+2)^(0+128),w
  1159  0AAC  00BF               	movwf	(___fltol@f1+2)^(0+128)
  1160  0AAD  082E               	movf	(?___fladd+1)^(0+128),w
  1161  0AAE  00BE               	movwf	(___fltol@f1+1)^(0+128)
  1162  0AAF  082D               	movf	?___fladd^(0+128),w
  1163  0AB0  00BD               	movwf	___fltol@f1^(0+128)
  1164  0AB1  160A  118A  22DA  120A  158A  	fcall	___fltol
  1165  0AB6  1683               	bsf	3,5	;RP0=1, select bank1
  1166  0AB7  1303               	bcf	3,6	;RP1=0, select bank1
  1167  0AB8  0840               	movf	(?___fltol+3)^(0+128),w
  1168  0AB9  1683               	bsf	3,5	;RP0=1, select bank3
  1169  0ABA  1703               	bsf	3,6	;RP1=1, select bank3
  1170  0ABB  009B               	movwf	(_peso+3)^(0+384)
  1171  0ABC  1683               	bsf	3,5	;RP0=1, select bank1
  1172  0ABD  1303               	bcf	3,6	;RP1=0, select bank1
  1173  0ABE  083F               	movf	(?___fltol+2)^(0+128),w
  1174  0ABF  1683               	bsf	3,5	;RP0=1, select bank3
  1175  0AC0  1703               	bsf	3,6	;RP1=1, select bank3
  1176  0AC1  009A               	movwf	(_peso+2)^(0+384)
  1177  0AC2  1683               	bsf	3,5	;RP0=1, select bank1
  1178  0AC3  1303               	bcf	3,6	;RP1=0, select bank1
  1179  0AC4  083E               	movf	(?___fltol+1)^(0+128),w
  1180  0AC5  1683               	bsf	3,5	;RP0=1, select bank3
  1181  0AC6  1703               	bsf	3,6	;RP1=1, select bank3
  1182  0AC7  0099               	movwf	(_peso+1)^(0+384)
  1183  0AC8  1683               	bsf	3,5	;RP0=1, select bank1
  1184  0AC9  1303               	bcf	3,6	;RP1=0, select bank1
  1185  0ACA  083D               	movf	?___fltol^(0+128),w
  1186  0ACB  1683               	bsf	3,5	;RP0=1, select bank3
  1187  0ACC  1703               	bsf	3,6	;RP1=1, select bank3
  1188  0ACD  0098               	movwf	_peso^(0+384)
  1189  0ACE                     l3007:	
  1190                           
  1191                           ;main.c: 99:         weight(peso1, tare, &b1, &m1, &c1, &d1, &u1);
  1192  0ACE  1283               	bcf	3,5	;RP0=0, select bank0
  1193  0ACF  1303               	bcf	3,6	;RP1=0, select bank0
  1194  0AD0  0864               	movf	_peso1+3,w
  1195  0AD1  1683               	bsf	3,5	;RP0=1, select bank1
  1196  0AD2  1303               	bcf	3,6	;RP1=0, select bank1
  1197  0AD3  00CB               	movwf	(weight@valor+3)^(0+128)
  1198  0AD4  1283               	bcf	3,5	;RP0=0, select bank0
  1199  0AD5  1303               	bcf	3,6	;RP1=0, select bank0
  1200  0AD6  0863               	movf	_peso1+2,w
  1201  0AD7  1683               	bsf	3,5	;RP0=1, select bank1
  1202  0AD8  1303               	bcf	3,6	;RP1=0, select bank1
  1203  0AD9  00CA               	movwf	(weight@valor+2)^(0+128)
  1204  0ADA  1283               	bcf	3,5	;RP0=0, select bank0
  1205  0ADB  1303               	bcf	3,6	;RP1=0, select bank0
  1206  0ADC  0862               	movf	_peso1+1,w
  1207  0ADD  1683               	bsf	3,5	;RP0=1, select bank1
  1208  0ADE  1303               	bcf	3,6	;RP1=0, select bank1
  1209  0ADF  00C9               	movwf	(weight@valor+1)^(0+128)
  1210  0AE0  1283               	bcf	3,5	;RP0=0, select bank0
  1211  0AE1  1303               	bcf	3,6	;RP1=0, select bank0
  1212  0AE2  0861               	movf	_peso1,w
  1213  0AE3  1683               	bsf	3,5	;RP0=1, select bank1
  1214  0AE4  1303               	bcf	3,6	;RP1=0, select bank1
  1215  0AE5  00C8               	movwf	weight@valor^(0+128)
  1216  0AE6  1683               	bsf	3,5	;RP0=1, select bank3
  1217  0AE7  1703               	bsf	3,6	;RP1=1, select bank3
  1218  0AE8  0813               	movf	(_tare+3)^(0+384),w
  1219  0AE9  1683               	bsf	3,5	;RP0=1, select bank1
  1220  0AEA  1303               	bcf	3,6	;RP1=0, select bank1
  1221  0AEB  00CF               	movwf	(weight@tare+3)^(0+128)
  1222  0AEC  1683               	bsf	3,5	;RP0=1, select bank3
  1223  0AED  1703               	bsf	3,6	;RP1=1, select bank3
  1224  0AEE  0812               	movf	(_tare+2)^(0+384),w
  1225  0AEF  1683               	bsf	3,5	;RP0=1, select bank1
  1226  0AF0  1303               	bcf	3,6	;RP1=0, select bank1
  1227  0AF1  00CE               	movwf	(weight@tare+2)^(0+128)
  1228  0AF2  1683               	bsf	3,5	;RP0=1, select bank3
  1229  0AF3  1703               	bsf	3,6	;RP1=1, select bank3
  1230  0AF4  0811               	movf	(_tare+1)^(0+384),w
  1231  0AF5  1683               	bsf	3,5	;RP0=1, select bank1
  1232  0AF6  1303               	bcf	3,6	;RP1=0, select bank1
  1233  0AF7  00CD               	movwf	(weight@tare+1)^(0+128)
  1234  0AF8  1683               	bsf	3,5	;RP0=1, select bank3
  1235  0AF9  1703               	bsf	3,6	;RP1=1, select bank3
  1236  0AFA  0810               	movf	_tare^(0+384),w
  1237  0AFB  1683               	bsf	3,5	;RP0=1, select bank1
  1238  0AFC  1303               	bcf	3,6	;RP1=0, select bank1
  1239  0AFD  00CC               	movwf	weight@tare^(0+128)
  1240  0AFE  3075               	movlw	(low (_b1| 0))& (0+255)
  1241  0AFF  1683               	bsf	3,5	;RP0=1, select bank3
  1242  0B00  1703               	bsf	3,6	;RP1=1, select bank3
  1243  0B01  009C               	movwf	??_main^(0+384)
  1244  0B02  081C               	movf	??_main^(0+384),w
  1245  0B03  1683               	bsf	3,5	;RP0=1, select bank1
  1246  0B04  1303               	bcf	3,6	;RP1=0, select bank1
  1247  0B05  00D0               	movwf	weight@v4^(0+128)
  1248  0B06  3074               	movlw	(low (_m1| 0))& (0+255)
  1249  0B07  1683               	bsf	3,5	;RP0=1, select bank3
  1250  0B08  1703               	bsf	3,6	;RP1=1, select bank3
  1251  0B09  009D               	movwf	(??_main+1)^(0+384)
  1252  0B0A  081D               	movf	(??_main+1)^(0+384),w
  1253  0B0B  1683               	bsf	3,5	;RP0=1, select bank1
  1254  0B0C  1303               	bcf	3,6	;RP1=0, select bank1
  1255  0B0D  00D1               	movwf	weight@v0^(0+128)
  1256  0B0E  3073               	movlw	(low (_c1| 0))& (0+255)
  1257  0B0F  1683               	bsf	3,5	;RP0=1, select bank3
  1258  0B10  1703               	bsf	3,6	;RP1=1, select bank3
  1259  0B11  009E               	movwf	(??_main+2)^(0+384)
  1260  0B12  081E               	movf	(??_main+2)^(0+384),w
  1261  0B13  1683               	bsf	3,5	;RP0=1, select bank1
  1262  0B14  1303               	bcf	3,6	;RP1=0, select bank1
  1263  0B15  00D2               	movwf	weight@v1^(0+128)
  1264  0B16  3072               	movlw	(low (_d1| 0))& (0+255)
  1265  0B17  1683               	bsf	3,5	;RP0=1, select bank3
  1266  0B18  1703               	bsf	3,6	;RP1=1, select bank3
  1267  0B19  009F               	movwf	(??_main+3)^(0+384)
  1268  0B1A  081F               	movf	(??_main+3)^(0+384),w
  1269  0B1B  1683               	bsf	3,5	;RP0=1, select bank1
  1270  0B1C  1303               	bcf	3,6	;RP1=0, select bank1
  1271  0B1D  00D3               	movwf	weight@v2^(0+128)
  1272  0B1E  3071               	movlw	(low (_u1| 0))& (0+255)
  1273  0B1F  1683               	bsf	3,5	;RP0=1, select bank3
  1274  0B20  1703               	bsf	3,6	;RP1=1, select bank3
  1275  0B21  00A0               	movwf	(??_main+4)^(0+384)
  1276  0B22  0820               	movf	(??_main+4)^(0+384),w
  1277  0B23  1683               	bsf	3,5	;RP0=1, select bank1
  1278  0B24  1303               	bcf	3,6	;RP1=0, select bank1
  1279  0B25  00D4               	movwf	weight@v3^(0+128)
  1280  0B26  120A  158A  235A  120A  158A  	fcall	_weight
  1281  0B2B                     l3009:	
  1282                           
  1283                           ;main.c: 100:         if(contador==0){
  1284  0B2B  0876               	movf	_contador,w
  1285  0B2C  1D03               	btfss	3,2
  1286  0B2D  2B2F               	goto	u4481
  1287  0B2E  2B30               	goto	u4480
  1288  0B2F                     u4481:	
  1289  0B2F  2B48               	goto	l104
  1290  0B30                     u4480:	
  1291  0B30                     l3011:	
  1292                           
  1293                           ;main.c: 101:             peso1 = peso;
  1294  0B30  1683               	bsf	3,5	;RP0=1, select bank3
  1295  0B31  1703               	bsf	3,6	;RP1=1, select bank3
  1296  0B32  081B               	movf	(_peso+3)^(0+384),w
  1297  0B33  1283               	bcf	3,5	;RP0=0, select bank0
  1298  0B34  1303               	bcf	3,6	;RP1=0, select bank0
  1299  0B35  00E4               	movwf	_peso1+3
  1300  0B36  1683               	bsf	3,5	;RP0=1, select bank3
  1301  0B37  1703               	bsf	3,6	;RP1=1, select bank3
  1302  0B38  081A               	movf	(_peso+2)^(0+384),w
  1303  0B39  1283               	bcf	3,5	;RP0=0, select bank0
  1304  0B3A  1303               	bcf	3,6	;RP1=0, select bank0
  1305  0B3B  00E3               	movwf	_peso1+2
  1306  0B3C  1683               	bsf	3,5	;RP0=1, select bank3
  1307  0B3D  1703               	bsf	3,6	;RP1=1, select bank3
  1308  0B3E  0819               	movf	(_peso+1)^(0+384),w
  1309  0B3F  1283               	bcf	3,5	;RP0=0, select bank0
  1310  0B40  1303               	bcf	3,6	;RP1=0, select bank0
  1311  0B41  00E2               	movwf	_peso1+1
  1312  0B42  1683               	bsf	3,5	;RP0=1, select bank3
  1313  0B43  1703               	bsf	3,6	;RP1=1, select bank3
  1314  0B44  0818               	movf	_peso^(0+384),w
  1315  0B45  1283               	bcf	3,5	;RP0=0, select bank0
  1316  0B46  1303               	bcf	3,6	;RP1=0, select bank0
  1317  0B47  00E1               	movwf	_peso1
  1318  0B48                     l104:	
  1319                           ;main.c: 102:         }
  1320                           
  1321                           
  1322                           ;main.c: 113:         _delay((unsigned long)((250)*(4000000/4000.0)));
  1323  0B48  3002               	movlw	2
  1324  0B49  1683               	bsf	3,5	;RP0=1, select bank3
  1325  0B4A  1703               	bsf	3,6	;RP1=1, select bank3
  1326  0B4B  009E               	movwf	(??_main^(0+384)+2)
  1327  0B4C  3045               	movlw	69
  1328  0B4D  009D               	movwf	(??_main^(0+384)+1)
  1329  0B4E  30A9               	movlw	169
  1330  0B4F  009C               	movwf	??_main^(0+384)
  1331  0B50                     u4497:	
  1332  0B50  0B9C               	decfsz	??_main^(0+384),f
  1333  0B51  2B50               	goto	u4497
  1334  0B52  0B9D               	decfsz	(??_main^(0+384)+1),f
  1335  0B53  2B50               	goto	u4497
  1336  0B54  0B9E               	decfsz	(??_main^(0+384)+2),f
  1337  0B55  2B50               	goto	u4497
  1338  0B56  2A07               	goto	l3003
  1339  0B57  120A  118A  2810   	ljmp	start
  1340  0B5A                     __end_of_main:	
  1341                           
  1342                           	psect	text1
  1343  0B5A                     __ptext1:	
  1344 ;; *************** function _weight *****************
  1345 ;; Defined at:
  1346 ;;		line 127 in file "main.c"
  1347 ;; Parameters:    Size  Location     Type
  1348 ;;  valor           4   40[BANK1 ] unsigned long 
  1349 ;;  tare            4   44[BANK1 ] unsigned long 
  1350 ;;  v4              1   48[BANK1 ] PTR unsigned char 
  1351 ;;		 -> b1(1), 
  1352 ;;  v0              1   49[BANK1 ] PTR unsigned char 
  1353 ;;		 -> m1(1), 
  1354 ;;  v1              1   50[BANK1 ] PTR unsigned char 
  1355 ;;		 -> c1(1), 
  1356 ;;  v2              1   51[BANK1 ] PTR unsigned char 
  1357 ;;		 -> d1(1), 
  1358 ;;  v3              1   52[BANK1 ] PTR unsigned char 
  1359 ;;		 -> u1(1), 
  1360 ;; Auto vars:     Size  Location     Type
  1361 ;;  conv            4   75[BANK1 ] float 
  1362 ;;  b               1   74[BANK1 ] unsigned char 
  1363 ;;  m               1   73[BANK1 ] unsigned char 
  1364 ;;  c               1   72[BANK1 ] unsigned char 
  1365 ;;  d               1   71[BANK1 ] unsigned char 
  1366 ;;  u               1   70[BANK1 ] unsigned char 
  1367 ;;  a               1    0        unsigned char 
  1368 ;;  x               1    0        unsigned char 
  1369 ;; Return value:  Size  Location     Type
  1370 ;;                  1    wreg      void 
  1371 ;; Registers used:
  1372 ;;		wreg, fsr0l, fsr0h, status,2, status,0, btemp+1, pclath, cstack
  1373 ;; Tracked objects:
  1374 ;;		On entry : 0/0
  1375 ;;		On exit  : 0/0
  1376 ;;		Unchanged: 0/0
  1377 ;; Data sizes:     COMMON   BANK0   BANK1   BANK3   BANK2
  1378 ;;      Params:         0       0      13       0       0
  1379 ;;      Locals:         0       0       9       0       0
  1380 ;;      Temps:          0       0      17       0       0
  1381 ;;      Totals:         0       0      39       0       0
  1382 ;;Total ram usage:       39 bytes
  1383 ;; Hardware stack levels used:    1
  1384 ;; Hardware stack levels required when called:    4
  1385 ;; This function calls:
  1386 ;;		___fldiv
  1387 ;;		___flge
  1388 ;;		___flmul
  1389 ;;		___flsub
  1390 ;;		___fltol
  1391 ;;		___wmul
  1392 ;;		___xxtofl
  1393 ;; This function is called by:
  1394 ;;		_main
  1395 ;; This function uses a non-reentrant model
  1396 ;;
  1397                           
  1398                           
  1399                           ;psect for function _weight
  1400  0B5A                     _weight:	
  1401  0B5A                     l2983:	
  1402                           ;incstack = 0
  1403                           ; Regs used in _weight: [wreg-fsr0h+status,2+status,0+btemp+1+pclath+cstack]
  1404                           
  1405                           
  1406                           ;main.c: 128:     uint8_t x;;main.c: 129:     uint8_t a;;main.c: 130:     uint8_t b;;mai
      +                          n.c: 131:     uint8_t m;;main.c: 132:     uint8_t c;;main.c: 133:     uint8_t d;;main.c:
      +                           134:     uint8_t u;;main.c: 135:     float conv;;main.c: 136:     conv = (float)(valor-
      +                          tare-512)*(float)(0.0550271739);
  1407  0B5A  303D               	movlw	61
  1408  0B5B  1283               	bcf	3,5	;RP0=0, select bank0
  1409  0B5C  1303               	bcf	3,6	;RP1=0, select bank0
  1410  0B5D  00CB               	movwf	___flmul@b+3
  1411  0B5E  3061               	movlw	97
  1412  0B5F  00CA               	movwf	___flmul@b+2
  1413  0B60  3064               	movlw	100
  1414  0B61  00C9               	movwf	___flmul@b+1
  1415  0B62  302D               	movlw	45
  1416  0B63  00C8               	movwf	___flmul@b
  1417  0B64  3000               	movlw	0
  1418  0B65  1683               	bsf	3,5	;RP0=1, select bank1
  1419  0B66  1303               	bcf	3,6	;RP1=0, select bank1
  1420  0B67  00D5               	movwf	??_weight^(0+128)
  1421  0B68  30FE               	movlw	254
  1422  0B69  00D6               	movwf	(??_weight^(0+128)+1)
  1423  0B6A  30FF               	movlw	255
  1424  0B6B  00D7               	movwf	(??_weight^(0+128)+2)
  1425  0B6C  30FF               	movlw	255
  1426  0B6D  00D8               	movwf	(??_weight^(0+128)+3)
  1427  0B6E  0848               	movf	weight@valor^(0+128),w
  1428  0B6F  00D9               	movwf	(??_weight+4)^(0+128)
  1429  0B70  0849               	movf	(weight@valor+1)^(0+128),w
  1430  0B71  00DA               	movwf	((??_weight+4)^(0+128)+1)
  1431  0B72  084A               	movf	(weight@valor+2)^(0+128),w
  1432  0B73  00DB               	movwf	((??_weight+4)^(0+128)+2)
  1433  0B74  084B               	movf	(weight@valor+3)^(0+128),w
  1434  0B75  00DC               	movwf	((??_weight+4)^(0+128)+3)
  1435  0B76  084C               	movf	weight@tare^(0+128),w
  1436  0B77  02D9               	subwf	(??_weight+4)^(0+128),f
  1437  0B78  084D               	movf	(weight@tare+1)^(0+128),w
  1438  0B79  1C03               	skipc
  1439  0B7A  0F4D               	incfsz	(weight@tare+1)^(0+128),w
  1440  0B7B  2B7D               	goto	u4451
  1441  0B7C  2B7E               	goto	u4452
  1442  0B7D                     u4451:	
  1443  0B7D  02DA               	subwf	((??_weight+4)^(0+128)+1),f
  1444  0B7E                     u4452:	
  1445  0B7E  084E               	movf	(weight@tare+2)^(0+128),w
  1446  0B7F  1C03               	skipc
  1447  0B80  0F4E               	incfsz	(weight@tare+2)^(0+128),w
  1448  0B81  2B83               	goto	u4453
  1449  0B82  2B84               	goto	u4454
  1450  0B83                     u4453:	
  1451  0B83  02DB               	subwf	((??_weight+4)^(0+128)+2),f
  1452  0B84                     u4454:	
  1453  0B84  084F               	movf	(weight@tare+3)^(0+128),w
  1454  0B85  1C03               	skipc
  1455  0B86  0F4F               	incfsz	(weight@tare+3)^(0+128),w
  1456  0B87  2B89               	goto	u4455
  1457  0B88  2B8A               	goto	u4456
  1458  0B89                     u4455:	
  1459  0B89  02DC               	subwf	((??_weight+4)^(0+128)+3),f
  1460  0B8A                     u4456:	
  1461  0B8A  0859               	movf	(??_weight+4)^(0+128),w
  1462  0B8B  07D5               	addwf	??_weight^(0+128),f
  1463  0B8C  085A               	movf	(??_weight+5)^(0+128),w
  1464  0B8D  1803               	skipnc
  1465  0B8E  0F5A               	incfsz	(??_weight+5)^(0+128),w
  1466  0B8F  2B91               	goto	u4460
  1467  0B90  2B92               	goto	u4461
  1468  0B91                     u4460:	
  1469  0B91  07D6               	addwf	(??_weight^(0+128)+1),f
  1470  0B92                     u4461:	
  1471  0B92  085B               	movf	(??_weight+6)^(0+128),w
  1472  0B93  1803               	skipnc
  1473  0B94  0F5B               	incfsz	(??_weight+6)^(0+128),w
  1474  0B95  2B97               	goto	u4462
  1475  0B96  2B98               	goto	u4463
  1476  0B97                     u4462:	
  1477  0B97  07D7               	addwf	(??_weight^(0+128)+2),f
  1478  0B98                     u4463:	
  1479  0B98  085C               	movf	(??_weight+7)^(0+128),w
  1480  0B99  1803               	skipnc
  1481  0B9A  0A5C               	incf	(??_weight+7)^(0+128),w
  1482  0B9B  07D8               	addwf	(??_weight^(0+128)+3),f
  1483  0B9C  0858               	movf	(??_weight+3)^(0+128),w
  1484  0B9D  1283               	bcf	3,5	;RP0=0, select bank0
  1485  0B9E  1303               	bcf	3,6	;RP1=0, select bank0
  1486  0B9F  00BD               	movwf	___xxtofl@val+3
  1487  0BA0  1683               	bsf	3,5	;RP0=1, select bank1
  1488  0BA1  1303               	bcf	3,6	;RP1=0, select bank1
  1489  0BA2  0857               	movf	(??_weight+2)^(0+128),w
  1490  0BA3  1283               	bcf	3,5	;RP0=0, select bank0
  1491  0BA4  1303               	bcf	3,6	;RP1=0, select bank0
  1492  0BA5  00BC               	movwf	___xxtofl@val+2
  1493  0BA6  1683               	bsf	3,5	;RP0=1, select bank1
  1494  0BA7  1303               	bcf	3,6	;RP1=0, select bank1
  1495  0BA8  0856               	movf	(??_weight+1)^(0+128),w
  1496  0BA9  1283               	bcf	3,5	;RP0=0, select bank0
  1497  0BAA  1303               	bcf	3,6	;RP1=0, select bank0
  1498  0BAB  00BB               	movwf	___xxtofl@val+1
  1499  0BAC  1683               	bsf	3,5	;RP0=1, select bank1
  1500  0BAD  1303               	bcf	3,6	;RP1=0, select bank1
  1501  0BAE  0855               	movf	??_weight^(0+128),w
  1502  0BAF  1283               	bcf	3,5	;RP0=0, select bank0
  1503  0BB0  1303               	bcf	3,6	;RP1=0, select bank0
  1504  0BB1  00BA               	movwf	___xxtofl@val
  1505  0BB2  3000               	movlw	0
  1506  0BB3  120A  158A  2060  120A  158A  	fcall	___xxtofl
  1507  0BB8  1283               	bcf	3,5	;RP0=0, select bank0
  1508  0BB9  1303               	bcf	3,6	;RP1=0, select bank0
  1509  0BBA  083D               	movf	?___xxtofl+3,w
  1510  0BBB  00CF               	movwf	___flmul@a+3
  1511  0BBC  083C               	movf	?___xxtofl+2,w
  1512  0BBD  00CE               	movwf	___flmul@a+2
  1513  0BBE  083B               	movf	?___xxtofl+1,w
  1514  0BBF  00CD               	movwf	___flmul@a+1
  1515  0BC0  083A               	movf	?___xxtofl,w
  1516  0BC1  00CC               	movwf	___flmul@a
  1517  0BC2  120A  118A  2040  120A  158A  	fcall	___flmul
  1518  0BC7  1283               	bcf	3,5	;RP0=0, select bank0
  1519  0BC8  1303               	bcf	3,6	;RP1=0, select bank0
  1520  0BC9  084B               	movf	?___flmul+3,w
  1521  0BCA  1683               	bsf	3,5	;RP0=1, select bank1
  1522  0BCB  1303               	bcf	3,6	;RP1=0, select bank1
  1523  0BCC  00EE               	movwf	(weight@conv+3)^(0+128)
  1524  0BCD  1283               	bcf	3,5	;RP0=0, select bank0
  1525  0BCE  1303               	bcf	3,6	;RP1=0, select bank0
  1526  0BCF  084A               	movf	?___flmul+2,w
  1527  0BD0  1683               	bsf	3,5	;RP0=1, select bank1
  1528  0BD1  1303               	bcf	3,6	;RP1=0, select bank1
  1529  0BD2  00ED               	movwf	(weight@conv+2)^(0+128)
  1530  0BD3  1283               	bcf	3,5	;RP0=0, select bank0
  1531  0BD4  1303               	bcf	3,6	;RP1=0, select bank0
  1532  0BD5  0849               	movf	?___flmul+1,w
  1533  0BD6  1683               	bsf	3,5	;RP0=1, select bank1
  1534  0BD7  1303               	bcf	3,6	;RP1=0, select bank1
  1535  0BD8  00EC               	movwf	(weight@conv+1)^(0+128)
  1536  0BD9  1283               	bcf	3,5	;RP0=0, select bank0
  1537  0BDA  1303               	bcf	3,6	;RP1=0, select bank0
  1538  0BDB  0848               	movf	?___flmul,w
  1539  0BDC  1683               	bsf	3,5	;RP0=1, select bank1
  1540  0BDD  1303               	bcf	3,6	;RP1=0, select bank1
  1541  0BDE  00EB               	movwf	weight@conv^(0+128)
  1542  0BDF                     l2985:	
  1543                           
  1544                           ;main.c: 138:     if(conv>=0){
  1545  0BDF  086E               	movf	(weight@conv+3)^(0+128),w
  1546  0BE0  1283               	bcf	3,5	;RP0=0, select bank0
  1547  0BE1  1303               	bcf	3,6	;RP1=0, select bank0
  1548  0BE2  00AC               	movwf	___flge@ff1+3
  1549  0BE3  1683               	bsf	3,5	;RP0=1, select bank1
  1550  0BE4  1303               	bcf	3,6	;RP1=0, select bank1
  1551  0BE5  086D               	movf	(weight@conv+2)^(0+128),w
  1552  0BE6  1283               	bcf	3,5	;RP0=0, select bank0
  1553  0BE7  1303               	bcf	3,6	;RP1=0, select bank0
  1554  0BE8  00AB               	movwf	___flge@ff1+2
  1555  0BE9  1683               	bsf	3,5	;RP0=1, select bank1
  1556  0BEA  1303               	bcf	3,6	;RP1=0, select bank1
  1557  0BEB  086C               	movf	(weight@conv+1)^(0+128),w
  1558  0BEC  1283               	bcf	3,5	;RP0=0, select bank0
  1559  0BED  1303               	bcf	3,6	;RP1=0, select bank0
  1560  0BEE  00AA               	movwf	___flge@ff1+1
  1561  0BEF  1683               	bsf	3,5	;RP0=1, select bank1
  1562  0BF0  1303               	bcf	3,6	;RP1=0, select bank1
  1563  0BF1  086B               	movf	weight@conv^(0+128),w
  1564  0BF2  1283               	bcf	3,5	;RP0=0, select bank0
  1565  0BF3  1303               	bcf	3,6	;RP1=0, select bank0
  1566  0BF4  00A9               	movwf	___flge@ff1
  1567  0BF5  3000               	movlw	0
  1568  0BF6  00B0               	movwf	___flge@ff2+3
  1569  0BF7  3000               	movlw	0
  1570  0BF8  00AF               	movwf	___flge@ff2+2
  1571  0BF9  3000               	movlw	0
  1572  0BFA  00AE               	movwf	___flge@ff2+1
  1573  0BFB  3000               	movlw	0
  1574  0BFC  00AD               	movwf	___flge@ff2
  1575  0BFD  160A  118A  23DE  120A  158A  	fcall	___flge
  1576  0C02  1C03               	btfss	3,0
  1577  0C03  2C05               	goto	u4471
  1578  0C04  2C06               	goto	u4470
  1579  0C05                     u4471:	
  1580  0C05  2FDA               	goto	l2989
  1581  0C06                     u4470:	
  1582  0C06                     l2987:	
  1583                           
  1584                           ;main.c: 139:         b = (uint8_t)(conv/10000);
  1585  0C06  1683               	bsf	3,5	;RP0=1, select bank1
  1586  0C07  1303               	bcf	3,6	;RP1=0, select bank1
  1587  0C08  086E               	movf	(weight@conv+3)^(0+128),w
  1588  0C09  1283               	bcf	3,5	;RP0=0, select bank0
  1589  0C0A  1303               	bcf	3,6	;RP1=0, select bank0
  1590  0C0B  00B0               	movwf	___fldiv@b+3
  1591  0C0C  1683               	bsf	3,5	;RP0=1, select bank1
  1592  0C0D  1303               	bcf	3,6	;RP1=0, select bank1
  1593  0C0E  086D               	movf	(weight@conv+2)^(0+128),w
  1594  0C0F  1283               	bcf	3,5	;RP0=0, select bank0
  1595  0C10  1303               	bcf	3,6	;RP1=0, select bank0
  1596  0C11  00AF               	movwf	___fldiv@b+2
  1597  0C12  1683               	bsf	3,5	;RP0=1, select bank1
  1598  0C13  1303               	bcf	3,6	;RP1=0, select bank1
  1599  0C14  086C               	movf	(weight@conv+1)^(0+128),w
  1600  0C15  1283               	bcf	3,5	;RP0=0, select bank0
  1601  0C16  1303               	bcf	3,6	;RP1=0, select bank0
  1602  0C17  00AE               	movwf	___fldiv@b+1
  1603  0C18  1683               	bsf	3,5	;RP0=1, select bank1
  1604  0C19  1303               	bcf	3,6	;RP1=0, select bank1
  1605  0C1A  086B               	movf	weight@conv^(0+128),w
  1606  0C1B  1283               	bcf	3,5	;RP0=0, select bank0
  1607  0C1C  1303               	bcf	3,6	;RP1=0, select bank0
  1608  0C1D  00AD               	movwf	___fldiv@b
  1609  0C1E  3046               	movlw	70
  1610  0C1F  00AC               	movwf	___fldiv@a+3
  1611  0C20  301C               	movlw	28
  1612  0C21  00AB               	movwf	___fldiv@a+2
  1613  0C22  3040               	movlw	64
  1614  0C23  00AA               	movwf	___fldiv@a+1
  1615  0C24  3000               	movlw	0
  1616  0C25  00A9               	movwf	___fldiv@a
  1617  0C26  120A  118A  259F  120A  158A  	fcall	___fldiv
  1618  0C2B  1283               	bcf	3,5	;RP0=0, select bank0
  1619  0C2C  1303               	bcf	3,6	;RP1=0, select bank0
  1620  0C2D  082C               	movf	?___fldiv+3,w
  1621  0C2E  1683               	bsf	3,5	;RP0=1, select bank1
  1622  0C2F  1303               	bcf	3,6	;RP1=0, select bank1
  1623  0C30  00C0               	movwf	(___fltol@f1+3)^(0+128)
  1624  0C31  1283               	bcf	3,5	;RP0=0, select bank0
  1625  0C32  1303               	bcf	3,6	;RP1=0, select bank0
  1626  0C33  082B               	movf	?___fldiv+2,w
  1627  0C34  1683               	bsf	3,5	;RP0=1, select bank1
  1628  0C35  1303               	bcf	3,6	;RP1=0, select bank1
  1629  0C36  00BF               	movwf	(___fltol@f1+2)^(0+128)
  1630  0C37  1283               	bcf	3,5	;RP0=0, select bank0
  1631  0C38  1303               	bcf	3,6	;RP1=0, select bank0
  1632  0C39  082A               	movf	?___fldiv+1,w
  1633  0C3A  1683               	bsf	3,5	;RP0=1, select bank1
  1634  0C3B  1303               	bcf	3,6	;RP1=0, select bank1
  1635  0C3C  00BE               	movwf	(___fltol@f1+1)^(0+128)
  1636  0C3D  1283               	bcf	3,5	;RP0=0, select bank0
  1637  0C3E  1303               	bcf	3,6	;RP1=0, select bank0
  1638  0C3F  0829               	movf	?___fldiv,w
  1639  0C40  1683               	bsf	3,5	;RP0=1, select bank1
  1640  0C41  1303               	bcf	3,6	;RP1=0, select bank1
  1641  0C42  00BD               	movwf	___fltol@f1^(0+128)
  1642  0C43  160A  118A  22DA  120A  158A  	fcall	___fltol
  1643  0C48  1683               	bsf	3,5	;RP0=1, select bank1
  1644  0C49  1303               	bcf	3,6	;RP1=0, select bank1
  1645  0C4A  083D               	movf	?___fltol^(0+128),w
  1646  0C4B  00D5               	movwf	??_weight^(0+128)
  1647  0C4C  0855               	movf	??_weight^(0+128),w
  1648  0C4D  00EA               	movwf	weight@b^(0+128)
  1649                           
  1650                           ;main.c: 140:         m = (uint8_t)(conv/1000-(b*10));
  1651  0C4E  086E               	movf	(weight@conv+3)^(0+128),w
  1652  0C4F  1283               	bcf	3,5	;RP0=0, select bank0
  1653  0C50  1303               	bcf	3,6	;RP1=0, select bank0
  1654  0C51  00B0               	movwf	___fldiv@b+3
  1655  0C52  1683               	bsf	3,5	;RP0=1, select bank1
  1656  0C53  1303               	bcf	3,6	;RP1=0, select bank1
  1657  0C54  086D               	movf	(weight@conv+2)^(0+128),w
  1658  0C55  1283               	bcf	3,5	;RP0=0, select bank0
  1659  0C56  1303               	bcf	3,6	;RP1=0, select bank0
  1660  0C57  00AF               	movwf	___fldiv@b+2
  1661  0C58  1683               	bsf	3,5	;RP0=1, select bank1
  1662  0C59  1303               	bcf	3,6	;RP1=0, select bank1
  1663  0C5A  086C               	movf	(weight@conv+1)^(0+128),w
  1664  0C5B  1283               	bcf	3,5	;RP0=0, select bank0
  1665  0C5C  1303               	bcf	3,6	;RP1=0, select bank0
  1666  0C5D  00AE               	movwf	___fldiv@b+1
  1667  0C5E  1683               	bsf	3,5	;RP0=1, select bank1
  1668  0C5F  1303               	bcf	3,6	;RP1=0, select bank1
  1669  0C60  086B               	movf	weight@conv^(0+128),w
  1670  0C61  1283               	bcf	3,5	;RP0=0, select bank0
  1671  0C62  1303               	bcf	3,6	;RP1=0, select bank0
  1672  0C63  00AD               	movwf	___fldiv@b
  1673  0C64  3044               	movlw	68
  1674  0C65  00AC               	movwf	___fldiv@a+3
  1675  0C66  307A               	movlw	122
  1676  0C67  00AB               	movwf	___fldiv@a+2
  1677  0C68  3000               	movlw	0
  1678  0C69  00AA               	movwf	___fldiv@a+1
  1679  0C6A  3000               	movlw	0
  1680  0C6B  00A9               	movwf	___fldiv@a
  1681  0C6C  120A  118A  259F  120A  158A  	fcall	___fldiv
  1682  0C71  1283               	bcf	3,5	;RP0=0, select bank0
  1683  0C72  1303               	bcf	3,6	;RP1=0, select bank0
  1684  0C73  082C               	movf	?___fldiv+3,w
  1685  0C74  1683               	bsf	3,5	;RP0=1, select bank1
  1686  0C75  1303               	bcf	3,6	;RP1=0, select bank1
  1687  0C76  00BC               	movwf	(___flsub@b+3)^(0+128)
  1688  0C77  1283               	bcf	3,5	;RP0=0, select bank0
  1689  0C78  1303               	bcf	3,6	;RP1=0, select bank0
  1690  0C79  082B               	movf	?___fldiv+2,w
  1691  0C7A  1683               	bsf	3,5	;RP0=1, select bank1
  1692  0C7B  1303               	bcf	3,6	;RP1=0, select bank1
  1693  0C7C  00BB               	movwf	(___flsub@b+2)^(0+128)
  1694  0C7D  1283               	bcf	3,5	;RP0=0, select bank0
  1695  0C7E  1303               	bcf	3,6	;RP1=0, select bank0
  1696  0C7F  082A               	movf	?___fldiv+1,w
  1697  0C80  1683               	bsf	3,5	;RP0=1, select bank1
  1698  0C81  1303               	bcf	3,6	;RP1=0, select bank1
  1699  0C82  00BA               	movwf	(___flsub@b+1)^(0+128)
  1700  0C83  1283               	bcf	3,5	;RP0=0, select bank0
  1701  0C84  1303               	bcf	3,6	;RP1=0, select bank0
  1702  0C85  0829               	movf	?___fldiv,w
  1703  0C86  1683               	bsf	3,5	;RP0=1, select bank1
  1704  0C87  1303               	bcf	3,6	;RP1=0, select bank1
  1705  0C88  00B9               	movwf	___flsub@b^(0+128)
  1706  0C89  300A               	movlw	10
  1707  0C8A  1283               	bcf	3,5	;RP0=0, select bank0
  1708  0C8B  1303               	bcf	3,6	;RP1=0, select bank0
  1709  0C8C  00AB               	movwf	___wmul@multiplicand
  1710  0C8D  3000               	movlw	0
  1711  0C8E  00AC               	movwf	___wmul@multiplicand+1
  1712  0C8F  1683               	bsf	3,5	;RP0=1, select bank1
  1713  0C90  1303               	bcf	3,6	;RP1=0, select bank1
  1714  0C91  086A               	movf	weight@b^(0+128),w
  1715  0C92  00D5               	movwf	??_weight^(0+128)
  1716  0C93  01D6               	clrf	(??_weight^(0+128)+1)
  1717  0C94  0855               	movf	??_weight^(0+128),w
  1718  0C95  1283               	bcf	3,5	;RP0=0, select bank0
  1719  0C96  1303               	bcf	3,6	;RP1=0, select bank0
  1720  0C97  00A9               	movwf	___wmul@multiplier
  1721  0C98  1683               	bsf	3,5	;RP0=1, select bank1
  1722  0C99  1303               	bcf	3,6	;RP1=0, select bank1
  1723  0C9A  0856               	movf	(??_weight+1)^(0+128),w
  1724  0C9B  1283               	bcf	3,5	;RP0=0, select bank0
  1725  0C9C  1303               	bcf	3,6	;RP1=0, select bank0
  1726  0C9D  00AA               	movwf	___wmul@multiplier+1
  1727  0C9E  160A  118A  222B  120A  158A  	fcall	___wmul
  1728  0CA3  1283               	bcf	3,5	;RP0=0, select bank0
  1729  0CA4  1303               	bcf	3,6	;RP1=0, select bank0
  1730  0CA5  0829               	movf	?___wmul,w
  1731  0CA6  00BA               	movwf	___xxtofl@val
  1732  0CA7  082A               	movf	?___wmul+1,w
  1733  0CA8  00BB               	movwf	___xxtofl@val+1
  1734  0CA9  3000               	movlw	0
  1735  0CAA  1BBB               	btfsc	___xxtofl@val+1,7
  1736  0CAB  30FF               	movlw	255
  1737  0CAC  00BC               	movwf	___xxtofl@val+2
  1738  0CAD  00BD               	movwf	___xxtofl@val+3
  1739  0CAE  3001               	movlw	1
  1740  0CAF  120A  158A  2060  120A  158A  	fcall	___xxtofl
  1741  0CB4  1283               	bcf	3,5	;RP0=0, select bank0
  1742  0CB5  1303               	bcf	3,6	;RP1=0, select bank0
  1743  0CB6  083D               	movf	?___xxtofl+3,w
  1744  0CB7  1683               	bsf	3,5	;RP0=1, select bank1
  1745  0CB8  1303               	bcf	3,6	;RP1=0, select bank1
  1746  0CB9  00B8               	movwf	(___flsub@a+3)^(0+128)
  1747  0CBA  1283               	bcf	3,5	;RP0=0, select bank0
  1748  0CBB  1303               	bcf	3,6	;RP1=0, select bank0
  1749  0CBC  083C               	movf	?___xxtofl+2,w
  1750  0CBD  1683               	bsf	3,5	;RP0=1, select bank1
  1751  0CBE  1303               	bcf	3,6	;RP1=0, select bank1
  1752  0CBF  00B7               	movwf	(___flsub@a+2)^(0+128)
  1753  0CC0  1283               	bcf	3,5	;RP0=0, select bank0
  1754  0CC1  1303               	bcf	3,6	;RP1=0, select bank0
  1755  0CC2  083B               	movf	?___xxtofl+1,w
  1756  0CC3  1683               	bsf	3,5	;RP0=1, select bank1
  1757  0CC4  1303               	bcf	3,6	;RP1=0, select bank1
  1758  0CC5  00B6               	movwf	(___flsub@a+1)^(0+128)
  1759  0CC6  1283               	bcf	3,5	;RP0=0, select bank0
  1760  0CC7  1303               	bcf	3,6	;RP1=0, select bank0
  1761  0CC8  083A               	movf	?___xxtofl,w
  1762  0CC9  1683               	bsf	3,5	;RP0=1, select bank1
  1763  0CCA  1303               	bcf	3,6	;RP1=0, select bank1
  1764  0CCB  00B5               	movwf	___flsub@a^(0+128)
  1765  0CCC  160A  118A  2207  120A  158A  	fcall	___flsub
  1766  0CD1  1683               	bsf	3,5	;RP0=1, select bank1
  1767  0CD2  1303               	bcf	3,6	;RP1=0, select bank1
  1768  0CD3  0838               	movf	(?___flsub+3)^(0+128),w
  1769  0CD4  00C0               	movwf	(___fltol@f1+3)^(0+128)
  1770  0CD5  0837               	movf	(?___flsub+2)^(0+128),w
  1771  0CD6  00BF               	movwf	(___fltol@f1+2)^(0+128)
  1772  0CD7  0836               	movf	(?___flsub+1)^(0+128),w
  1773  0CD8  00BE               	movwf	(___fltol@f1+1)^(0+128)
  1774  0CD9  0835               	movf	?___flsub^(0+128),w
  1775  0CDA  00BD               	movwf	___fltol@f1^(0+128)
  1776  0CDB  160A  118A  22DA  120A  158A  	fcall	___fltol
  1777  0CE0  1683               	bsf	3,5	;RP0=1, select bank1
  1778  0CE1  1303               	bcf	3,6	;RP1=0, select bank1
  1779  0CE2  083D               	movf	?___fltol^(0+128),w
  1780  0CE3  00D7               	movwf	(??_weight+2)^(0+128)
  1781  0CE4  0857               	movf	(??_weight+2)^(0+128),w
  1782  0CE5  00E9               	movwf	weight@m^(0+128)
  1783                           
  1784                           ;main.c: 141:         c = (uint8_t)((conv/100)-(b*100+m*10));
  1785  0CE6  086E               	movf	(weight@conv+3)^(0+128),w
  1786  0CE7  1283               	bcf	3,5	;RP0=0, select bank0
  1787  0CE8  1303               	bcf	3,6	;RP1=0, select bank0
  1788  0CE9  00B0               	movwf	___fldiv@b+3
  1789  0CEA  1683               	bsf	3,5	;RP0=1, select bank1
  1790  0CEB  1303               	bcf	3,6	;RP1=0, select bank1
  1791  0CEC  086D               	movf	(weight@conv+2)^(0+128),w
  1792  0CED  1283               	bcf	3,5	;RP0=0, select bank0
  1793  0CEE  1303               	bcf	3,6	;RP1=0, select bank0
  1794  0CEF  00AF               	movwf	___fldiv@b+2
  1795  0CF0  1683               	bsf	3,5	;RP0=1, select bank1
  1796  0CF1  1303               	bcf	3,6	;RP1=0, select bank1
  1797  0CF2  086C               	movf	(weight@conv+1)^(0+128),w
  1798  0CF3  1283               	bcf	3,5	;RP0=0, select bank0
  1799  0CF4  1303               	bcf	3,6	;RP1=0, select bank0
  1800  0CF5  00AE               	movwf	___fldiv@b+1
  1801  0CF6  1683               	bsf	3,5	;RP0=1, select bank1
  1802  0CF7  1303               	bcf	3,6	;RP1=0, select bank1
  1803  0CF8  086B               	movf	weight@conv^(0+128),w
  1804  0CF9  1283               	bcf	3,5	;RP0=0, select bank0
  1805  0CFA  1303               	bcf	3,6	;RP1=0, select bank0
  1806  0CFB  00AD               	movwf	___fldiv@b
  1807  0CFC  3042               	movlw	66
  1808  0CFD  00AC               	movwf	___fldiv@a+3
  1809  0CFE  30C8               	movlw	200
  1810  0CFF  00AB               	movwf	___fldiv@a+2
  1811  0D00  3000               	movlw	0
  1812  0D01  00AA               	movwf	___fldiv@a+1
  1813  0D02  3000               	movlw	0
  1814  0D03  00A9               	movwf	___fldiv@a
  1815  0D04  120A  118A  259F  120A  158A  	fcall	___fldiv
  1816  0D09  1283               	bcf	3,5	;RP0=0, select bank0
  1817  0D0A  1303               	bcf	3,6	;RP1=0, select bank0
  1818  0D0B  082C               	movf	?___fldiv+3,w
  1819  0D0C  1683               	bsf	3,5	;RP0=1, select bank1
  1820  0D0D  1303               	bcf	3,6	;RP1=0, select bank1
  1821  0D0E  00BC               	movwf	(___flsub@b+3)^(0+128)
  1822  0D0F  1283               	bcf	3,5	;RP0=0, select bank0
  1823  0D10  1303               	bcf	3,6	;RP1=0, select bank0
  1824  0D11  082B               	movf	?___fldiv+2,w
  1825  0D12  1683               	bsf	3,5	;RP0=1, select bank1
  1826  0D13  1303               	bcf	3,6	;RP1=0, select bank1
  1827  0D14  00BB               	movwf	(___flsub@b+2)^(0+128)
  1828  0D15  1283               	bcf	3,5	;RP0=0, select bank0
  1829  0D16  1303               	bcf	3,6	;RP1=0, select bank0
  1830  0D17  082A               	movf	?___fldiv+1,w
  1831  0D18  1683               	bsf	3,5	;RP0=1, select bank1
  1832  0D19  1303               	bcf	3,6	;RP1=0, select bank1
  1833  0D1A  00BA               	movwf	(___flsub@b+1)^(0+128)
  1834  0D1B  1283               	bcf	3,5	;RP0=0, select bank0
  1835  0D1C  1303               	bcf	3,6	;RP1=0, select bank0
  1836  0D1D  0829               	movf	?___fldiv,w
  1837  0D1E  1683               	bsf	3,5	;RP0=1, select bank1
  1838  0D1F  1303               	bcf	3,6	;RP1=0, select bank1
  1839  0D20  00B9               	movwf	___flsub@b^(0+128)
  1840  0D21  3064               	movlw	100
  1841  0D22  1283               	bcf	3,5	;RP0=0, select bank0
  1842  0D23  1303               	bcf	3,6	;RP1=0, select bank0
  1843  0D24  00AB               	movwf	___wmul@multiplicand
  1844  0D25  3000               	movlw	0
  1845  0D26  00AC               	movwf	___wmul@multiplicand+1
  1846  0D27  1683               	bsf	3,5	;RP0=1, select bank1
  1847  0D28  1303               	bcf	3,6	;RP1=0, select bank1
  1848  0D29  086A               	movf	weight@b^(0+128),w
  1849  0D2A  00D5               	movwf	??_weight^(0+128)
  1850  0D2B  01D6               	clrf	(??_weight^(0+128)+1)
  1851  0D2C  0855               	movf	??_weight^(0+128),w
  1852  0D2D  1283               	bcf	3,5	;RP0=0, select bank0
  1853  0D2E  1303               	bcf	3,6	;RP1=0, select bank0
  1854  0D2F  00A9               	movwf	___wmul@multiplier
  1855  0D30  1683               	bsf	3,5	;RP0=1, select bank1
  1856  0D31  1303               	bcf	3,6	;RP1=0, select bank1
  1857  0D32  0856               	movf	(??_weight+1)^(0+128),w
  1858  0D33  1283               	bcf	3,5	;RP0=0, select bank0
  1859  0D34  1303               	bcf	3,6	;RP1=0, select bank0
  1860  0D35  00AA               	movwf	___wmul@multiplier+1
  1861  0D36  160A  118A  222B  120A  158A  	fcall	___wmul
  1862  0D3B  1283               	bcf	3,5	;RP0=0, select bank0
  1863  0D3C  1303               	bcf	3,6	;RP1=0, select bank0
  1864  0D3D  0829               	movf	?___wmul,w
  1865  0D3E  1683               	bsf	3,5	;RP0=1, select bank1
  1866  0D3F  1303               	bcf	3,6	;RP1=0, select bank1
  1867  0D40  00D7               	movwf	(??_weight+2)^(0+128)
  1868  0D41  1283               	bcf	3,5	;RP0=0, select bank0
  1869  0D42  1303               	bcf	3,6	;RP1=0, select bank0
  1870  0D43  082A               	movf	?___wmul+1,w
  1871  0D44  1683               	bsf	3,5	;RP0=1, select bank1
  1872  0D45  1303               	bcf	3,6	;RP1=0, select bank1
  1873  0D46  00D8               	movwf	((??_weight+2)^(0+128)+1)
  1874  0D47  300A               	movlw	10
  1875  0D48  1283               	bcf	3,5	;RP0=0, select bank0
  1876  0D49  1303               	bcf	3,6	;RP1=0, select bank0
  1877  0D4A  00AB               	movwf	___wmul@multiplicand
  1878  0D4B  3000               	movlw	0
  1879  0D4C  00AC               	movwf	___wmul@multiplicand+1
  1880  0D4D  1683               	bsf	3,5	;RP0=1, select bank1
  1881  0D4E  1303               	bcf	3,6	;RP1=0, select bank1
  1882  0D4F  0869               	movf	weight@m^(0+128),w
  1883  0D50  00D9               	movwf	(??_weight+4)^(0+128)
  1884  0D51  01DA               	clrf	((??_weight+4)^(0+128)+1)
  1885  0D52  0859               	movf	(??_weight+4)^(0+128),w
  1886  0D53  1283               	bcf	3,5	;RP0=0, select bank0
  1887  0D54  1303               	bcf	3,6	;RP1=0, select bank0
  1888  0D55  00A9               	movwf	___wmul@multiplier
  1889  0D56  1683               	bsf	3,5	;RP0=1, select bank1
  1890  0D57  1303               	bcf	3,6	;RP1=0, select bank1
  1891  0D58  085A               	movf	(??_weight+5)^(0+128),w
  1892  0D59  1283               	bcf	3,5	;RP0=0, select bank0
  1893  0D5A  1303               	bcf	3,6	;RP1=0, select bank0
  1894  0D5B  00AA               	movwf	___wmul@multiplier+1
  1895  0D5C  160A  118A  222B  120A  158A  	fcall	___wmul
  1896  0D61  1283               	bcf	3,5	;RP0=0, select bank0
  1897  0D62  1303               	bcf	3,6	;RP1=0, select bank0
  1898  0D63  0829               	movf	?___wmul,w
  1899  0D64  1683               	bsf	3,5	;RP0=1, select bank1
  1900  0D65  1303               	bcf	3,6	;RP1=0, select bank1
  1901  0D66  0757               	addwf	(??_weight+2)^(0+128),w
  1902  0D67  00DB               	movwf	(??_weight+6)^(0+128)
  1903  0D68  1283               	bcf	3,5	;RP0=0, select bank0
  1904  0D69  1303               	bcf	3,6	;RP1=0, select bank0
  1905  0D6A  082A               	movf	?___wmul+1,w
  1906  0D6B  1803               	skipnc
  1907  0D6C  0A2A               	incf	?___wmul+1,w
  1908  0D6D  1683               	bsf	3,5	;RP0=1, select bank1
  1909  0D6E  1303               	bcf	3,6	;RP1=0, select bank1
  1910  0D6F  0758               	addwf	(??_weight+3)^(0+128),w
  1911  0D70  00DC               	movwf	(??_weight+7)^(0+128)
  1912  0D71  085B               	movf	(??_weight+6)^(0+128),w
  1913  0D72  1283               	bcf	3,5	;RP0=0, select bank0
  1914  0D73  1303               	bcf	3,6	;RP1=0, select bank0
  1915  0D74  00BA               	movwf	___xxtofl@val
  1916  0D75  1683               	bsf	3,5	;RP0=1, select bank1
  1917  0D76  1303               	bcf	3,6	;RP1=0, select bank1
  1918  0D77  085C               	movf	(??_weight+7)^(0+128),w
  1919  0D78  1283               	bcf	3,5	;RP0=0, select bank0
  1920  0D79  1303               	bcf	3,6	;RP1=0, select bank0
  1921  0D7A  00BB               	movwf	___xxtofl@val+1
  1922  0D7B  3000               	movlw	0
  1923  0D7C  1BBB               	btfsc	___xxtofl@val+1,7
  1924  0D7D  30FF               	movlw	255
  1925  0D7E  00BC               	movwf	___xxtofl@val+2
  1926  0D7F  00BD               	movwf	___xxtofl@val+3
  1927  0D80  3001               	movlw	1
  1928  0D81  120A  158A  2060  120A  158A  	fcall	___xxtofl
  1929  0D86  1283               	bcf	3,5	;RP0=0, select bank0
  1930  0D87  1303               	bcf	3,6	;RP1=0, select bank0
  1931  0D88  083D               	movf	?___xxtofl+3,w
  1932  0D89  1683               	bsf	3,5	;RP0=1, select bank1
  1933  0D8A  1303               	bcf	3,6	;RP1=0, select bank1
  1934  0D8B  00B8               	movwf	(___flsub@a+3)^(0+128)
  1935  0D8C  1283               	bcf	3,5	;RP0=0, select bank0
  1936  0D8D  1303               	bcf	3,6	;RP1=0, select bank0
  1937  0D8E  083C               	movf	?___xxtofl+2,w
  1938  0D8F  1683               	bsf	3,5	;RP0=1, select bank1
  1939  0D90  1303               	bcf	3,6	;RP1=0, select bank1
  1940  0D91  00B7               	movwf	(___flsub@a+2)^(0+128)
  1941  0D92  1283               	bcf	3,5	;RP0=0, select bank0
  1942  0D93  1303               	bcf	3,6	;RP1=0, select bank0
  1943  0D94  083B               	movf	?___xxtofl+1,w
  1944  0D95  1683               	bsf	3,5	;RP0=1, select bank1
  1945  0D96  1303               	bcf	3,6	;RP1=0, select bank1
  1946  0D97  00B6               	movwf	(___flsub@a+1)^(0+128)
  1947  0D98  1283               	bcf	3,5	;RP0=0, select bank0
  1948  0D99  1303               	bcf	3,6	;RP1=0, select bank0
  1949  0D9A  083A               	movf	?___xxtofl,w
  1950  0D9B  1683               	bsf	3,5	;RP0=1, select bank1
  1951  0D9C  1303               	bcf	3,6	;RP1=0, select bank1
  1952  0D9D  00B5               	movwf	___flsub@a^(0+128)
  1953  0D9E  160A  118A  2207  120A  158A  	fcall	___flsub
  1954  0DA3  1683               	bsf	3,5	;RP0=1, select bank1
  1955  0DA4  1303               	bcf	3,6	;RP1=0, select bank1
  1956  0DA5  0838               	movf	(?___flsub+3)^(0+128),w
  1957  0DA6  00C0               	movwf	(___fltol@f1+3)^(0+128)
  1958  0DA7  0837               	movf	(?___flsub+2)^(0+128),w
  1959  0DA8  00BF               	movwf	(___fltol@f1+2)^(0+128)
  1960  0DA9  0836               	movf	(?___flsub+1)^(0+128),w
  1961  0DAA  00BE               	movwf	(___fltol@f1+1)^(0+128)
  1962  0DAB  0835               	movf	?___flsub^(0+128),w
  1963  0DAC  00BD               	movwf	___fltol@f1^(0+128)
  1964  0DAD  160A  118A  22DA  120A  158A  	fcall	___fltol
  1965  0DB2  1683               	bsf	3,5	;RP0=1, select bank1
  1966  0DB3  1303               	bcf	3,6	;RP1=0, select bank1
  1967  0DB4  083D               	movf	?___fltol^(0+128),w
  1968  0DB5  00DD               	movwf	(??_weight+8)^(0+128)
  1969  0DB6  085D               	movf	(??_weight+8)^(0+128),w
  1970  0DB7  00E8               	movwf	weight@c^(0+128)
  1971                           
  1972                           ;main.c: 142:         d = (uint8_t)((((conv)/10)-(b*1000+m*100+c*10)));
  1973  0DB8  086E               	movf	(weight@conv+3)^(0+128),w
  1974  0DB9  1283               	bcf	3,5	;RP0=0, select bank0
  1975  0DBA  1303               	bcf	3,6	;RP1=0, select bank0
  1976  0DBB  00B0               	movwf	___fldiv@b+3
  1977  0DBC  1683               	bsf	3,5	;RP0=1, select bank1
  1978  0DBD  1303               	bcf	3,6	;RP1=0, select bank1
  1979  0DBE  086D               	movf	(weight@conv+2)^(0+128),w
  1980  0DBF  1283               	bcf	3,5	;RP0=0, select bank0
  1981  0DC0  1303               	bcf	3,6	;RP1=0, select bank0
  1982  0DC1  00AF               	movwf	___fldiv@b+2
  1983  0DC2  1683               	bsf	3,5	;RP0=1, select bank1
  1984  0DC3  1303               	bcf	3,6	;RP1=0, select bank1
  1985  0DC4  086C               	movf	(weight@conv+1)^(0+128),w
  1986  0DC5  1283               	bcf	3,5	;RP0=0, select bank0
  1987  0DC6  1303               	bcf	3,6	;RP1=0, select bank0
  1988  0DC7  00AE               	movwf	___fldiv@b+1
  1989  0DC8  1683               	bsf	3,5	;RP0=1, select bank1
  1990  0DC9  1303               	bcf	3,6	;RP1=0, select bank1
  1991  0DCA  086B               	movf	weight@conv^(0+128),w
  1992  0DCB  1283               	bcf	3,5	;RP0=0, select bank0
  1993  0DCC  1303               	bcf	3,6	;RP1=0, select bank0
  1994  0DCD  00AD               	movwf	___fldiv@b
  1995  0DCE  3041               	movlw	65
  1996  0DCF  00AC               	movwf	___fldiv@a+3
  1997  0DD0  3020               	movlw	32
  1998  0DD1  00AB               	movwf	___fldiv@a+2
  1999  0DD2  3000               	movlw	0
  2000  0DD3  00AA               	movwf	___fldiv@a+1
  2001  0DD4  3000               	movlw	0
  2002  0DD5  00A9               	movwf	___fldiv@a
  2003  0DD6  120A  118A  259F  120A  158A  	fcall	___fldiv
  2004  0DDB  1283               	bcf	3,5	;RP0=0, select bank0
  2005  0DDC  1303               	bcf	3,6	;RP1=0, select bank0
  2006  0DDD  082C               	movf	?___fldiv+3,w
  2007  0DDE  1683               	bsf	3,5	;RP0=1, select bank1
  2008  0DDF  1303               	bcf	3,6	;RP1=0, select bank1
  2009  0DE0  00BC               	movwf	(___flsub@b+3)^(0+128)
  2010  0DE1  1283               	bcf	3,5	;RP0=0, select bank0
  2011  0DE2  1303               	bcf	3,6	;RP1=0, select bank0
  2012  0DE3  082B               	movf	?___fldiv+2,w
  2013  0DE4  1683               	bsf	3,5	;RP0=1, select bank1
  2014  0DE5  1303               	bcf	3,6	;RP1=0, select bank1
  2015  0DE6  00BB               	movwf	(___flsub@b+2)^(0+128)
  2016  0DE7  1283               	bcf	3,5	;RP0=0, select bank0
  2017  0DE8  1303               	bcf	3,6	;RP1=0, select bank0
  2018  0DE9  082A               	movf	?___fldiv+1,w
  2019  0DEA  1683               	bsf	3,5	;RP0=1, select bank1
  2020  0DEB  1303               	bcf	3,6	;RP1=0, select bank1
  2021  0DEC  00BA               	movwf	(___flsub@b+1)^(0+128)
  2022  0DED  1283               	bcf	3,5	;RP0=0, select bank0
  2023  0DEE  1303               	bcf	3,6	;RP1=0, select bank0
  2024  0DEF  0829               	movf	?___fldiv,w
  2025  0DF0  1683               	bsf	3,5	;RP0=1, select bank1
  2026  0DF1  1303               	bcf	3,6	;RP1=0, select bank1
  2027  0DF2  00B9               	movwf	___flsub@b^(0+128)
  2028  0DF3  30E8               	movlw	232
  2029  0DF4  1283               	bcf	3,5	;RP0=0, select bank0
  2030  0DF5  1303               	bcf	3,6	;RP1=0, select bank0
  2031  0DF6  00AB               	movwf	___wmul@multiplicand
  2032  0DF7  3003               	movlw	3
  2033  0DF8  00AC               	movwf	___wmul@multiplicand+1
  2034  0DF9  1683               	bsf	3,5	;RP0=1, select bank1
  2035  0DFA  1303               	bcf	3,6	;RP1=0, select bank1
  2036  0DFB  086A               	movf	weight@b^(0+128),w
  2037  0DFC  00D5               	movwf	??_weight^(0+128)
  2038  0DFD  01D6               	clrf	(??_weight^(0+128)+1)
  2039  0DFE  0855               	movf	??_weight^(0+128),w
  2040  0DFF  1283               	bcf	3,5	;RP0=0, select bank0
  2041  0E00  1303               	bcf	3,6	;RP1=0, select bank0
  2042  0E01  00A9               	movwf	___wmul@multiplier
  2043  0E02  1683               	bsf	3,5	;RP0=1, select bank1
  2044  0E03  1303               	bcf	3,6	;RP1=0, select bank1
  2045  0E04  0856               	movf	(??_weight+1)^(0+128),w
  2046  0E05  1283               	bcf	3,5	;RP0=0, select bank0
  2047  0E06  1303               	bcf	3,6	;RP1=0, select bank0
  2048  0E07  00AA               	movwf	___wmul@multiplier+1
  2049  0E08  160A  118A  222B  120A  158A  	fcall	___wmul
  2050  0E0D  1283               	bcf	3,5	;RP0=0, select bank0
  2051  0E0E  1303               	bcf	3,6	;RP1=0, select bank0
  2052  0E0F  0829               	movf	?___wmul,w
  2053  0E10  1683               	bsf	3,5	;RP0=1, select bank1
  2054  0E11  1303               	bcf	3,6	;RP1=0, select bank1
  2055  0E12  00D7               	movwf	(??_weight+2)^(0+128)
  2056  0E13  1283               	bcf	3,5	;RP0=0, select bank0
  2057  0E14  1303               	bcf	3,6	;RP1=0, select bank0
  2058  0E15  082A               	movf	?___wmul+1,w
  2059  0E16  1683               	bsf	3,5	;RP0=1, select bank1
  2060  0E17  1303               	bcf	3,6	;RP1=0, select bank1
  2061  0E18  00D8               	movwf	((??_weight+2)^(0+128)+1)
  2062  0E19  3064               	movlw	100
  2063  0E1A  1283               	bcf	3,5	;RP0=0, select bank0
  2064  0E1B  1303               	bcf	3,6	;RP1=0, select bank0
  2065  0E1C  00AB               	movwf	___wmul@multiplicand
  2066  0E1D  3000               	movlw	0
  2067  0E1E  00AC               	movwf	___wmul@multiplicand+1
  2068  0E1F  1683               	bsf	3,5	;RP0=1, select bank1
  2069  0E20  1303               	bcf	3,6	;RP1=0, select bank1
  2070  0E21  0869               	movf	weight@m^(0+128),w
  2071  0E22  00D9               	movwf	(??_weight+4)^(0+128)
  2072  0E23  01DA               	clrf	((??_weight+4)^(0+128)+1)
  2073  0E24  0859               	movf	(??_weight+4)^(0+128),w
  2074  0E25  1283               	bcf	3,5	;RP0=0, select bank0
  2075  0E26  1303               	bcf	3,6	;RP1=0, select bank0
  2076  0E27  00A9               	movwf	___wmul@multiplier
  2077  0E28  1683               	bsf	3,5	;RP0=1, select bank1
  2078  0E29  1303               	bcf	3,6	;RP1=0, select bank1
  2079  0E2A  085A               	movf	(??_weight+5)^(0+128),w
  2080  0E2B  1283               	bcf	3,5	;RP0=0, select bank0
  2081  0E2C  1303               	bcf	3,6	;RP1=0, select bank0
  2082  0E2D  00AA               	movwf	___wmul@multiplier+1
  2083  0E2E  160A  118A  222B  120A  158A  	fcall	___wmul
  2084  0E33  1283               	bcf	3,5	;RP0=0, select bank0
  2085  0E34  1303               	bcf	3,6	;RP1=0, select bank0
  2086  0E35  0829               	movf	?___wmul,w
  2087  0E36  1683               	bsf	3,5	;RP0=1, select bank1
  2088  0E37  1303               	bcf	3,6	;RP1=0, select bank1
  2089  0E38  0757               	addwf	(??_weight+2)^(0+128),w
  2090  0E39  00DB               	movwf	(??_weight+6)^(0+128)
  2091  0E3A  1283               	bcf	3,5	;RP0=0, select bank0
  2092  0E3B  1303               	bcf	3,6	;RP1=0, select bank0
  2093  0E3C  082A               	movf	?___wmul+1,w
  2094  0E3D  1803               	skipnc
  2095  0E3E  0A2A               	incf	?___wmul+1,w
  2096  0E3F  1683               	bsf	3,5	;RP0=1, select bank1
  2097  0E40  1303               	bcf	3,6	;RP1=0, select bank1
  2098  0E41  0758               	addwf	(??_weight+3)^(0+128),w
  2099  0E42  00DC               	movwf	(??_weight+7)^(0+128)
  2100  0E43  300A               	movlw	10
  2101  0E44  1283               	bcf	3,5	;RP0=0, select bank0
  2102  0E45  1303               	bcf	3,6	;RP1=0, select bank0
  2103  0E46  00AB               	movwf	___wmul@multiplicand
  2104  0E47  3000               	movlw	0
  2105  0E48  00AC               	movwf	___wmul@multiplicand+1
  2106  0E49  1683               	bsf	3,5	;RP0=1, select bank1
  2107  0E4A  1303               	bcf	3,6	;RP1=0, select bank1
  2108  0E4B  0868               	movf	weight@c^(0+128),w
  2109  0E4C  00DD               	movwf	(??_weight+8)^(0+128)
  2110  0E4D  01DE               	clrf	((??_weight+8)^(0+128)+1)
  2111  0E4E  085D               	movf	(??_weight+8)^(0+128),w
  2112  0E4F  1283               	bcf	3,5	;RP0=0, select bank0
  2113  0E50  1303               	bcf	3,6	;RP1=0, select bank0
  2114  0E51  00A9               	movwf	___wmul@multiplier
  2115  0E52  1683               	bsf	3,5	;RP0=1, select bank1
  2116  0E53  1303               	bcf	3,6	;RP1=0, select bank1
  2117  0E54  085E               	movf	(??_weight+9)^(0+128),w
  2118  0E55  1283               	bcf	3,5	;RP0=0, select bank0
  2119  0E56  1303               	bcf	3,6	;RP1=0, select bank0
  2120  0E57  00AA               	movwf	___wmul@multiplier+1
  2121  0E58  160A  118A  222B  120A  158A  	fcall	___wmul
  2122  0E5D  1283               	bcf	3,5	;RP0=0, select bank0
  2123  0E5E  1303               	bcf	3,6	;RP1=0, select bank0
  2124  0E5F  0829               	movf	?___wmul,w
  2125  0E60  1683               	bsf	3,5	;RP0=1, select bank1
  2126  0E61  1303               	bcf	3,6	;RP1=0, select bank1
  2127  0E62  075B               	addwf	(??_weight+6)^(0+128),w
  2128  0E63  00DF               	movwf	(??_weight+10)^(0+128)
  2129  0E64  1283               	bcf	3,5	;RP0=0, select bank0
  2130  0E65  1303               	bcf	3,6	;RP1=0, select bank0
  2131  0E66  082A               	movf	?___wmul+1,w
  2132  0E67  1803               	skipnc
  2133  0E68  0A2A               	incf	?___wmul+1,w
  2134  0E69  1683               	bsf	3,5	;RP0=1, select bank1
  2135  0E6A  1303               	bcf	3,6	;RP1=0, select bank1
  2136  0E6B  075C               	addwf	(??_weight+7)^(0+128),w
  2137  0E6C  00E0               	movwf	(??_weight+11)^(0+128)
  2138  0E6D  085F               	movf	(??_weight+10)^(0+128),w
  2139  0E6E  1283               	bcf	3,5	;RP0=0, select bank0
  2140  0E6F  1303               	bcf	3,6	;RP1=0, select bank0
  2141  0E70  00BA               	movwf	___xxtofl@val
  2142  0E71  1683               	bsf	3,5	;RP0=1, select bank1
  2143  0E72  1303               	bcf	3,6	;RP1=0, select bank1
  2144  0E73  0860               	movf	(??_weight+11)^(0+128),w
  2145  0E74  1283               	bcf	3,5	;RP0=0, select bank0
  2146  0E75  1303               	bcf	3,6	;RP1=0, select bank0
  2147  0E76  00BB               	movwf	___xxtofl@val+1
  2148  0E77  3000               	movlw	0
  2149  0E78  1BBB               	btfsc	___xxtofl@val+1,7
  2150  0E79  30FF               	movlw	255
  2151  0E7A  00BC               	movwf	___xxtofl@val+2
  2152  0E7B  00BD               	movwf	___xxtofl@val+3
  2153  0E7C  3001               	movlw	1
  2154  0E7D  120A  158A  2060  120A  158A  	fcall	___xxtofl
  2155  0E82  1283               	bcf	3,5	;RP0=0, select bank0
  2156  0E83  1303               	bcf	3,6	;RP1=0, select bank0
  2157  0E84  083D               	movf	?___xxtofl+3,w
  2158  0E85  1683               	bsf	3,5	;RP0=1, select bank1
  2159  0E86  1303               	bcf	3,6	;RP1=0, select bank1
  2160  0E87  00B8               	movwf	(___flsub@a+3)^(0+128)
  2161  0E88  1283               	bcf	3,5	;RP0=0, select bank0
  2162  0E89  1303               	bcf	3,6	;RP1=0, select bank0
  2163  0E8A  083C               	movf	?___xxtofl+2,w
  2164  0E8B  1683               	bsf	3,5	;RP0=1, select bank1
  2165  0E8C  1303               	bcf	3,6	;RP1=0, select bank1
  2166  0E8D  00B7               	movwf	(___flsub@a+2)^(0+128)
  2167  0E8E  1283               	bcf	3,5	;RP0=0, select bank0
  2168  0E8F  1303               	bcf	3,6	;RP1=0, select bank0
  2169  0E90  083B               	movf	?___xxtofl+1,w
  2170  0E91  1683               	bsf	3,5	;RP0=1, select bank1
  2171  0E92  1303               	bcf	3,6	;RP1=0, select bank1
  2172  0E93  00B6               	movwf	(___flsub@a+1)^(0+128)
  2173  0E94  1283               	bcf	3,5	;RP0=0, select bank0
  2174  0E95  1303               	bcf	3,6	;RP1=0, select bank0
  2175  0E96  083A               	movf	?___xxtofl,w
  2176  0E97  1683               	bsf	3,5	;RP0=1, select bank1
  2177  0E98  1303               	bcf	3,6	;RP1=0, select bank1
  2178  0E99  00B5               	movwf	___flsub@a^(0+128)
  2179  0E9A  160A  118A  2207  120A  158A  	fcall	___flsub
  2180  0E9F  1683               	bsf	3,5	;RP0=1, select bank1
  2181  0EA0  1303               	bcf	3,6	;RP1=0, select bank1
  2182  0EA1  0838               	movf	(?___flsub+3)^(0+128),w
  2183  0EA2  00C0               	movwf	(___fltol@f1+3)^(0+128)
  2184  0EA3  0837               	movf	(?___flsub+2)^(0+128),w
  2185  0EA4  00BF               	movwf	(___fltol@f1+2)^(0+128)
  2186  0EA5  0836               	movf	(?___flsub+1)^(0+128),w
  2187  0EA6  00BE               	movwf	(___fltol@f1+1)^(0+128)
  2188  0EA7  0835               	movf	?___flsub^(0+128),w
  2189  0EA8  00BD               	movwf	___fltol@f1^(0+128)
  2190  0EA9  160A  118A  22DA  120A  158A  	fcall	___fltol
  2191  0EAE  1683               	bsf	3,5	;RP0=1, select bank1
  2192  0EAF  1303               	bcf	3,6	;RP1=0, select bank1
  2193  0EB0  083D               	movf	?___fltol^(0+128),w
  2194  0EB1  00E1               	movwf	(??_weight+12)^(0+128)
  2195  0EB2  0861               	movf	(??_weight+12)^(0+128),w
  2196  0EB3  00E7               	movwf	weight@d^(0+128)
  2197                           
  2198                           ;main.c: 143:         u = (uint8_t)((conv)/1-(b*10000+m*1000+c*100+d*10));
  2199  0EB4  086E               	movf	(weight@conv+3)^(0+128),w
  2200  0EB5  1283               	bcf	3,5	;RP0=0, select bank0
  2201  0EB6  1303               	bcf	3,6	;RP1=0, select bank0
  2202  0EB7  00B0               	movwf	___fldiv@b+3
  2203  0EB8  1683               	bsf	3,5	;RP0=1, select bank1
  2204  0EB9  1303               	bcf	3,6	;RP1=0, select bank1
  2205  0EBA  086D               	movf	(weight@conv+2)^(0+128),w
  2206  0EBB  1283               	bcf	3,5	;RP0=0, select bank0
  2207  0EBC  1303               	bcf	3,6	;RP1=0, select bank0
  2208  0EBD  00AF               	movwf	___fldiv@b+2
  2209  0EBE  1683               	bsf	3,5	;RP0=1, select bank1
  2210  0EBF  1303               	bcf	3,6	;RP1=0, select bank1
  2211  0EC0  086C               	movf	(weight@conv+1)^(0+128),w
  2212  0EC1  1283               	bcf	3,5	;RP0=0, select bank0
  2213  0EC2  1303               	bcf	3,6	;RP1=0, select bank0
  2214  0EC3  00AE               	movwf	___fldiv@b+1
  2215  0EC4  1683               	bsf	3,5	;RP0=1, select bank1
  2216  0EC5  1303               	bcf	3,6	;RP1=0, select bank1
  2217  0EC6  086B               	movf	weight@conv^(0+128),w
  2218  0EC7  1283               	bcf	3,5	;RP0=0, select bank0
  2219  0EC8  1303               	bcf	3,6	;RP1=0, select bank0
  2220  0EC9  00AD               	movwf	___fldiv@b
  2221  0ECA  303F               	movlw	63
  2222  0ECB  00AC               	movwf	___fldiv@a+3
  2223  0ECC  3080               	movlw	128
  2224  0ECD  00AB               	movwf	___fldiv@a+2
  2225  0ECE  3000               	movlw	0
  2226  0ECF  00AA               	movwf	___fldiv@a+1
  2227  0ED0  3000               	movlw	0
  2228  0ED1  00A9               	movwf	___fldiv@a
  2229  0ED2  120A  118A  259F  120A  158A  	fcall	___fldiv
  2230  0ED7  1283               	bcf	3,5	;RP0=0, select bank0
  2231  0ED8  1303               	bcf	3,6	;RP1=0, select bank0
  2232  0ED9  082C               	movf	?___fldiv+3,w
  2233  0EDA  1683               	bsf	3,5	;RP0=1, select bank1
  2234  0EDB  1303               	bcf	3,6	;RP1=0, select bank1
  2235  0EDC  00BC               	movwf	(___flsub@b+3)^(0+128)
  2236  0EDD  1283               	bcf	3,5	;RP0=0, select bank0
  2237  0EDE  1303               	bcf	3,6	;RP1=0, select bank0
  2238  0EDF  082B               	movf	?___fldiv+2,w
  2239  0EE0  1683               	bsf	3,5	;RP0=1, select bank1
  2240  0EE1  1303               	bcf	3,6	;RP1=0, select bank1
  2241  0EE2  00BB               	movwf	(___flsub@b+2)^(0+128)
  2242  0EE3  1283               	bcf	3,5	;RP0=0, select bank0
  2243  0EE4  1303               	bcf	3,6	;RP1=0, select bank0
  2244  0EE5  082A               	movf	?___fldiv+1,w
  2245  0EE6  1683               	bsf	3,5	;RP0=1, select bank1
  2246  0EE7  1303               	bcf	3,6	;RP1=0, select bank1
  2247  0EE8  00BA               	movwf	(___flsub@b+1)^(0+128)
  2248  0EE9  1283               	bcf	3,5	;RP0=0, select bank0
  2249  0EEA  1303               	bcf	3,6	;RP1=0, select bank0
  2250  0EEB  0829               	movf	?___fldiv,w
  2251  0EEC  1683               	bsf	3,5	;RP0=1, select bank1
  2252  0EED  1303               	bcf	3,6	;RP1=0, select bank1
  2253  0EEE  00B9               	movwf	___flsub@b^(0+128)
  2254  0EEF  3010               	movlw	16
  2255  0EF0  1283               	bcf	3,5	;RP0=0, select bank0
  2256  0EF1  1303               	bcf	3,6	;RP1=0, select bank0
  2257  0EF2  00AB               	movwf	___wmul@multiplicand
  2258  0EF3  3027               	movlw	39
  2259  0EF4  00AC               	movwf	___wmul@multiplicand+1
  2260  0EF5  1683               	bsf	3,5	;RP0=1, select bank1
  2261  0EF6  1303               	bcf	3,6	;RP1=0, select bank1
  2262  0EF7  086A               	movf	weight@b^(0+128),w
  2263  0EF8  00D5               	movwf	??_weight^(0+128)
  2264  0EF9  01D6               	clrf	(??_weight^(0+128)+1)
  2265  0EFA  0855               	movf	??_weight^(0+128),w
  2266  0EFB  1283               	bcf	3,5	;RP0=0, select bank0
  2267  0EFC  1303               	bcf	3,6	;RP1=0, select bank0
  2268  0EFD  00A9               	movwf	___wmul@multiplier
  2269  0EFE  1683               	bsf	3,5	;RP0=1, select bank1
  2270  0EFF  1303               	bcf	3,6	;RP1=0, select bank1
  2271  0F00  0856               	movf	(??_weight+1)^(0+128),w
  2272  0F01  1283               	bcf	3,5	;RP0=0, select bank0
  2273  0F02  1303               	bcf	3,6	;RP1=0, select bank0
  2274  0F03  00AA               	movwf	___wmul@multiplier+1
  2275  0F04  160A  118A  222B  120A  158A  	fcall	___wmul
  2276  0F09  1283               	bcf	3,5	;RP0=0, select bank0
  2277  0F0A  1303               	bcf	3,6	;RP1=0, select bank0
  2278  0F0B  0829               	movf	?___wmul,w
  2279  0F0C  1683               	bsf	3,5	;RP0=1, select bank1
  2280  0F0D  1303               	bcf	3,6	;RP1=0, select bank1
  2281  0F0E  00D7               	movwf	(??_weight+2)^(0+128)
  2282  0F0F  1283               	bcf	3,5	;RP0=0, select bank0
  2283  0F10  1303               	bcf	3,6	;RP1=0, select bank0
  2284  0F11  082A               	movf	?___wmul+1,w
  2285  0F12  1683               	bsf	3,5	;RP0=1, select bank1
  2286  0F13  1303               	bcf	3,6	;RP1=0, select bank1
  2287  0F14  00D8               	movwf	((??_weight+2)^(0+128)+1)
  2288  0F15  30E8               	movlw	232
  2289  0F16  1283               	bcf	3,5	;RP0=0, select bank0
  2290  0F17  1303               	bcf	3,6	;RP1=0, select bank0
  2291  0F18  00AB               	movwf	___wmul@multiplicand
  2292  0F19  3003               	movlw	3
  2293  0F1A  00AC               	movwf	___wmul@multiplicand+1
  2294  0F1B  1683               	bsf	3,5	;RP0=1, select bank1
  2295  0F1C  1303               	bcf	3,6	;RP1=0, select bank1
  2296  0F1D  0869               	movf	weight@m^(0+128),w
  2297  0F1E  00D9               	movwf	(??_weight+4)^(0+128)
  2298  0F1F  01DA               	clrf	((??_weight+4)^(0+128)+1)
  2299  0F20  0859               	movf	(??_weight+4)^(0+128),w
  2300  0F21  1283               	bcf	3,5	;RP0=0, select bank0
  2301  0F22  1303               	bcf	3,6	;RP1=0, select bank0
  2302  0F23  00A9               	movwf	___wmul@multiplier
  2303  0F24  1683               	bsf	3,5	;RP0=1, select bank1
  2304  0F25  1303               	bcf	3,6	;RP1=0, select bank1
  2305  0F26  085A               	movf	(??_weight+5)^(0+128),w
  2306  0F27  1283               	bcf	3,5	;RP0=0, select bank0
  2307  0F28  1303               	bcf	3,6	;RP1=0, select bank0
  2308  0F29  00AA               	movwf	___wmul@multiplier+1
  2309  0F2A  160A  118A  222B  120A  158A  	fcall	___wmul
  2310  0F2F  1283               	bcf	3,5	;RP0=0, select bank0
  2311  0F30  1303               	bcf	3,6	;RP1=0, select bank0
  2312  0F31  0829               	movf	?___wmul,w
  2313  0F32  1683               	bsf	3,5	;RP0=1, select bank1
  2314  0F33  1303               	bcf	3,6	;RP1=0, select bank1
  2315  0F34  0757               	addwf	(??_weight+2)^(0+128),w
  2316  0F35  00DB               	movwf	(??_weight+6)^(0+128)
  2317  0F36  1283               	bcf	3,5	;RP0=0, select bank0
  2318  0F37  1303               	bcf	3,6	;RP1=0, select bank0
  2319  0F38  082A               	movf	?___wmul+1,w
  2320  0F39  1803               	skipnc
  2321  0F3A  0A2A               	incf	?___wmul+1,w
  2322  0F3B  1683               	bsf	3,5	;RP0=1, select bank1
  2323  0F3C  1303               	bcf	3,6	;RP1=0, select bank1
  2324  0F3D  0758               	addwf	(??_weight+3)^(0+128),w
  2325  0F3E  00DC               	movwf	(??_weight+7)^(0+128)
  2326  0F3F  3064               	movlw	100
  2327  0F40  1283               	bcf	3,5	;RP0=0, select bank0
  2328  0F41  1303               	bcf	3,6	;RP1=0, select bank0
  2329  0F42  00AB               	movwf	___wmul@multiplicand
  2330  0F43  3000               	movlw	0
  2331  0F44  00AC               	movwf	___wmul@multiplicand+1
  2332  0F45  1683               	bsf	3,5	;RP0=1, select bank1
  2333  0F46  1303               	bcf	3,6	;RP1=0, select bank1
  2334  0F47  0868               	movf	weight@c^(0+128),w
  2335  0F48  00DD               	movwf	(??_weight+8)^(0+128)
  2336  0F49  01DE               	clrf	((??_weight+8)^(0+128)+1)
  2337  0F4A  085D               	movf	(??_weight+8)^(0+128),w
  2338  0F4B  1283               	bcf	3,5	;RP0=0, select bank0
  2339  0F4C  1303               	bcf	3,6	;RP1=0, select bank0
  2340  0F4D  00A9               	movwf	___wmul@multiplier
  2341  0F4E  1683               	bsf	3,5	;RP0=1, select bank1
  2342  0F4F  1303               	bcf	3,6	;RP1=0, select bank1
  2343  0F50  085E               	movf	(??_weight+9)^(0+128),w
  2344  0F51  1283               	bcf	3,5	;RP0=0, select bank0
  2345  0F52  1303               	bcf	3,6	;RP1=0, select bank0
  2346  0F53  00AA               	movwf	___wmul@multiplier+1
  2347  0F54  160A  118A  222B  120A  158A  	fcall	___wmul
  2348  0F59  1283               	bcf	3,5	;RP0=0, select bank0
  2349  0F5A  1303               	bcf	3,6	;RP1=0, select bank0
  2350  0F5B  0829               	movf	?___wmul,w
  2351  0F5C  1683               	bsf	3,5	;RP0=1, select bank1
  2352  0F5D  1303               	bcf	3,6	;RP1=0, select bank1
  2353  0F5E  075B               	addwf	(??_weight+6)^(0+128),w
  2354  0F5F  00DF               	movwf	(??_weight+10)^(0+128)
  2355  0F60  1283               	bcf	3,5	;RP0=0, select bank0
  2356  0F61  1303               	bcf	3,6	;RP1=0, select bank0
  2357  0F62  082A               	movf	?___wmul+1,w
  2358  0F63  1803               	skipnc
  2359  0F64  0A2A               	incf	?___wmul+1,w
  2360  0F65  1683               	bsf	3,5	;RP0=1, select bank1
  2361  0F66  1303               	bcf	3,6	;RP1=0, select bank1
  2362  0F67  075C               	addwf	(??_weight+7)^(0+128),w
  2363  0F68  00E0               	movwf	(??_weight+11)^(0+128)
  2364  0F69  300A               	movlw	10
  2365  0F6A  1283               	bcf	3,5	;RP0=0, select bank0
  2366  0F6B  1303               	bcf	3,6	;RP1=0, select bank0
  2367  0F6C  00AB               	movwf	___wmul@multiplicand
  2368  0F6D  3000               	movlw	0
  2369  0F6E  00AC               	movwf	___wmul@multiplicand+1
  2370  0F6F  1683               	bsf	3,5	;RP0=1, select bank1
  2371  0F70  1303               	bcf	3,6	;RP1=0, select bank1
  2372  0F71  0867               	movf	weight@d^(0+128),w
  2373  0F72  00E1               	movwf	(??_weight+12)^(0+128)
  2374  0F73  01E2               	clrf	((??_weight+12)^(0+128)+1)
  2375  0F74  0861               	movf	(??_weight+12)^(0+128),w
  2376  0F75  1283               	bcf	3,5	;RP0=0, select bank0
  2377  0F76  1303               	bcf	3,6	;RP1=0, select bank0
  2378  0F77  00A9               	movwf	___wmul@multiplier
  2379  0F78  1683               	bsf	3,5	;RP0=1, select bank1
  2380  0F79  1303               	bcf	3,6	;RP1=0, select bank1
  2381  0F7A  0862               	movf	(??_weight+13)^(0+128),w
  2382  0F7B  1283               	bcf	3,5	;RP0=0, select bank0
  2383  0F7C  1303               	bcf	3,6	;RP1=0, select bank0
  2384  0F7D  00AA               	movwf	___wmul@multiplier+1
  2385  0F7E  160A  118A  222B  120A  158A  	fcall	___wmul
  2386  0F83  1283               	bcf	3,5	;RP0=0, select bank0
  2387  0F84  1303               	bcf	3,6	;RP1=0, select bank0
  2388  0F85  0829               	movf	?___wmul,w
  2389  0F86  1683               	bsf	3,5	;RP0=1, select bank1
  2390  0F87  1303               	bcf	3,6	;RP1=0, select bank1
  2391  0F88  075F               	addwf	(??_weight+10)^(0+128),w
  2392  0F89  00E3               	movwf	(??_weight+14)^(0+128)
  2393  0F8A  1283               	bcf	3,5	;RP0=0, select bank0
  2394  0F8B  1303               	bcf	3,6	;RP1=0, select bank0
  2395  0F8C  082A               	movf	?___wmul+1,w
  2396  0F8D  1803               	skipnc
  2397  0F8E  0A2A               	incf	?___wmul+1,w
  2398  0F8F  1683               	bsf	3,5	;RP0=1, select bank1
  2399  0F90  1303               	bcf	3,6	;RP1=0, select bank1
  2400  0F91  0760               	addwf	(??_weight+11)^(0+128),w
  2401  0F92  00E4               	movwf	(??_weight+15)^(0+128)
  2402  0F93  0863               	movf	(??_weight+14)^(0+128),w
  2403  0F94  1283               	bcf	3,5	;RP0=0, select bank0
  2404  0F95  1303               	bcf	3,6	;RP1=0, select bank0
  2405  0F96  00BA               	movwf	___xxtofl@val
  2406  0F97  1683               	bsf	3,5	;RP0=1, select bank1
  2407  0F98  1303               	bcf	3,6	;RP1=0, select bank1
  2408  0F99  0864               	movf	(??_weight+15)^(0+128),w
  2409  0F9A  1283               	bcf	3,5	;RP0=0, select bank0
  2410  0F9B  1303               	bcf	3,6	;RP1=0, select bank0
  2411  0F9C  00BB               	movwf	___xxtofl@val+1
  2412  0F9D  3000               	movlw	0
  2413  0F9E  1BBB               	btfsc	___xxtofl@val+1,7
  2414  0F9F  30FF               	movlw	255
  2415  0FA0  00BC               	movwf	___xxtofl@val+2
  2416  0FA1  00BD               	movwf	___xxtofl@val+3
  2417  0FA2  3001               	movlw	1
  2418  0FA3  120A  158A  2060  120A  158A  	fcall	___xxtofl
  2419  0FA8  1283               	bcf	3,5	;RP0=0, select bank0
  2420  0FA9  1303               	bcf	3,6	;RP1=0, select bank0
  2421  0FAA  083D               	movf	?___xxtofl+3,w
  2422  0FAB  1683               	bsf	3,5	;RP0=1, select bank1
  2423  0FAC  1303               	bcf	3,6	;RP1=0, select bank1
  2424  0FAD  00B8               	movwf	(___flsub@a+3)^(0+128)
  2425  0FAE  1283               	bcf	3,5	;RP0=0, select bank0
  2426  0FAF  1303               	bcf	3,6	;RP1=0, select bank0
  2427  0FB0  083C               	movf	?___xxtofl+2,w
  2428  0FB1  1683               	bsf	3,5	;RP0=1, select bank1
  2429  0FB2  1303               	bcf	3,6	;RP1=0, select bank1
  2430  0FB3  00B7               	movwf	(___flsub@a+2)^(0+128)
  2431  0FB4  1283               	bcf	3,5	;RP0=0, select bank0
  2432  0FB5  1303               	bcf	3,6	;RP1=0, select bank0
  2433  0FB6  083B               	movf	?___xxtofl+1,w
  2434  0FB7  1683               	bsf	3,5	;RP0=1, select bank1
  2435  0FB8  1303               	bcf	3,6	;RP1=0, select bank1
  2436  0FB9  00B6               	movwf	(___flsub@a+1)^(0+128)
  2437  0FBA  1283               	bcf	3,5	;RP0=0, select bank0
  2438  0FBB  1303               	bcf	3,6	;RP1=0, select bank0
  2439  0FBC  083A               	movf	?___xxtofl,w
  2440  0FBD  1683               	bsf	3,5	;RP0=1, select bank1
  2441  0FBE  1303               	bcf	3,6	;RP1=0, select bank1
  2442  0FBF  00B5               	movwf	___flsub@a^(0+128)
  2443  0FC0  160A  118A  2207  120A  158A  	fcall	___flsub
  2444  0FC5  1683               	bsf	3,5	;RP0=1, select bank1
  2445  0FC6  1303               	bcf	3,6	;RP1=0, select bank1
  2446  0FC7  0838               	movf	(?___flsub+3)^(0+128),w
  2447  0FC8  00C0               	movwf	(___fltol@f1+3)^(0+128)
  2448  0FC9  0837               	movf	(?___flsub+2)^(0+128),w
  2449  0FCA  00BF               	movwf	(___fltol@f1+2)^(0+128)
  2450  0FCB  0836               	movf	(?___flsub+1)^(0+128),w
  2451  0FCC  00BE               	movwf	(___fltol@f1+1)^(0+128)
  2452  0FCD  0835               	movf	?___flsub^(0+128),w
  2453  0FCE  00BD               	movwf	___fltol@f1^(0+128)
  2454  0FCF  160A  118A  22DA  120A  158A  	fcall	___fltol
  2455  0FD4  1683               	bsf	3,5	;RP0=1, select bank1
  2456  0FD5  1303               	bcf	3,6	;RP1=0, select bank1
  2457  0FD6  083D               	movf	?___fltol^(0+128),w
  2458  0FD7  00E5               	movwf	(??_weight+16)^(0+128)
  2459  0FD8  0865               	movf	(??_weight+16)^(0+128),w
  2460  0FD9  00E6               	movwf	weight@u^(0+128)
  2461  0FDA                     l2989:	
  2462                           
  2463                           ;main.c: 145:     *v4=b+48;
  2464  0FDA  1683               	bsf	3,5	;RP0=1, select bank1
  2465  0FDB  1303               	bcf	3,6	;RP1=0, select bank1
  2466  0FDC  086A               	movf	weight@b^(0+128),w
  2467  0FDD  3E30               	addlw	48
  2468  0FDE  00D5               	movwf	??_weight^(0+128)
  2469  0FDF  0850               	movf	weight@v4^(0+128),w
  2470  0FE0  0084               	movwf	4
  2471  0FE1  0855               	movf	??_weight^(0+128),w
  2472  0FE2  0080               	movwf	0
  2473  0FE3                     l2991:	
  2474                           
  2475                           ;main.c: 146:     *v0=m+48;
  2476  0FE3  0869               	movf	weight@m^(0+128),w
  2477  0FE4  3E30               	addlw	48
  2478  0FE5  00D5               	movwf	??_weight^(0+128)
  2479  0FE6  0851               	movf	weight@v0^(0+128),w
  2480  0FE7  0084               	movwf	4
  2481  0FE8  0855               	movf	??_weight^(0+128),w
  2482  0FE9  0080               	movwf	0
  2483  0FEA                     l2993:	
  2484                           
  2485                           ;main.c: 147:     *v1=c+48;
  2486  0FEA  0868               	movf	weight@c^(0+128),w
  2487  0FEB  3E30               	addlw	48
  2488  0FEC  00D5               	movwf	??_weight^(0+128)
  2489  0FED  0852               	movf	weight@v1^(0+128),w
  2490  0FEE  0084               	movwf	4
  2491  0FEF  0855               	movf	??_weight^(0+128),w
  2492  0FF0  0080               	movwf	0
  2493  0FF1                     l2995:	
  2494                           
  2495                           ;main.c: 148:     *v2=d+48;
  2496  0FF1  0867               	movf	weight@d^(0+128),w
  2497  0FF2  3E30               	addlw	48
  2498  0FF3  00D5               	movwf	??_weight^(0+128)
  2499  0FF4  0853               	movf	weight@v2^(0+128),w
  2500  0FF5  0084               	movwf	4
  2501  0FF6  0855               	movf	??_weight^(0+128),w
  2502  0FF7  0080               	movwf	0
  2503  0FF8                     l2997:	
  2504                           
  2505                           ;main.c: 149:     *v3=u+48;
  2506  0FF8  0866               	movf	weight@u^(0+128),w
  2507  0FF9  3E30               	addlw	48
  2508  0FFA  00D5               	movwf	??_weight^(0+128)
  2509  0FFB  0854               	movf	weight@v3^(0+128),w
  2510  0FFC  0084               	movwf	4
  2511  0FFD  0855               	movf	??_weight^(0+128),w
  2512  0FFE  0080               	movwf	0
  2513  0FFF                     l114:	
  2514  0FFF  0008               	return
  2515  1000                     __end_of_weight:	
  2516                           
  2517                           	psect	text2
  2518  122B                     __ptext2:	
  2519 ;; *************** function ___wmul *****************
  2520 ;; Defined at:
  2521 ;;		line 15 in file "D:\Program Files (x86)\Microchip\xc8\v2.10\pic\sources\c90\common\Umul16.c"
  2522 ;; Parameters:    Size  Location     Type
  2523 ;;  multiplier      2    9[BANK0 ] unsigned int 
  2524 ;;  multiplicand    2   11[BANK0 ] unsigned int 
  2525 ;; Auto vars:     Size  Location     Type
  2526 ;;  product         2   13[BANK0 ] unsigned int 
  2527 ;; Return value:  Size  Location     Type
  2528 ;;                  2    9[BANK0 ] unsigned int 
  2529 ;; Registers used:
  2530 ;;		wreg, status,2, status,0
  2531 ;; Tracked objects:
  2532 ;;		On entry : 0/0
  2533 ;;		On exit  : 0/0
  2534 ;;		Unchanged: 0/0
  2535 ;; Data sizes:     COMMON   BANK0   BANK1   BANK3   BANK2
  2536 ;;      Params:         0       4       0       0       0
  2537 ;;      Locals:         0       2       0       0       0
  2538 ;;      Temps:          0       0       0       0       0
  2539 ;;      Totals:         0       6       0       0       0
  2540 ;;Total ram usage:        6 bytes
  2541 ;; Hardware stack levels used:    1
  2542 ;; Hardware stack levels required when called:    2
  2543 ;; This function calls:
  2544 ;;		Nothing
  2545 ;; This function is called by:
  2546 ;;		_weight
  2547 ;; This function uses a non-reentrant model
  2548 ;;
  2549                           
  2550                           
  2551                           ;psect for function ___wmul
  2552  122B                     ___wmul:	
  2553  122B                     l2953:	
  2554                           ;incstack = 0
  2555                           ; Regs used in ___wmul: [wreg+status,2+status,0]
  2556                           
  2557  122B  1283               	bcf	3,5	;RP0=0, select bank0
  2558  122C  1303               	bcf	3,6	;RP1=0, select bank0
  2559  122D  01AD               	clrf	___wmul@product
  2560  122E  01AE               	clrf	___wmul@product+1
  2561  122F                     l2955:	
  2562  122F  1C29               	btfss	___wmul@multiplier,0
  2563  1230  2A32               	goto	u4411
  2564  1231  2A33               	goto	u4410
  2565  1232                     u4411:	
  2566  1232  2A39               	goto	l309
  2567  1233                     u4410:	
  2568  1233                     l2957:	
  2569  1233  082B               	movf	___wmul@multiplicand,w
  2570  1234  07AD               	addwf	___wmul@product,f
  2571  1235  1803               	skipnc
  2572  1236  0AAE               	incf	___wmul@product+1,f
  2573  1237  082C               	movf	___wmul@multiplicand+1,w
  2574  1238  07AE               	addwf	___wmul@product+1,f
  2575  1239                     l309:	
  2576  1239  3001               	movlw	1
  2577  123A                     u4425:	
  2578  123A  1003               	clrc
  2579  123B  0DAB               	rlf	___wmul@multiplicand,f
  2580  123C  0DAC               	rlf	___wmul@multiplicand+1,f
  2581  123D  3EFF               	addlw	-1
  2582  123E  1D03               	skipz
  2583  123F  2A3A               	goto	u4425
  2584  1240                     l2959:	
  2585  1240  3001               	movlw	1
  2586  1241                     u4435:	
  2587  1241  1003               	clrc
  2588  1242  0CAA               	rrf	___wmul@multiplier+1,f
  2589  1243  0CA9               	rrf	___wmul@multiplier,f
  2590  1244  3EFF               	addlw	-1
  2591  1245  1D03               	skipz
  2592  1246  2A41               	goto	u4435
  2593  1247                     l2961:	
  2594  1247  0829               	movf	___wmul@multiplier,w
  2595  1248  042A               	iorwf	___wmul@multiplier+1,w
  2596  1249  1D03               	btfss	3,2
  2597  124A  2A4C               	goto	u4441
  2598  124B  2A4D               	goto	u4440
  2599  124C                     u4441:	
  2600  124C  2A2F               	goto	l2955
  2601  124D                     u4440:	
  2602  124D                     l2963:	
  2603  124D  082E               	movf	___wmul@product+1,w
  2604  124E  00AA               	movwf	?___wmul+1
  2605  124F  082D               	movf	___wmul@product,w
  2606  1250  00A9               	movwf	?___wmul
  2607  1251                     l311:	
  2608  1251  0008               	return
  2609  1252                     __end_of___wmul:	
  2610                           
  2611                           	psect	text3
  2612  1207                     __ptext3:	
  2613 ;; *************** function ___flsub *****************
  2614 ;; Defined at:
  2615 ;;		line 242 in file "D:\Program Files (x86)\Microchip\xc8\v2.10\pic\sources\c90\common\sprcadd.c"
  2616 ;; Parameters:    Size  Location     Type
  2617 ;;  a               4   21[BANK1 ] unsigned int 
  2618 ;;  b               4   25[BANK1 ] unsigned int 
  2619 ;; Auto vars:     Size  Location     Type
  2620 ;;		None
  2621 ;; Return value:  Size  Location     Type
  2622 ;;                  4   21[BANK1 ] unsigned int 
  2623 ;; Registers used:
  2624 ;;		wreg, status,2, status,0, btemp+1, pclath, cstack
  2625 ;; Tracked objects:
  2626 ;;		On entry : 0/0
  2627 ;;		On exit  : 0/0
  2628 ;;		Unchanged: 0/0
  2629 ;; Data sizes:     COMMON   BANK0   BANK1   BANK3   BANK2
  2630 ;;      Params:         0       0       8       0       0
  2631 ;;      Locals:         0       0       0       0       0
  2632 ;;      Temps:          0       0       0       0       0
  2633 ;;      Totals:         0       0       8       0       0
  2634 ;;Total ram usage:        8 bytes
  2635 ;; Hardware stack levels used:    1
  2636 ;; Hardware stack levels required when called:    3
  2637 ;; This function calls:
  2638 ;;		___fladd
  2639 ;; This function is called by:
  2640 ;;		_main
  2641 ;;		_weight
  2642 ;; This function uses a non-reentrant model
  2643 ;;
  2644                           
  2645                           
  2646                           ;psect for function ___flsub
  2647  1207                     ___flsub:	
  2648  1207                     l2967:	
  2649                           ;incstack = 0
  2650                           ; Regs used in ___flsub: [wreg+status,2+status,0+btemp+1+pclath+cstack]
  2651                           
  2652  1207  3080               	movlw	128
  2653  1208  1683               	bsf	3,5	;RP0=1, select bank1
  2654  1209  1303               	bcf	3,6	;RP1=0, select bank1
  2655  120A  06B8               	xorwf	(___flsub@a+3)^(0+128),f
  2656  120B                     l2969:	
  2657  120B  083C               	movf	(___flsub@b+3)^(0+128),w
  2658  120C  00B0               	movwf	(___fladd@b+3)^(0+128)
  2659  120D  083B               	movf	(___flsub@b+2)^(0+128),w
  2660  120E  00AF               	movwf	(___fladd@b+2)^(0+128)
  2661  120F  083A               	movf	(___flsub@b+1)^(0+128),w
  2662  1210  00AE               	movwf	(___fladd@b+1)^(0+128)
  2663  1211  0839               	movf	___flsub@b^(0+128),w
  2664  1212  00AD               	movwf	___fladd@b^(0+128)
  2665  1213  0838               	movf	(___flsub@a+3)^(0+128),w
  2666  1214  00B4               	movwf	(___fladd@a+3)^(0+128)
  2667  1215  0837               	movf	(___flsub@a+2)^(0+128),w
  2668  1216  00B3               	movwf	(___fladd@a+2)^(0+128)
  2669  1217  0836               	movf	(___flsub@a+1)^(0+128),w
  2670  1218  00B2               	movwf	(___fladd@a+1)^(0+128)
  2671  1219  0835               	movf	___flsub@a^(0+128),w
  2672  121A  00B1               	movwf	___fladd@a^(0+128)
  2673  121B  160A  118A  2482  160A  118A  	fcall	___fladd
  2674  1220  1683               	bsf	3,5	;RP0=1, select bank1
  2675  1221  1303               	bcf	3,6	;RP1=0, select bank1
  2676  1222  0830               	movf	(?___fladd+3)^(0+128),w
  2677  1223  00B8               	movwf	(?___flsub+3)^(0+128)
  2678  1224  082F               	movf	(?___fladd+2)^(0+128),w
  2679  1225  00B7               	movwf	(?___flsub+2)^(0+128)
  2680  1226  082E               	movf	(?___fladd+1)^(0+128),w
  2681  1227  00B6               	movwf	(?___flsub+1)^(0+128)
  2682  1228  082D               	movf	?___fladd^(0+128),w
  2683  1229  00B5               	movwf	?___flsub^(0+128)
  2684  122A                     l648:	
  2685  122A  0008               	return
  2686  122B                     __end_of___flsub:	
  2687                           
  2688                           	psect	text4
  2689  13DE                     __ptext4:	
  2690 ;; *************** function ___flge *****************
  2691 ;; Defined at:
  2692 ;;		line 4 in file "D:\Program Files (x86)\Microchip\xc8\v2.10\pic\sources\c90\common\flge.c"
  2693 ;; Parameters:    Size  Location     Type
  2694 ;;  ff1             4    9[BANK0 ] unsigned int 
  2695 ;;  ff2             4   13[BANK0 ] unsigned int 
  2696 ;; Auto vars:     Size  Location     Type
  2697 ;;		None
  2698 ;; Return value:  Size  Location     Type
  2699 ;;		None               void
  2700 ;; Registers used:
  2701 ;;		wreg, status,2, status,0
  2702 ;; Tracked objects:
  2703 ;;		On entry : 0/0
  2704 ;;		On exit  : 0/0
  2705 ;;		Unchanged: 0/0
  2706 ;; Data sizes:     COMMON   BANK0   BANK1   BANK3   BANK2
  2707 ;;      Params:         0       8       0       0       0
  2708 ;;      Locals:         0       0       0       0       0
  2709 ;;      Temps:          0       4       0       0       0
  2710 ;;      Totals:         0      12       0       0       0
  2711 ;;Total ram usage:       12 bytes
  2712 ;; Hardware stack levels used:    1
  2713 ;; Hardware stack levels required when called:    2
  2714 ;; This function calls:
  2715 ;;		Nothing
  2716 ;; This function is called by:
  2717 ;;		_weight
  2718 ;; This function uses a non-reentrant model
  2719 ;;
  2720                           
  2721                           
  2722                           ;psect for function ___flge
  2723  13DE                     ___flge:	
  2724  13DE                     l2263:	
  2725                           ;incstack = 0
  2726                           ; Regs used in ___flge: [wreg+status,2+status,0]
  2727                           
  2728  13DE  3000               	movlw	0
  2729  13DF  1283               	bcf	3,5	;RP0=0, select bank0
  2730  13E0  1303               	bcf	3,6	;RP1=0, select bank0
  2731  13E1  0529               	andwf	___flge@ff1,w
  2732  13E2  00B1               	movwf	??___flge
  2733  13E3  3000               	movlw	0
  2734  13E4  052A               	andwf	___flge@ff1+1,w
  2735  13E5  00B2               	movwf	??___flge+1
  2736  13E6  3080               	movlw	128
  2737  13E7  052B               	andwf	___flge@ff1+2,w
  2738  13E8  00B3               	movwf	??___flge+2
  2739  13E9  307F               	movlw	127
  2740  13EA  052C               	andwf	___flge@ff1+3,w
  2741  13EB  00B4               	movwf	??___flge+3
  2742  13EC  0834               	movf	??___flge+3,w
  2743  13ED  0433               	iorwf	??___flge+2,w
  2744  13EE  0432               	iorwf	??___flge+1,w
  2745  13EF  0431               	iorwf	??___flge,w
  2746  13F0  1D03               	skipz
  2747  13F1  2BF3               	goto	u3001
  2748  13F2  2BF4               	goto	u3000
  2749  13F3                     u3001:	
  2750  13F3  2BFC               	goto	l483
  2751  13F4                     u3000:	
  2752  13F4                     l2265:	
  2753  13F4  3000               	movlw	0
  2754  13F5  00AC               	movwf	___flge@ff1+3
  2755  13F6  3000               	movlw	0
  2756  13F7  00AB               	movwf	___flge@ff1+2
  2757  13F8  3000               	movlw	0
  2758  13F9  00AA               	movwf	___flge@ff1+1
  2759  13FA  3000               	movlw	0
  2760  13FB  00A9               	movwf	___flge@ff1
  2761  13FC                     l483:	
  2762  13FC  3000               	movlw	0
  2763  13FD  052D               	andwf	___flge@ff2,w
  2764  13FE  00B1               	movwf	??___flge
  2765  13FF  3000               	movlw	0
  2766  1400  052E               	andwf	___flge@ff2+1,w
  2767  1401  00B2               	movwf	??___flge+1
  2768  1402  3080               	movlw	128
  2769  1403  052F               	andwf	___flge@ff2+2,w
  2770  1404  00B3               	movwf	??___flge+2
  2771  1405  307F               	movlw	127
  2772  1406  0530               	andwf	___flge@ff2+3,w
  2773  1407  00B4               	movwf	??___flge+3
  2774  1408  0834               	movf	??___flge+3,w
  2775  1409  0433               	iorwf	??___flge+2,w
  2776  140A  0432               	iorwf	??___flge+1,w
  2777  140B  0431               	iorwf	??___flge,w
  2778  140C  1D03               	skipz
  2779  140D  2C0F               	goto	u3011
  2780  140E  2C10               	goto	u3010
  2781  140F                     u3011:	
  2782  140F  2C18               	goto	l2269
  2783  1410                     u3010:	
  2784  1410                     l2267:	
  2785  1410  3000               	movlw	0
  2786  1411  00B0               	movwf	___flge@ff2+3
  2787  1412  3000               	movlw	0
  2788  1413  00AF               	movwf	___flge@ff2+2
  2789  1414  3000               	movlw	0
  2790  1415  00AE               	movwf	___flge@ff2+1
  2791  1416  3000               	movlw	0
  2792  1417  00AD               	movwf	___flge@ff2
  2793  1418                     l2269:	
  2794  1418  1FAC               	btfss	___flge@ff1+3,7
  2795  1419  2C1B               	goto	u3021
  2796  141A  2C1C               	goto	u3020
  2797  141B                     u3021:	
  2798  141B  2C40               	goto	l2273
  2799  141C                     u3020:	
  2800  141C                     l2271:	
  2801  141C  3000               	movlw	0
  2802  141D  00B1               	movwf	??___flge
  2803  141E  3000               	movlw	0
  2804  141F  00B2               	movwf	??___flge+1
  2805  1420  3000               	movlw	0
  2806  1421  00B3               	movwf	??___flge+2
  2807  1422  3080               	movlw	128
  2808  1423  00B4               	movwf	??___flge+3
  2809  1424  0829               	movf	___flge@ff1,w
  2810  1425  02B1               	subwf	??___flge,f
  2811  1426  082A               	movf	___flge@ff1+1,w
  2812  1427  1C03               	skipc
  2813  1428  0F2A               	incfsz	___flge@ff1+1,w
  2814  1429  2C2B               	goto	u3031
  2815  142A  2C2C               	goto	u3032
  2816  142B                     u3031:	
  2817  142B  02B2               	subwf	??___flge+1,f
  2818  142C                     u3032:	
  2819  142C  082B               	movf	___flge@ff1+2,w
  2820  142D  1C03               	skipc
  2821  142E  0F2B               	incfsz	___flge@ff1+2,w
  2822  142F  2C31               	goto	u3033
  2823  1430  2C32               	goto	u3034
  2824  1431                     u3033:	
  2825  1431  02B3               	subwf	??___flge+2,f
  2826  1432                     u3034:	
  2827  1432  082C               	movf	___flge@ff1+3,w
  2828  1433  1C03               	skipc
  2829  1434  0F2C               	incfsz	___flge@ff1+3,w
  2830  1435  2C37               	goto	u3035
  2831  1436  2C38               	goto	u3036
  2832  1437                     u3035:	
  2833  1437  02B4               	subwf	??___flge+3,f
  2834  1438                     u3036:	
  2835  1438  0834               	movf	??___flge+3,w
  2836  1439  00AC               	movwf	___flge@ff1+3
  2837  143A  0833               	movf	??___flge+2,w
  2838  143B  00AB               	movwf	___flge@ff1+2
  2839  143C  0832               	movf	??___flge+1,w
  2840  143D  00AA               	movwf	___flge@ff1+1
  2841  143E  0831               	movf	??___flge,w
  2842  143F  00A9               	movwf	___flge@ff1
  2843  1440                     l2273:	
  2844  1440  1FB0               	btfss	___flge@ff2+3,7
  2845  1441  2C43               	goto	u3041
  2846  1442  2C44               	goto	u3040
  2847  1443                     u3041:	
  2848  1443  2C68               	goto	l486
  2849  1444                     u3040:	
  2850  1444                     l2275:	
  2851  1444  3000               	movlw	0
  2852  1445  00B1               	movwf	??___flge
  2853  1446  3000               	movlw	0
  2854  1447  00B2               	movwf	??___flge+1
  2855  1448  3000               	movlw	0
  2856  1449  00B3               	movwf	??___flge+2
  2857  144A  3080               	movlw	128
  2858  144B  00B4               	movwf	??___flge+3
  2859  144C  082D               	movf	___flge@ff2,w
  2860  144D  02B1               	subwf	??___flge,f
  2861  144E  082E               	movf	___flge@ff2+1,w
  2862  144F  1C03               	skipc
  2863  1450  0F2E               	incfsz	___flge@ff2+1,w
  2864  1451  2C53               	goto	u3051
  2865  1452  2C54               	goto	u3052
  2866  1453                     u3051:	
  2867  1453  02B2               	subwf	??___flge+1,f
  2868  1454                     u3052:	
  2869  1454  082F               	movf	___flge@ff2+2,w
  2870  1455  1C03               	skipc
  2871  1456  0F2F               	incfsz	___flge@ff2+2,w
  2872  1457  2C59               	goto	u3053
  2873  1458  2C5A               	goto	u3054
  2874  1459                     u3053:	
  2875  1459  02B3               	subwf	??___flge+2,f
  2876  145A                     u3054:	
  2877  145A  0830               	movf	___flge@ff2+3,w
  2878  145B  1C03               	skipc
  2879  145C  0F30               	incfsz	___flge@ff2+3,w
  2880  145D  2C5F               	goto	u3055
  2881  145E  2C60               	goto	u3056
  2882  145F                     u3055:	
  2883  145F  02B4               	subwf	??___flge+3,f
  2884  1460                     u3056:	
  2885  1460  0834               	movf	??___flge+3,w
  2886  1461  00B0               	movwf	___flge@ff2+3
  2887  1462  0833               	movf	??___flge+2,w
  2888  1463  00AF               	movwf	___flge@ff2+2
  2889  1464  0832               	movf	??___flge+1,w
  2890  1465  00AE               	movwf	___flge@ff2+1
  2891  1466  0831               	movf	??___flge,w
  2892  1467  00AD               	movwf	___flge@ff2
  2893  1468                     l486:	
  2894  1468  3080               	movlw	128
  2895  1469  06AC               	xorwf	___flge@ff1+3,f
  2896  146A  3080               	movlw	128
  2897  146B  06B0               	xorwf	___flge@ff2+3,f
  2898  146C  0830               	movf	___flge@ff2+3,w
  2899  146D  022C               	subwf	___flge@ff1+3,w
  2900  146E  1D03               	skipz
  2901  146F  2C7A               	goto	u3065
  2902  1470  082F               	movf	___flge@ff2+2,w
  2903  1471  022B               	subwf	___flge@ff1+2,w
  2904  1472  1D03               	skipz
  2905  1473  2C7A               	goto	u3065
  2906  1474  082E               	movf	___flge@ff2+1,w
  2907  1475  022A               	subwf	___flge@ff1+1,w
  2908  1476  1D03               	skipz
  2909  1477  2C7A               	goto	u3065
  2910  1478  082D               	movf	___flge@ff2,w
  2911  1479  0229               	subwf	___flge@ff1,w
  2912  147A                     u3065:	
  2913  147A  1803               	skipnc
  2914  147B  2C7D               	goto	u3061
  2915  147C  2C7E               	goto	u3060
  2916  147D                     u3061:	
  2917  147D  2C80               	goto	l2279
  2918  147E                     u3060:	
  2919  147E                     l2277:	
  2920  147E  1003               	clrc
  2921  147F  2C81               	goto	l487
  2922  1480                     l2279:	
  2923  1480  1403               	setc
  2924  1481                     l487:	
  2925  1481  0008               	return
  2926  1482                     __end_of___flge:	
  2927                           
  2928                           	psect	text5
  2929  059F                     __ptext5:	
  2930 ;; *************** function ___fldiv *****************
  2931 ;; Defined at:
  2932 ;;		line 8 in file "D:\Program Files (x86)\Microchip\xc8\v2.10\pic\sources\c90\common\sprcdiv.c"
  2933 ;; Parameters:    Size  Location     Type
  2934 ;;  a               4    9[BANK0 ] unsigned int 
  2935 ;;  b               4   13[BANK0 ] unsigned int 
  2936 ;; Auto vars:     Size  Location     Type
  2937 ;;  grs             4   29[BANK0 ] unsigned long 
  2938 ;;  rem             4   22[BANK0 ] unsigned long 
  2939 ;;  new_exp         2   27[BANK0 ] int 
  2940 ;;  aexp            1   34[BANK0 ] unsigned char 
  2941 ;;  bexp            1   33[BANK0 ] unsigned char 
  2942 ;;  sign            1   26[BANK0 ] unsigned char 
  2943 ;; Return value:  Size  Location     Type
  2944 ;;                  4    9[BANK0 ] unsigned char 
  2945 ;; Registers used:
  2946 ;;		wreg, status,2, status,0, btemp+1
  2947 ;; Tracked objects:
  2948 ;;		On entry : 0/0
  2949 ;;		On exit  : 0/0
  2950 ;;		Unchanged: 0/0
  2951 ;; Data sizes:     COMMON   BANK0   BANK1   BANK3   BANK2
  2952 ;;      Params:         0       8       0       0       0
  2953 ;;      Locals:         0      13       0       0       0
  2954 ;;      Temps:          0       5       0       0       0
  2955 ;;      Totals:         0      26       0       0       0
  2956 ;;Total ram usage:       26 bytes
  2957 ;; Hardware stack levels used:    1
  2958 ;; Hardware stack levels required when called:    2
  2959 ;; This function calls:
  2960 ;;		Nothing
  2961 ;; This function is called by:
  2962 ;;		_weight
  2963 ;; This function uses a non-reentrant model
  2964 ;;
  2965                           
  2966                           
  2967                           ;psect for function ___fldiv
  2968  059F                     ___fldiv:	
  2969  059F                     l2289:	
  2970                           ;incstack = 0
  2971                           ; Regs used in ___fldiv: [wreg+status,2+status,0+btemp+1]
  2972                           
  2973  059F  1283               	bcf	3,5	;RP0=0, select bank0
  2974  05A0  1303               	bcf	3,6	;RP1=0, select bank0
  2975  05A1  0830               	movf	___fldiv@b+3,w
  2976  05A2  3980               	andlw	128
  2977  05A3  00B1               	movwf	??___fldiv
  2978  05A4  0831               	movf	??___fldiv,w
  2979  05A5  00BA               	movwf	___fldiv@sign
  2980  05A6                     l2291:	
  2981  05A6  0830               	movf	___fldiv@b+3,w
  2982  05A7  00B1               	movwf	??___fldiv
  2983  05A8  0731               	addwf	??___fldiv,w
  2984  05A9  00B2               	movwf	??___fldiv+1
  2985  05AA  0832               	movf	??___fldiv+1,w
  2986  05AB  00C1               	movwf	___fldiv@bexp
  2987  05AC                     l2293:	
  2988  05AC  1FAF               	btfss	___fldiv@b+2,7
  2989  05AD  2DAF               	goto	u3071
  2990  05AE  2DB0               	goto	u3070
  2991  05AF                     u3071:	
  2992  05AF  2DB1               	goto	l2297
  2993  05B0                     u3070:	
  2994  05B0                     l2295:	
  2995  05B0  1441               	bsf	___fldiv@bexp,0
  2996  05B1                     l2297:	
  2997  05B1  0841               	movf	___fldiv@bexp,w
  2998  05B2  1903               	btfsc	3,2
  2999  05B3  2DB5               	goto	u3081
  3000  05B4  2DB6               	goto	u3080
  3001  05B5                     u3081:	
  3002  05B5  2DC6               	goto	l2307
  3003  05B6                     u3080:	
  3004  05B6                     l2299:	
  3005  05B6  0A41               	incf	___fldiv@bexp,w
  3006  05B7  1D03               	btfss	3,2
  3007  05B8  2DBA               	goto	u3091
  3008  05B9  2DBB               	goto	u3090
  3009  05BA                     u3091:	
  3010  05BA  2DC3               	goto	l2303
  3011  05BB                     u3090:	
  3012  05BB                     l2301:	
  3013  05BB  3000               	movlw	0
  3014  05BC  00B0               	movwf	___fldiv@b+3
  3015  05BD  3000               	movlw	0
  3016  05BE  00AF               	movwf	___fldiv@b+2
  3017  05BF  3000               	movlw	0
  3018  05C0  00AE               	movwf	___fldiv@b+1
  3019  05C1  3000               	movlw	0
  3020  05C2  00AD               	movwf	___fldiv@b
  3021  05C3                     l2303:	
  3022  05C3  17AF               	bsf	___fldiv@b+2,7
  3023  05C4                     l2305:	
  3024  05C4  01B0               	clrf	___fldiv@b+3
  3025  05C5  2DCE               	goto	l2309
  3026  05C6                     l2307:	
  3027  05C6  3000               	movlw	0
  3028  05C7  00B0               	movwf	___fldiv@b+3
  3029  05C8  3000               	movlw	0
  3030  05C9  00AF               	movwf	___fldiv@b+2
  3031  05CA  3000               	movlw	0
  3032  05CB  00AE               	movwf	___fldiv@b+1
  3033  05CC  3000               	movlw	0
  3034  05CD  00AD               	movwf	___fldiv@b
  3035  05CE                     l2309:	
  3036  05CE  082C               	movf	___fldiv@a+3,w
  3037  05CF  3980               	andlw	128
  3038  05D0  00B1               	movwf	??___fldiv
  3039  05D1  0831               	movf	??___fldiv,w
  3040  05D2  06BA               	xorwf	___fldiv@sign,f
  3041  05D3                     l2311:	
  3042  05D3  082C               	movf	___fldiv@a+3,w
  3043  05D4  00B1               	movwf	??___fldiv
  3044  05D5  0731               	addwf	??___fldiv,w
  3045  05D6  00B2               	movwf	??___fldiv+1
  3046  05D7  0832               	movf	??___fldiv+1,w
  3047  05D8  00C2               	movwf	___fldiv@aexp
  3048  05D9                     l2313:	
  3049  05D9  1FAB               	btfss	___fldiv@a+2,7
  3050  05DA  2DDC               	goto	u3101
  3051  05DB  2DDD               	goto	u3100
  3052  05DC                     u3101:	
  3053  05DC  2DDE               	goto	l2317
  3054  05DD                     u3100:	
  3055  05DD                     l2315:	
  3056  05DD  1442               	bsf	___fldiv@aexp,0
  3057  05DE                     l2317:	
  3058  05DE  0842               	movf	___fldiv@aexp,w
  3059  05DF  1903               	btfsc	3,2
  3060  05E0  2DE2               	goto	u3111
  3061  05E1  2DE3               	goto	u3110
  3062  05E2                     u3111:	
  3063  05E2  2DF3               	goto	l2327
  3064  05E3                     u3110:	
  3065  05E3                     l2319:	
  3066  05E3  0A42               	incf	___fldiv@aexp,w
  3067  05E4  1D03               	btfss	3,2
  3068  05E5  2DE7               	goto	u3121
  3069  05E6  2DE8               	goto	u3120
  3070  05E7                     u3121:	
  3071  05E7  2DF0               	goto	l2323
  3072  05E8                     u3120:	
  3073  05E8                     l2321:	
  3074  05E8  3000               	movlw	0
  3075  05E9  00AC               	movwf	___fldiv@a+3
  3076  05EA  3000               	movlw	0
  3077  05EB  00AB               	movwf	___fldiv@a+2
  3078  05EC  3000               	movlw	0
  3079  05ED  00AA               	movwf	___fldiv@a+1
  3080  05EE  3000               	movlw	0
  3081  05EF  00A9               	movwf	___fldiv@a
  3082  05F0                     l2323:	
  3083  05F0  17AB               	bsf	___fldiv@a+2,7
  3084  05F1                     l2325:	
  3085  05F1  01AC               	clrf	___fldiv@a+3
  3086  05F2  2DFB               	goto	l658
  3087  05F3                     l2327:	
  3088  05F3  3000               	movlw	0
  3089  05F4  00AC               	movwf	___fldiv@a+3
  3090  05F5  3000               	movlw	0
  3091  05F6  00AB               	movwf	___fldiv@a+2
  3092  05F7  3000               	movlw	0
  3093  05F8  00AA               	movwf	___fldiv@a+1
  3094  05F9  3000               	movlw	0
  3095  05FA  00A9               	movwf	___fldiv@a
  3096  05FB                     l658:	
  3097  05FB  082C               	movf	___fldiv@a+3,w
  3098  05FC  042B               	iorwf	___fldiv@a+2,w
  3099  05FD  042A               	iorwf	___fldiv@a+1,w
  3100  05FE  0429               	iorwf	___fldiv@a,w
  3101  05FF  1D03               	skipz
  3102  0600  2E02               	goto	u3131
  3103  0601  2E03               	goto	u3130
  3104  0602                     u3131:	
  3105  0602  2E1C               	goto	l2337
  3106  0603                     u3130:	
  3107  0603                     l2329:	
  3108  0603  3000               	movlw	0
  3109  0604  00B0               	movwf	___fldiv@b+3
  3110  0605  3000               	movlw	0
  3111  0606  00AF               	movwf	___fldiv@b+2
  3112  0607  3000               	movlw	0
  3113  0608  00AE               	movwf	___fldiv@b+1
  3114  0609  3000               	movlw	0
  3115  060A  00AD               	movwf	___fldiv@b
  3116  060B  3080               	movlw	128
  3117  060C  04AF               	iorwf	___fldiv@b+2,f
  3118  060D  307F               	movlw	127
  3119  060E  04B0               	iorwf	___fldiv@b+3,f
  3120  060F                     l2331:	
  3121  060F  083A               	movf	___fldiv@sign,w
  3122  0610  00B1               	movwf	??___fldiv
  3123  0611  0831               	movf	??___fldiv,w
  3124  0612  04B0               	iorwf	___fldiv@b+3,f
  3125  0613                     l2333:	
  3126  0613  0830               	movf	___fldiv@b+3,w
  3127  0614  00AC               	movwf	?___fldiv+3
  3128  0615  082F               	movf	___fldiv@b+2,w
  3129  0616  00AB               	movwf	?___fldiv+2
  3130  0617  082E               	movf	___fldiv@b+1,w
  3131  0618  00AA               	movwf	?___fldiv+1
  3132  0619  082D               	movf	___fldiv@b,w
  3133  061A  00A9               	movwf	?___fldiv
  3134  061B  2F7B               	goto	l660
  3135  061C                     l2337:	
  3136  061C  0841               	movf	___fldiv@bexp,w
  3137  061D  1D03               	btfss	3,2
  3138  061E  2E20               	goto	u3141
  3139  061F  2E21               	goto	u3140
  3140  0620                     u3141:	
  3141  0620  2E2A               	goto	l2343
  3142  0621                     u3140:	
  3143  0621                     l2339:	
  3144  0621  3000               	movlw	0
  3145  0622  00AC               	movwf	?___fldiv+3
  3146  0623  3000               	movlw	0
  3147  0624  00AB               	movwf	?___fldiv+2
  3148  0625  3000               	movlw	0
  3149  0626  00AA               	movwf	?___fldiv+1
  3150  0627  3000               	movlw	0
  3151  0628  00A9               	movwf	?___fldiv
  3152  0629  2F7B               	goto	l660
  3153  062A                     l2343:	
  3154  062A  0841               	movf	___fldiv@bexp,w
  3155  062B  00B1               	movwf	??___fldiv
  3156  062C  01B2               	clrf	??___fldiv+1
  3157  062D  0832               	movf	??___fldiv+1,w
  3158  062E  00B4               	movwf	??___fldiv+3
  3159  062F  0842               	movf	___fldiv@aexp,w
  3160  0630  0231               	subwf	??___fldiv,w
  3161  0631  00B3               	movwf	??___fldiv+2
  3162  0632  1C03               	skipc
  3163  0633  03B4               	decf	??___fldiv+3,f
  3164  0634  0833               	movf	??___fldiv+2,w
  3165  0635  3E7F               	addlw	127
  3166  0636  00BB               	movwf	___fldiv@new_exp
  3167  0637  0834               	movf	??___fldiv+3,w
  3168  0638  1803               	skipnc
  3169  0639  3E01               	addlw	1
  3170  063A  3E00               	addlw	0
  3171  063B  00BC               	movwf	___fldiv@new_exp+1
  3172  063C                     l2345:	
  3173  063C  0830               	movf	___fldiv@b+3,w
  3174  063D  00B9               	movwf	___fldiv@rem+3
  3175  063E  082F               	movf	___fldiv@b+2,w
  3176  063F  00B8               	movwf	___fldiv@rem+2
  3177  0640  082E               	movf	___fldiv@b+1,w
  3178  0641  00B7               	movwf	___fldiv@rem+1
  3179  0642  082D               	movf	___fldiv@b,w
  3180  0643  00B6               	movwf	___fldiv@rem
  3181  0644                     l2347:	
  3182  0644  3000               	movlw	0
  3183  0645  00B0               	movwf	___fldiv@b+3
  3184  0646  3000               	movlw	0
  3185  0647  00AF               	movwf	___fldiv@b+2
  3186  0648  3000               	movlw	0
  3187  0649  00AE               	movwf	___fldiv@b+1
  3188  064A  3000               	movlw	0
  3189  064B  00AD               	movwf	___fldiv@b
  3190  064C                     l2349:	
  3191  064C  3000               	movlw	0
  3192  064D  00C0               	movwf	___fldiv@grs+3
  3193  064E  3000               	movlw	0
  3194  064F  00BF               	movwf	___fldiv@grs+2
  3195  0650  3000               	movlw	0
  3196  0651  00BE               	movwf	___fldiv@grs+1
  3197  0652  3000               	movlw	0
  3198  0653  00BD               	movwf	___fldiv@grs
  3199  0654                     l2351:	
  3200  0654  01C2               	clrf	___fldiv@aexp
  3201  0655  2EA0               	goto	l2371
  3202  0656                     l2353:	
  3203  0656  0842               	movf	___fldiv@aexp,w
  3204  0657  1903               	btfsc	3,2
  3205  0658  2E5A               	goto	u3151
  3206  0659  2E5B               	goto	u3150
  3207  065A                     u3151:	
  3208  065A  2E7B               	goto	l2363
  3209  065B                     u3150:	
  3210  065B                     l2355:	
  3211  065B  3001               	movlw	1
  3212  065C  00B1               	movwf	??___fldiv
  3213  065D                     u3165:	
  3214  065D  1003               	clrc
  3215  065E  0DB6               	rlf	___fldiv@rem,f
  3216  065F  0DB7               	rlf	___fldiv@rem+1,f
  3217  0660  0DB8               	rlf	___fldiv@rem+2,f
  3218  0661  0DB9               	rlf	___fldiv@rem+3,f
  3219  0662  0BB1               	decfsz	??___fldiv,f
  3220  0663  2E5D               	goto	u3165
  3221  0664  3001               	movlw	1
  3222  0665  00B1               	movwf	??___fldiv
  3223  0666                     u3175:	
  3224  0666  1003               	clrc
  3225  0667  0DAD               	rlf	___fldiv@b,f
  3226  0668  0DAE               	rlf	___fldiv@b+1,f
  3227  0669  0DAF               	rlf	___fldiv@b+2,f
  3228  066A  0DB0               	rlf	___fldiv@b+3,f
  3229  066B  0BB1               	decfsz	??___fldiv,f
  3230  066C  2E66               	goto	u3175
  3231  066D                     l2357:	
  3232  066D  1FC0               	btfss	___fldiv@grs+3,7
  3233  066E  2E70               	goto	u3181
  3234  066F  2E71               	goto	u3180
  3235  0670                     u3181:	
  3236  0670  2E72               	goto	l2361
  3237  0671                     u3180:	
  3238  0671                     l2359:	
  3239  0671  142D               	bsf	___fldiv@b,0
  3240  0672                     l2361:	
  3241  0672  3001               	movlw	1
  3242  0673  00B1               	movwf	??___fldiv
  3243  0674                     u3195:	
  3244  0674  1003               	clrc
  3245  0675  0DBD               	rlf	___fldiv@grs,f
  3246  0676  0DBE               	rlf	___fldiv@grs+1,f
  3247  0677  0DBF               	rlf	___fldiv@grs+2,f
  3248  0678  0DC0               	rlf	___fldiv@grs+3,f
  3249  0679  0BB1               	decfsz	??___fldiv,f
  3250  067A  2E74               	goto	u3195
  3251  067B                     l2363:	
  3252  067B  082C               	movf	___fldiv@a+3,w
  3253  067C  0239               	subwf	___fldiv@rem+3,w
  3254  067D  1D03               	skipz
  3255  067E  2E89               	goto	u3205
  3256  067F  082B               	movf	___fldiv@a+2,w
  3257  0680  0238               	subwf	___fldiv@rem+2,w
  3258  0681  1D03               	skipz
  3259  0682  2E89               	goto	u3205
  3260  0683  082A               	movf	___fldiv@a+1,w
  3261  0684  0237               	subwf	___fldiv@rem+1,w
  3262  0685  1D03               	skipz
  3263  0686  2E89               	goto	u3205
  3264  0687  0829               	movf	___fldiv@a,w
  3265  0688  0236               	subwf	___fldiv@rem,w
  3266  0689                     u3205:	
  3267  0689  1C03               	skipc
  3268  068A  2E8C               	goto	u3201
  3269  068B  2E8D               	goto	u3200
  3270  068C                     u3201:	
  3271  068C  2E9C               	goto	l2369
  3272  068D                     u3200:	
  3273  068D                     l2365:	
  3274  068D  1740               	bsf	___fldiv@grs+3,6
  3275  068E                     l2367:	
  3276  068E  0829               	movf	___fldiv@a,w
  3277  068F  02B6               	subwf	___fldiv@rem,f
  3278  0690  082A               	movf	___fldiv@a+1,w
  3279  0691  1C03               	skipc
  3280  0692  0F2A               	incfsz	___fldiv@a+1,w
  3281  0693  02B7               	subwf	___fldiv@rem+1,f
  3282  0694  082B               	movf	___fldiv@a+2,w
  3283  0695  1C03               	skipc
  3284  0696  0F2B               	incfsz	___fldiv@a+2,w
  3285  0697  02B8               	subwf	___fldiv@rem+2,f
  3286  0698  082C               	movf	___fldiv@a+3,w
  3287  0699  1C03               	skipc
  3288  069A  0F2C               	incfsz	___fldiv@a+3,w
  3289  069B  02B9               	subwf	___fldiv@rem+3,f
  3290  069C                     l2369:	
  3291  069C  3001               	movlw	1
  3292  069D  00B1               	movwf	??___fldiv
  3293  069E  0831               	movf	??___fldiv,w
  3294  069F  07C2               	addwf	___fldiv@aexp,f
  3295  06A0                     l2371:	
  3296  06A0  301A               	movlw	26
  3297  06A1  0242               	subwf	___fldiv@aexp,w
  3298  06A2  1C03               	skipc
  3299  06A3  2EA5               	goto	u3211
  3300  06A4  2EA6               	goto	u3210
  3301  06A5                     u3211:	
  3302  06A5  2E56               	goto	l2353
  3303  06A6                     u3210:	
  3304  06A6                     l2373:	
  3305  06A6  0839               	movf	___fldiv@rem+3,w
  3306  06A7  0438               	iorwf	___fldiv@rem+2,w
  3307  06A8  0437               	iorwf	___fldiv@rem+1,w
  3308  06A9  0436               	iorwf	___fldiv@rem,w
  3309  06AA  1903               	skipnz
  3310  06AB  2EAD               	goto	u3221
  3311  06AC  2EAE               	goto	u3220
  3312  06AD                     u3221:	
  3313  06AD  2ECD               	goto	l2387
  3314  06AE                     u3220:	
  3315  06AE                     l2375:	
  3316  06AE  143D               	bsf	___fldiv@grs,0
  3317  06AF  2ECD               	goto	l2387
  3318  06B0                     l2377:	
  3319  06B0  3001               	movlw	1
  3320  06B1  00B1               	movwf	??___fldiv
  3321  06B2                     u3235:	
  3322  06B2  1003               	clrc
  3323  06B3  0DAD               	rlf	___fldiv@b,f
  3324  06B4  0DAE               	rlf	___fldiv@b+1,f
  3325  06B5  0DAF               	rlf	___fldiv@b+2,f
  3326  06B6  0DB0               	rlf	___fldiv@b+3,f
  3327  06B7  0BB1               	decfsz	??___fldiv,f
  3328  06B8  2EB2               	goto	u3235
  3329  06B9                     l2379:	
  3330  06B9  1FC0               	btfss	___fldiv@grs+3,7
  3331  06BA  2EBC               	goto	u3241
  3332  06BB  2EBD               	goto	u3240
  3333  06BC                     u3241:	
  3334  06BC  2EBE               	goto	l2383
  3335  06BD                     u3240:	
  3336  06BD                     l2381:	
  3337  06BD  142D               	bsf	___fldiv@b,0
  3338  06BE                     l2383:	
  3339  06BE  3001               	movlw	1
  3340  06BF  00B1               	movwf	??___fldiv
  3341  06C0                     u3255:	
  3342  06C0  1003               	clrc
  3343  06C1  0DBD               	rlf	___fldiv@grs,f
  3344  06C2  0DBE               	rlf	___fldiv@grs+1,f
  3345  06C3  0DBF               	rlf	___fldiv@grs+2,f
  3346  06C4  0DC0               	rlf	___fldiv@grs+3,f
  3347  06C5  0BB1               	decfsz	??___fldiv,f
  3348  06C6  2EC0               	goto	u3255
  3349  06C7                     l2385:	
  3350  06C7  30FF               	movlw	255
  3351  06C8  07BB               	addwf	___fldiv@new_exp,f
  3352  06C9  1803               	skipnc
  3353  06CA  0ABC               	incf	___fldiv@new_exp+1,f
  3354  06CB  30FF               	movlw	255
  3355  06CC  07BC               	addwf	___fldiv@new_exp+1,f
  3356  06CD                     l2387:	
  3357  06CD  1FAF               	btfss	___fldiv@b+2,7
  3358  06CE  2ED0               	goto	u3261
  3359  06CF  2ED1               	goto	u3260
  3360  06D0                     u3261:	
  3361  06D0  2EB0               	goto	l2377
  3362  06D1                     u3260:	
  3363  06D1                     l2389:	
  3364  06D1  01C2               	clrf	___fldiv@aexp
  3365  06D2                     l2391:	
  3366  06D2  1FC0               	btfss	___fldiv@grs+3,7
  3367  06D3  2ED5               	goto	u3271
  3368  06D4  2ED6               	goto	u3270
  3369  06D5                     u3271:	
  3370  06D5  2EF2               	goto	l2399
  3371  06D6                     u3270:	
  3372  06D6                     l2393:	
  3373  06D6  30FF               	movlw	255
  3374  06D7  053D               	andwf	___fldiv@grs,w
  3375  06D8  00B1               	movwf	??___fldiv
  3376  06D9  30FF               	movlw	255
  3377  06DA  053E               	andwf	___fldiv@grs+1,w
  3378  06DB  00B2               	movwf	??___fldiv+1
  3379  06DC  30FF               	movlw	255
  3380  06DD  053F               	andwf	___fldiv@grs+2,w
  3381  06DE  00B3               	movwf	??___fldiv+2
  3382  06DF  307F               	movlw	127
  3383  06E0  0540               	andwf	___fldiv@grs+3,w
  3384  06E1  00B4               	movwf	??___fldiv+3
  3385  06E2  0834               	movf	??___fldiv+3,w
  3386  06E3  0433               	iorwf	??___fldiv+2,w
  3387  06E4  0432               	iorwf	??___fldiv+1,w
  3388  06E5  0431               	iorwf	??___fldiv,w
  3389  06E6  1903               	skipnz
  3390  06E7  2EE9               	goto	u3281
  3391  06E8  2EEA               	goto	u3280
  3392  06E9                     u3281:	
  3393  06E9  2EED               	goto	l674
  3394  06EA                     u3280:	
  3395  06EA                     l2395:	
  3396  06EA  01C2               	clrf	___fldiv@aexp
  3397  06EB  0AC2               	incf	___fldiv@aexp,f
  3398  06EC  2EF2               	goto	l2399
  3399  06ED                     l674:	
  3400  06ED  1C2D               	btfss	___fldiv@b,0
  3401  06EE  2EF0               	goto	u3291
  3402  06EF  2EF1               	goto	u3290
  3403  06F0                     u3291:	
  3404  06F0  2EF2               	goto	l2399
  3405  06F1                     u3290:	
  3406  06F1  2EEA               	goto	l2395
  3407  06F2                     l2399:	
  3408  06F2  0842               	movf	___fldiv@aexp,w
  3409  06F3  1903               	btfsc	3,2
  3410  06F4  2EF6               	goto	u3301
  3411  06F5  2EF7               	goto	u3300
  3412  06F6                     u3301:	
  3413  06F6  2F28               	goto	l2409
  3414  06F7                     u3300:	
  3415  06F7                     l2401:	
  3416  06F7  3001               	movlw	1
  3417  06F8  07AD               	addwf	___fldiv@b,f
  3418  06F9  3000               	movlw	0
  3419  06FA  1803               	skipnc
  3420  06FB  3001               	movlw	1
  3421  06FC  07AE               	addwf	___fldiv@b+1,f
  3422  06FD  3000               	movlw	0
  3423  06FE  1803               	skipnc
  3424  06FF  3001               	movlw	1
  3425  0700  07AF               	addwf	___fldiv@b+2,f
  3426  0701  3000               	movlw	0
  3427  0702  1803               	skipnc
  3428  0703  3001               	movlw	1
  3429  0704  07B0               	addwf	___fldiv@b+3,f
  3430  0705                     l2403:	
  3431  0705  1C30               	btfss	___fldiv@b+3,0
  3432  0706  2F08               	goto	u3311
  3433  0707  2F09               	goto	u3310
  3434  0708                     u3311:	
  3435  0708  2F28               	goto	l2409
  3436  0709                     u3310:	
  3437  0709                     l2405:	
  3438  0709  082D               	movf	___fldiv@b,w
  3439  070A  00B1               	movwf	??___fldiv
  3440  070B  082E               	movf	___fldiv@b+1,w
  3441  070C  00B2               	movwf	??___fldiv+1
  3442  070D  082F               	movf	___fldiv@b+2,w
  3443  070E  00B3               	movwf	??___fldiv+2
  3444  070F  0830               	movf	___fldiv@b+3,w
  3445  0710  00B4               	movwf	??___fldiv+3
  3446  0711  3001               	movlw	1
  3447  0712  00B5               	movwf	??___fldiv+4
  3448  0713                     u3325:	
  3449  0713  0D34               	rlf	??___fldiv+3,w
  3450  0714  0CB4               	rrf	??___fldiv+3,f
  3451  0715  0CB3               	rrf	??___fldiv+2,f
  3452  0716  0CB2               	rrf	??___fldiv+1,f
  3453  0717  0CB1               	rrf	??___fldiv,f
  3454  0718                     u3320:	
  3455  0718  0BB5               	decfsz	??___fldiv+4,f
  3456  0719  2F13               	goto	u3325
  3457  071A  0834               	movf	??___fldiv+3,w
  3458  071B  00B0               	movwf	___fldiv@b+3
  3459  071C  0833               	movf	??___fldiv+2,w
  3460  071D  00AF               	movwf	___fldiv@b+2
  3461  071E  0832               	movf	??___fldiv+1,w
  3462  071F  00AE               	movwf	___fldiv@b+1
  3463  0720  0831               	movf	??___fldiv,w
  3464  0721  00AD               	movwf	___fldiv@b
  3465  0722                     l2407:	
  3466  0722  3001               	movlw	1
  3467  0723  07BB               	addwf	___fldiv@new_exp,f
  3468  0724  1803               	skipnc
  3469  0725  0ABC               	incf	___fldiv@new_exp+1,f
  3470  0726  3000               	movlw	0
  3471  0727  07BC               	addwf	___fldiv@new_exp+1,f
  3472  0728                     l2409:	
  3473  0728  083C               	movf	___fldiv@new_exp+1,w
  3474  0729  3A80               	xorlw	128
  3475  072A  00FF               	movwf	btemp+1
  3476  072B  3080               	movlw	128
  3477  072C  027F               	subwf	btemp+1,w
  3478  072D  1D03               	skipz
  3479  072E  2F31               	goto	u3335
  3480  072F  30FF               	movlw	255
  3481  0730  023B               	subwf	___fldiv@new_exp,w
  3482  0731                     u3335:	
  3483  0731  1C03               	skipc
  3484  0732  2F34               	goto	u3331
  3485  0733  2F35               	goto	u3330
  3486  0734                     u3331:	
  3487  0734  2F43               	goto	l2413
  3488  0735                     u3330:	
  3489  0735                     l2411:	
  3490  0735  30FF               	movlw	255
  3491  0736  1283               	bcf	3,5	;RP0=0, select bank0
  3492  0737  1303               	bcf	3,6	;RP1=0, select bank0
  3493  0738  00BB               	movwf	___fldiv@new_exp
  3494  0739  3000               	movlw	0
  3495  073A  00BC               	movwf	___fldiv@new_exp+1
  3496  073B  3000               	movlw	0
  3497  073C  00B0               	movwf	___fldiv@b+3
  3498  073D  3000               	movlw	0
  3499  073E  00AF               	movwf	___fldiv@b+2
  3500  073F  3000               	movlw	0
  3501  0740  00AE               	movwf	___fldiv@b+1
  3502  0741  3000               	movlw	0
  3503  0742  00AD               	movwf	___fldiv@b
  3504  0743                     l2413:	
  3505  0743  1283               	bcf	3,5	;RP0=0, select bank0
  3506  0744  1303               	bcf	3,6	;RP1=0, select bank0
  3507  0745  083C               	movf	___fldiv@new_exp+1,w
  3508  0746  3A80               	xorlw	128
  3509  0747  00FF               	movwf	btemp+1
  3510  0748  3080               	movlw	128
  3511  0749  027F               	subwf	btemp+1,w
  3512  074A  1D03               	skipz
  3513  074B  2F4E               	goto	u3345
  3514  074C  3001               	movlw	1
  3515  074D  023B               	subwf	___fldiv@new_exp,w
  3516  074E                     u3345:	
  3517  074E  1803               	skipnc
  3518  074F  2F51               	goto	u3341
  3519  0750  2F52               	goto	u3340
  3520  0751                     u3341:	
  3521  0751  2F5F               	goto	l680
  3522  0752                     u3340:	
  3523  0752                     l2415:	
  3524  0752  1283               	bcf	3,5	;RP0=0, select bank0
  3525  0753  1303               	bcf	3,6	;RP1=0, select bank0
  3526  0754  01BB               	clrf	___fldiv@new_exp
  3527  0755  01BC               	clrf	___fldiv@new_exp+1
  3528  0756                     l2417:	
  3529  0756  3000               	movlw	0
  3530  0757  00B0               	movwf	___fldiv@b+3
  3531  0758  3000               	movlw	0
  3532  0759  00AF               	movwf	___fldiv@b+2
  3533  075A  3000               	movlw	0
  3534  075B  00AE               	movwf	___fldiv@b+1
  3535  075C  3000               	movlw	0
  3536  075D  00AD               	movwf	___fldiv@b
  3537  075E                     l2419:	
  3538  075E  01BA               	clrf	___fldiv@sign
  3539  075F                     l680:	
  3540  075F  1283               	bcf	3,5	;RP0=0, select bank0
  3541  0760  1303               	bcf	3,6	;RP1=0, select bank0
  3542  0761  083B               	movf	___fldiv@new_exp,w
  3543  0762  00B1               	movwf	??___fldiv
  3544  0763  0831               	movf	??___fldiv,w
  3545  0764  00C1               	movwf	___fldiv@bexp
  3546  0765                     l2421:	
  3547  0765  1C41               	btfss	___fldiv@bexp,0
  3548  0766  2F68               	goto	u3351
  3549  0767  2F69               	goto	u3350
  3550  0768                     u3351:	
  3551  0768  2F6B               	goto	l2425
  3552  0769                     u3350:	
  3553  0769                     l2423:	
  3554  0769  17AF               	bsf	___fldiv@b+2,7
  3555  076A  2F6F               	goto	l682
  3556  076B                     l2425:	
  3557  076B  307F               	movlw	127
  3558  076C  00B1               	movwf	??___fldiv
  3559  076D  0831               	movf	??___fldiv,w
  3560  076E  05AF               	andwf	___fldiv@b+2,f
  3561  076F                     l682:	
  3562  076F  0841               	movf	___fldiv@bexp,w
  3563  0770  00B1               	movwf	??___fldiv
  3564  0771  1003               	clrc
  3565  0772  0C31               	rrf	??___fldiv,w
  3566  0773  00B2               	movwf	??___fldiv+1
  3567  0774  0832               	movf	??___fldiv+1,w
  3568  0775  00B0               	movwf	___fldiv@b+3
  3569  0776  083A               	movf	___fldiv@sign,w
  3570  0777  00B1               	movwf	??___fldiv
  3571  0778  0831               	movf	??___fldiv,w
  3572  0779  04B0               	iorwf	___fldiv@b+3,f
  3573  077A  2E13               	goto	l2333
  3574  077B                     l660:	
  3575  077B  0008               	return
  3576  077C                     __end_of___fldiv:	
  3577                           
  3578                           	psect	text6
  3579  127B                     __ptext6:	
  3580 ;; *************** function _setup *****************
  3581 ;; Defined at:
  3582 ;;		line 118 in file "main.c"
  3583 ;; Parameters:    Size  Location     Type
  3584 ;;		None
  3585 ;; Auto vars:     Size  Location     Type
  3586 ;;		None
  3587 ;; Return value:  Size  Location     Type
  3588 ;;                  1    wreg      void 
  3589 ;; Registers used:
  3590 ;;		wreg, status,2, status,0, btemp+1, pclath, cstack
  3591 ;; Tracked objects:
  3592 ;;		On entry : 0/0
  3593 ;;		On exit  : 0/0
  3594 ;;		Unchanged: 0/0
  3595 ;; Data sizes:     COMMON   BANK0   BANK1   BANK3   BANK2
  3596 ;;      Params:         0       0       0       0       0
  3597 ;;      Locals:         0       0       0       0       0
  3598 ;;      Temps:          0       0       0       0       0
  3599 ;;      Totals:         0       0       0       0       0
  3600 ;;Total ram usage:        0 bytes
  3601 ;; Hardware stack levels used:    1
  3602 ;; Hardware stack levels required when called:    6
  3603 ;; This function calls:
  3604 ;;		_I2C_Slave_Init
  3605 ;;		_celdaSetup
  3606 ;; This function is called by:
  3607 ;;		_main
  3608 ;; This function uses a non-reentrant model
  3609 ;;
  3610                           
  3611                           
  3612                           ;psect for function _setup
  3613  127B                     _setup:	
  3614  127B                     l2973:	
  3615                           ;incstack = 0
  3616                           ; Regs used in _setup: [wreg+status,2+status,0+btemp+1+pclath+cstack]
  3617                           
  3618                           
  3619                           ;main.c: 120:     tare = celdaSetup();
  3620  127B  160A  118A  22A9  160A  118A  	fcall	_celdaSetup
  3621  1280  1683               	bsf	3,5	;RP0=1, select bank1
  3622  1281  1303               	bcf	3,6	;RP1=0, select bank1
  3623  1282  0859               	movf	(?_celdaSetup+3)^(0+128),w
  3624  1283  1683               	bsf	3,5	;RP0=1, select bank3
  3625  1284  1703               	bsf	3,6	;RP1=1, select bank3
  3626  1285  0093               	movwf	(_tare+3)^(0+384)
  3627  1286  1683               	bsf	3,5	;RP0=1, select bank1
  3628  1287  1303               	bcf	3,6	;RP1=0, select bank1
  3629  1288  0858               	movf	(?_celdaSetup+2)^(0+128),w
  3630  1289  1683               	bsf	3,5	;RP0=1, select bank3
  3631  128A  1703               	bsf	3,6	;RP1=1, select bank3
  3632  128B  0092               	movwf	(_tare+2)^(0+384)
  3633  128C  1683               	bsf	3,5	;RP0=1, select bank1
  3634  128D  1303               	bcf	3,6	;RP1=0, select bank1
  3635  128E  0857               	movf	(?_celdaSetup+1)^(0+128),w
  3636  128F  1683               	bsf	3,5	;RP0=1, select bank3
  3637  1290  1703               	bsf	3,6	;RP1=1, select bank3
  3638  1291  0091               	movwf	(_tare+1)^(0+384)
  3639  1292  1683               	bsf	3,5	;RP0=1, select bank1
  3640  1293  1303               	bcf	3,6	;RP1=0, select bank1
  3641  1294  0856               	movf	?_celdaSetup^(0+128),w
  3642  1295  1683               	bsf	3,5	;RP0=1, select bank3
  3643  1296  1703               	bsf	3,6	;RP1=1, select bank3
  3644  1297  0090               	movwf	_tare^(0+384)
  3645  1298                     l2975:	
  3646                           
  3647                           ;main.c: 121:     peso=tare;
  3648  1298  0813               	movf	(_tare+3)^(0+384),w
  3649  1299  009B               	movwf	(_peso+3)^(0+384)
  3650  129A  0812               	movf	(_tare+2)^(0+384),w
  3651  129B  009A               	movwf	(_peso+2)^(0+384)
  3652  129C  0811               	movf	(_tare+1)^(0+384),w
  3653  129D  0099               	movwf	(_peso+1)^(0+384)
  3654  129E  0810               	movf	_tare^(0+384),w
  3655  129F  0098               	movwf	_peso^(0+384)
  3656  12A0                     l2977:	
  3657                           
  3658                           ;main.c: 122:     INTCON = 0b11000000;
  3659  12A0  30C0               	movlw	192
  3660  12A1  008B               	movwf	11	;volatile
  3661  12A2                     l2979:	
  3662                           
  3663                           ;main.c: 123:     I2C_Slave_Init(0x20);
  3664  12A2  3020               	movlw	32
  3665  12A3  160A  118A  21EB  160A  118A  	fcall	_I2C_Slave_Init
  3666  12A8                     l110:	
  3667  12A8  0008               	return
  3668  12A9                     __end_of_setup:	
  3669                           
  3670                           	psect	text7
  3671  12A9                     __ptext7:	
  3672 ;; *************** function _celdaSetup *****************
  3673 ;; Defined at:
  3674 ;;		line 16 in file "peso.c"
  3675 ;; Parameters:    Size  Location     Type
  3676 ;;		None
  3677 ;; Auto vars:     Size  Location     Type
  3678 ;;  tare            4   61[BANK1 ] unsigned long 
  3679 ;; Return value:  Size  Location     Type
  3680 ;;                  4   54[BANK1 ] unsigned long 
  3681 ;; Registers used:
  3682 ;;		wreg, status,2, status,0, btemp+1, pclath, cstack
  3683 ;; Tracked objects:
  3684 ;;		On entry : 0/0
  3685 ;;		On exit  : 0/0
  3686 ;;		Unchanged: 0/0
  3687 ;; Data sizes:     COMMON   BANK0   BANK1   BANK3   BANK2
  3688 ;;      Params:         0       0       4       0       0
  3689 ;;      Locals:         0       0       4       0       0
  3690 ;;      Temps:          0       0       3       0       0
  3691 ;;      Totals:         0       0      11       0       0
  3692 ;;Total ram usage:       11 bytes
  3693 ;; Hardware stack levels used:    1
  3694 ;; Hardware stack levels required when called:    5
  3695 ;; This function calls:
  3696 ;;		_tarar
  3697 ;; This function is called by:
  3698 ;;		_setup
  3699 ;; This function uses a non-reentrant model
  3700 ;;
  3701                           
  3702                           
  3703                           ;psect for function _celdaSetup
  3704  12A9                     _celdaSetup:	
  3705  12A9                     l2923:	
  3706                           ;incstack = 0
  3707                           ; Regs used in _celdaSetup: [wreg+status,2+status,0+btemp+1+pclath+cstack]
  3708                           
  3709                           
  3710                           ;peso.c: 17:     TRISAbits.TRISA0 = 0;
  3711  12A9  1683               	bsf	3,5	;RP0=1, select bank1
  3712  12AA  1303               	bcf	3,6	;RP1=0, select bank1
  3713  12AB  1005               	bcf	5,0	;volatile
  3714                           
  3715                           ;peso.c: 18:     TRISAbits.TRISA1 = 1;
  3716  12AC  1485               	bsf	5,1	;volatile
  3717  12AD                     l2925:	
  3718                           
  3719                           ;peso.c: 19:     ANSEL = 0;
  3720  12AD  1683               	bsf	3,5	;RP0=1, select bank3
  3721  12AE  1703               	bsf	3,6	;RP1=1, select bank3
  3722  12AF  0188               	clrf	8	;volatile
  3723  12B0                     l2927:	
  3724                           
  3725                           ;peso.c: 20:     PORTAbits.RA0 = 0;
  3726  12B0  1283               	bcf	3,5	;RP0=0, select bank0
  3727  12B1  1303               	bcf	3,6	;RP1=0, select bank0
  3728  12B2  1005               	bcf	5,0	;volatile
  3729  12B3                     l2929:	
  3730                           
  3731                           ;peso.c: 21:     _delay((unsigned long)((4000)*(4000000/4000.0)));
  3732  12B3  3015               	movlw	21
  3733  12B4  1683               	bsf	3,5	;RP0=1, select bank1
  3734  12B5  1303               	bcf	3,6	;RP1=0, select bank1
  3735  12B6  00DC               	movwf	(??_celdaSetup^(0+128)+2)
  3736  12B7  304B               	movlw	75
  3737  12B8  00DB               	movwf	(??_celdaSetup^(0+128)+1)
  3738  12B9  30BD               	movlw	189
  3739  12BA  00DA               	movwf	??_celdaSetup^(0+128)
  3740  12BB                     u4507:	
  3741  12BB  0BDA               	decfsz	??_celdaSetup^(0+128),f
  3742  12BC  2ABB               	goto	u4507
  3743  12BD  0BDB               	decfsz	(??_celdaSetup^(0+128)+1),f
  3744  12BE  2ABB               	goto	u4507
  3745  12BF  0BDC               	decfsz	(??_celdaSetup^(0+128)+2),f
  3746  12C0  2ABB               	goto	u4507
  3747  12C1  2AC2               	nop2
  3748  12C2                     l2931:	
  3749  12C2                     l2933:	
  3750                           
  3751                           ;peso.c: 23:     tare = tarar();
  3752  12C2  120A  158A  211C  160A  118A  	fcall	_tarar
  3753  12C7  1683               	bsf	3,5	;RP0=1, select bank1
  3754  12C8  1303               	bcf	3,6	;RP1=0, select bank1
  3755  12C9  084B               	movf	(?_tarar+3)^(0+128),w
  3756  12CA  00E0               	movwf	(celdaSetup@tare+3)^(0+128)
  3757  12CB  084A               	movf	(?_tarar+2)^(0+128),w
  3758  12CC  00DF               	movwf	(celdaSetup@tare+2)^(0+128)
  3759  12CD  0849               	movf	(?_tarar+1)^(0+128),w
  3760  12CE  00DE               	movwf	(celdaSetup@tare+1)^(0+128)
  3761  12CF  0848               	movf	?_tarar^(0+128),w
  3762  12D0  00DD               	movwf	celdaSetup@tare^(0+128)
  3763  12D1                     l2935:	
  3764                           
  3765                           ;peso.c: 24:     return tare;
  3766  12D1  0860               	movf	(celdaSetup@tare+3)^(0+128),w
  3767  12D2  00D9               	movwf	(?_celdaSetup+3)^(0+128)
  3768  12D3  085F               	movf	(celdaSetup@tare+2)^(0+128),w
  3769  12D4  00D8               	movwf	(?_celdaSetup+2)^(0+128)
  3770  12D5  085E               	movf	(celdaSetup@tare+1)^(0+128),w
  3771  12D6  00D7               	movwf	(?_celdaSetup+1)^(0+128)
  3772  12D7  085D               	movf	celdaSetup@tare^(0+128),w
  3773  12D8  00D6               	movwf	?_celdaSetup^(0+128)
  3774  12D9                     l13:	
  3775  12D9  0008               	return
  3776  12DA                     __end_of_celdaSetup:	
  3777                           
  3778                           	psect	text8
  3779  091C                     __ptext8:	
  3780 ;; *************** function _tarar *****************
  3781 ;; Defined at:
  3782 ;;		line 57 in file "peso.c"
  3783 ;; Parameters:    Size  Location     Type
  3784 ;;		None
  3785 ;; Auto vars:     Size  Location     Type
  3786 ;;  total           4   49[BANK1 ] unsigned long 
  3787 ;;  pasado          4   45[BANK1 ] unsigned long 
  3788 ;;  sum             4    0        unsigned long 
  3789 ;;  i               1   53[BANK1 ] unsigned char 
  3790 ;; Return value:  Size  Location     Type
  3791 ;;                  4   40[BANK1 ] unsigned long 
  3792 ;; Registers used:
  3793 ;;		wreg, status,2, status,0, btemp+1, pclath, cstack
  3794 ;; Tracked objects:
  3795 ;;		On entry : 0/0
  3796 ;;		On exit  : 0/0
  3797 ;;		Unchanged: 0/0
  3798 ;; Data sizes:     COMMON   BANK0   BANK1   BANK3   BANK2
  3799 ;;      Params:         0       0       4       0       0
  3800 ;;      Locals:         0       0       9       0       0
  3801 ;;      Temps:          0       0       1       0       0
  3802 ;;      Totals:         0       0      14       0       0
  3803 ;;Total ram usage:       14 bytes
  3804 ;; Hardware stack levels used:    1
  3805 ;; Hardware stack levels required when called:    4
  3806 ;; This function calls:
  3807 ;;		___fladd
  3808 ;;		___flmul
  3809 ;;		___fltol
  3810 ;;		___xxtofl
  3811 ;;		_celdaRead
  3812 ;; This function is called by:
  3813 ;;		_celdaSetup
  3814 ;; This function uses a non-reentrant model
  3815 ;;
  3816                           
  3817                           
  3818                           ;psect for function _tarar
  3819  091C                     _tarar:	
  3820  091C                     l2903:	
  3821                           ;incstack = 0
  3822                           ; Regs used in _tarar: [wreg+status,2+status,0+btemp+1+pclath+cstack]
  3823                           
  3824                           
  3825                           ;peso.c: 58:     uint8_t i;;peso.c: 59:     uint32_t sum;;peso.c: 60:     uint32_t total
      +                          =celdaRead();
  3826  091C  120A  118A  277C  120A  158A  	fcall	_celdaRead
  3827  0921  1283               	bcf	3,5	;RP0=0, select bank0
  3828  0922  1303               	bcf	3,6	;RP1=0, select bank0
  3829  0923  082C               	movf	?_celdaRead+3,w
  3830  0924  1683               	bsf	3,5	;RP0=1, select bank1
  3831  0925  1303               	bcf	3,6	;RP1=0, select bank1
  3832  0926  00D4               	movwf	(tarar@total+3)^(0+128)
  3833  0927  1283               	bcf	3,5	;RP0=0, select bank0
  3834  0928  1303               	bcf	3,6	;RP1=0, select bank0
  3835  0929  082B               	movf	?_celdaRead+2,w
  3836  092A  1683               	bsf	3,5	;RP0=1, select bank1
  3837  092B  1303               	bcf	3,6	;RP1=0, select bank1
  3838  092C  00D3               	movwf	(tarar@total+2)^(0+128)
  3839  092D  1283               	bcf	3,5	;RP0=0, select bank0
  3840  092E  1303               	bcf	3,6	;RP1=0, select bank0
  3841  092F  082A               	movf	?_celdaRead+1,w
  3842  0930  1683               	bsf	3,5	;RP0=1, select bank1
  3843  0931  1303               	bcf	3,6	;RP1=0, select bank1
  3844  0932  00D2               	movwf	(tarar@total+1)^(0+128)
  3845  0933  1283               	bcf	3,5	;RP0=0, select bank0
  3846  0934  1303               	bcf	3,6	;RP1=0, select bank0
  3847  0935  0829               	movf	?_celdaRead,w
  3848  0936  1683               	bsf	3,5	;RP0=1, select bank1
  3849  0937  1303               	bcf	3,6	;RP1=0, select bank1
  3850  0938  00D1               	movwf	tarar@total^(0+128)
  3851  0939                     l2905:	
  3852                           
  3853                           ;peso.c: 61:     uint32_t pasado;;peso.c: 62:     for (i = 0; i < 20; i++) {
  3854  0939  01D5               	clrf	tarar@i^(0+128)
  3855  093A                     l2911:	
  3856                           
  3857                           ;peso.c: 63:         pasado = total;
  3858  093A  0854               	movf	(tarar@total+3)^(0+128),w
  3859  093B  00D0               	movwf	(tarar@pasado+3)^(0+128)
  3860  093C  0853               	movf	(tarar@total+2)^(0+128),w
  3861  093D  00CF               	movwf	(tarar@pasado+2)^(0+128)
  3862  093E  0852               	movf	(tarar@total+1)^(0+128),w
  3863  093F  00CE               	movwf	(tarar@pasado+1)^(0+128)
  3864  0940  0851               	movf	tarar@total^(0+128),w
  3865  0941  00CD               	movwf	tarar@pasado^(0+128)
  3866  0942                     l2913:	
  3867                           
  3868                           ;peso.c: 64:   total =(1-0.65)*celdaRead()+0.65*pasado;
  3869  0942  120A  118A  277C  120A  158A  	fcall	_celdaRead
  3870  0947  1283               	bcf	3,5	;RP0=0, select bank0
  3871  0948  1303               	bcf	3,6	;RP1=0, select bank0
  3872  0949  082C               	movf	?_celdaRead+3,w
  3873  094A  00BD               	movwf	___xxtofl@val+3
  3874  094B  082B               	movf	?_celdaRead+2,w
  3875  094C  00BC               	movwf	___xxtofl@val+2
  3876  094D  082A               	movf	?_celdaRead+1,w
  3877  094E  00BB               	movwf	___xxtofl@val+1
  3878  094F  0829               	movf	?_celdaRead,w
  3879  0950  00BA               	movwf	___xxtofl@val
  3880  0951  3000               	movlw	0
  3881  0952  120A  158A  2060  120A  158A  	fcall	___xxtofl
  3882  0957  1283               	bcf	3,5	;RP0=0, select bank0
  3883  0958  1303               	bcf	3,6	;RP1=0, select bank0
  3884  0959  083D               	movf	?___xxtofl+3,w
  3885  095A  00CF               	movwf	___flmul@a+3
  3886  095B  083C               	movf	?___xxtofl+2,w
  3887  095C  00CE               	movwf	___flmul@a+2
  3888  095D  083B               	movf	?___xxtofl+1,w
  3889  095E  00CD               	movwf	___flmul@a+1
  3890  095F  083A               	movf	?___xxtofl,w
  3891  0960  00CC               	movwf	___flmul@a
  3892  0961  303E               	movlw	62
  3893  0962  00CB               	movwf	___flmul@b+3
  3894  0963  30B3               	movlw	179
  3895  0964  00CA               	movwf	___flmul@b+2
  3896  0965  3033               	movlw	51
  3897  0966  00C9               	movwf	___flmul@b+1
  3898  0967  3033               	movlw	51
  3899  0968  00C8               	movwf	___flmul@b
  3900  0969  120A  118A  2040  120A  158A  	fcall	___flmul
  3901  096E  1283               	bcf	3,5	;RP0=0, select bank0
  3902  096F  1303               	bcf	3,6	;RP1=0, select bank0
  3903  0970  084B               	movf	?___flmul+3,w
  3904  0971  1683               	bsf	3,5	;RP0=1, select bank1
  3905  0972  1303               	bcf	3,6	;RP1=0, select bank1
  3906  0973  00B4               	movwf	(___fladd@a+3)^(0+128)
  3907  0974  1283               	bcf	3,5	;RP0=0, select bank0
  3908  0975  1303               	bcf	3,6	;RP1=0, select bank0
  3909  0976  084A               	movf	?___flmul+2,w
  3910  0977  1683               	bsf	3,5	;RP0=1, select bank1
  3911  0978  1303               	bcf	3,6	;RP1=0, select bank1
  3912  0979  00B3               	movwf	(___fladd@a+2)^(0+128)
  3913  097A  1283               	bcf	3,5	;RP0=0, select bank0
  3914  097B  1303               	bcf	3,6	;RP1=0, select bank0
  3915  097C  0849               	movf	?___flmul+1,w
  3916  097D  1683               	bsf	3,5	;RP0=1, select bank1
  3917  097E  1303               	bcf	3,6	;RP1=0, select bank1
  3918  097F  00B2               	movwf	(___fladd@a+1)^(0+128)
  3919  0980  1283               	bcf	3,5	;RP0=0, select bank0
  3920  0981  1303               	bcf	3,6	;RP1=0, select bank0
  3921  0982  0848               	movf	?___flmul,w
  3922  0983  1683               	bsf	3,5	;RP0=1, select bank1
  3923  0984  1303               	bcf	3,6	;RP1=0, select bank1
  3924  0985  00B1               	movwf	___fladd@a^(0+128)
  3925  0986  0850               	movf	(tarar@pasado+3)^(0+128),w
  3926  0987  1283               	bcf	3,5	;RP0=0, select bank0
  3927  0988  1303               	bcf	3,6	;RP1=0, select bank0
  3928  0989  00BD               	movwf	___xxtofl@val+3
  3929  098A  1683               	bsf	3,5	;RP0=1, select bank1
  3930  098B  1303               	bcf	3,6	;RP1=0, select bank1
  3931  098C  084F               	movf	(tarar@pasado+2)^(0+128),w
  3932  098D  1283               	bcf	3,5	;RP0=0, select bank0
  3933  098E  1303               	bcf	3,6	;RP1=0, select bank0
  3934  098F  00BC               	movwf	___xxtofl@val+2
  3935  0990  1683               	bsf	3,5	;RP0=1, select bank1
  3936  0991  1303               	bcf	3,6	;RP1=0, select bank1
  3937  0992  084E               	movf	(tarar@pasado+1)^(0+128),w
  3938  0993  1283               	bcf	3,5	;RP0=0, select bank0
  3939  0994  1303               	bcf	3,6	;RP1=0, select bank0
  3940  0995  00BB               	movwf	___xxtofl@val+1
  3941  0996  1683               	bsf	3,5	;RP0=1, select bank1
  3942  0997  1303               	bcf	3,6	;RP1=0, select bank1
  3943  0998  084D               	movf	tarar@pasado^(0+128),w
  3944  0999  1283               	bcf	3,5	;RP0=0, select bank0
  3945  099A  1303               	bcf	3,6	;RP1=0, select bank0
  3946  099B  00BA               	movwf	___xxtofl@val
  3947  099C  3000               	movlw	0
  3948  099D  120A  158A  2060  120A  158A  	fcall	___xxtofl
  3949  09A2  1283               	bcf	3,5	;RP0=0, select bank0
  3950  09A3  1303               	bcf	3,6	;RP1=0, select bank0
  3951  09A4  083D               	movf	?___xxtofl+3,w
  3952  09A5  00CF               	movwf	___flmul@a+3
  3953  09A6  083C               	movf	?___xxtofl+2,w
  3954  09A7  00CE               	movwf	___flmul@a+2
  3955  09A8  083B               	movf	?___xxtofl+1,w
  3956  09A9  00CD               	movwf	___flmul@a+1
  3957  09AA  083A               	movf	?___xxtofl,w
  3958  09AB  00CC               	movwf	___flmul@a
  3959  09AC  303F               	movlw	63
  3960  09AD  00CB               	movwf	___flmul@b+3
  3961  09AE  3026               	movlw	38
  3962  09AF  00CA               	movwf	___flmul@b+2
  3963  09B0  3066               	movlw	102
  3964  09B1  00C9               	movwf	___flmul@b+1
  3965  09B2  3066               	movlw	102
  3966  09B3  00C8               	movwf	___flmul@b
  3967  09B4  120A  118A  2040  120A  158A  	fcall	___flmul
  3968  09B9  1283               	bcf	3,5	;RP0=0, select bank0
  3969  09BA  1303               	bcf	3,6	;RP1=0, select bank0
  3970  09BB  084B               	movf	?___flmul+3,w
  3971  09BC  1683               	bsf	3,5	;RP0=1, select bank1
  3972  09BD  1303               	bcf	3,6	;RP1=0, select bank1
  3973  09BE  00B0               	movwf	(___fladd@b+3)^(0+128)
  3974  09BF  1283               	bcf	3,5	;RP0=0, select bank0
  3975  09C0  1303               	bcf	3,6	;RP1=0, select bank0
  3976  09C1  084A               	movf	?___flmul+2,w
  3977  09C2  1683               	bsf	3,5	;RP0=1, select bank1
  3978  09C3  1303               	bcf	3,6	;RP1=0, select bank1
  3979  09C4  00AF               	movwf	(___fladd@b+2)^(0+128)
  3980  09C5  1283               	bcf	3,5	;RP0=0, select bank0
  3981  09C6  1303               	bcf	3,6	;RP1=0, select bank0
  3982  09C7  0849               	movf	?___flmul+1,w
  3983  09C8  1683               	bsf	3,5	;RP0=1, select bank1
  3984  09C9  1303               	bcf	3,6	;RP1=0, select bank1
  3985  09CA  00AE               	movwf	(___fladd@b+1)^(0+128)
  3986  09CB  1283               	bcf	3,5	;RP0=0, select bank0
  3987  09CC  1303               	bcf	3,6	;RP1=0, select bank0
  3988  09CD  0848               	movf	?___flmul,w
  3989  09CE  1683               	bsf	3,5	;RP0=1, select bank1
  3990  09CF  1303               	bcf	3,6	;RP1=0, select bank1
  3991  09D0  00AD               	movwf	___fladd@b^(0+128)
  3992  09D1  160A  118A  2482  120A  158A  	fcall	___fladd
  3993  09D6  1683               	bsf	3,5	;RP0=1, select bank1
  3994  09D7  1303               	bcf	3,6	;RP1=0, select bank1
  3995  09D8  0830               	movf	(?___fladd+3)^(0+128),w
  3996  09D9  00C0               	movwf	(___fltol@f1+3)^(0+128)
  3997  09DA  082F               	movf	(?___fladd+2)^(0+128),w
  3998  09DB  00BF               	movwf	(___fltol@f1+2)^(0+128)
  3999  09DC  082E               	movf	(?___fladd+1)^(0+128),w
  4000  09DD  00BE               	movwf	(___fltol@f1+1)^(0+128)
  4001  09DE  082D               	movf	?___fladd^(0+128),w
  4002  09DF  00BD               	movwf	___fltol@f1^(0+128)
  4003  09E0  160A  118A  22DA  120A  158A  	fcall	___fltol
  4004  09E5  1683               	bsf	3,5	;RP0=1, select bank1
  4005  09E6  1303               	bcf	3,6	;RP1=0, select bank1
  4006  09E7  0840               	movf	(?___fltol+3)^(0+128),w
  4007  09E8  00D4               	movwf	(tarar@total+3)^(0+128)
  4008  09E9  083F               	movf	(?___fltol+2)^(0+128),w
  4009  09EA  00D3               	movwf	(tarar@total+2)^(0+128)
  4010  09EB  083E               	movf	(?___fltol+1)^(0+128),w
  4011  09EC  00D2               	movwf	(tarar@total+1)^(0+128)
  4012  09ED  083D               	movf	?___fltol^(0+128),w
  4013  09EE  00D1               	movwf	tarar@total^(0+128)
  4014  09EF                     l2915:	
  4015                           
  4016                           ;peso.c: 65:  }
  4017  09EF  3001               	movlw	1
  4018  09F0  00CC               	movwf	??_tarar^(0+128)
  4019  09F1  084C               	movf	??_tarar^(0+128),w
  4020  09F2  07D5               	addwf	tarar@i^(0+128),f
  4021  09F3                     l2917:	
  4022  09F3  3014               	movlw	20
  4023  09F4  0255               	subwf	tarar@i^(0+128),w
  4024  09F5  1C03               	skipc
  4025  09F6  29F8               	goto	u4401
  4026  09F7  29F9               	goto	u4400
  4027  09F8                     u4401:	
  4028  09F8  293A               	goto	l2911
  4029  09F9                     u4400:	
  4030  09F9                     l2919:	
  4031                           
  4032                           ;peso.c: 66:  return total;
  4033  09F9  0854               	movf	(tarar@total+3)^(0+128),w
  4034  09FA  00CB               	movwf	(?_tarar+3)^(0+128)
  4035  09FB  0853               	movf	(tarar@total+2)^(0+128),w
  4036  09FC  00CA               	movwf	(?_tarar+2)^(0+128)
  4037  09FD  0852               	movf	(tarar@total+1)^(0+128),w
  4038  09FE  00C9               	movwf	(?_tarar+1)^(0+128)
  4039  09FF  0851               	movf	tarar@total^(0+128),w
  4040  0A00  00C8               	movwf	?_tarar^(0+128)
  4041  0A01                     l26:	
  4042  0A01  0008               	return
  4043  0A02                     __end_of_tarar:	
  4044                           
  4045                           	psect	text9
  4046  077C                     __ptext9:	
  4047 ;; *************** function _celdaRead *****************
  4048 ;; Defined at:
  4049 ;;		line 27 in file "peso.c"
  4050 ;; Parameters:    Size  Location     Type
  4051 ;;		None
  4052 ;; Auto vars:     Size  Location     Type
  4053 ;;  valor           4   22[BANK0 ] unsigned long 
  4054 ;;  v               4   17[BANK0 ] unsigned long 
  4055 ;;  i               1   21[BANK0 ] unsigned char 
  4056 ;; Return value:  Size  Location     Type
  4057 ;;                  4    9[BANK0 ] unsigned long 
  4058 ;; Registers used:
  4059 ;;		wreg, status,2, status,0
  4060 ;; Tracked objects:
  4061 ;;		On entry : 0/0
  4062 ;;		On exit  : 0/0
  4063 ;;		Unchanged: 0/0
  4064 ;; Data sizes:     COMMON   BANK0   BANK1   BANK3   BANK2
  4065 ;;      Params:         0       4       0       0       0
  4066 ;;      Locals:         0       9       0       0       0
  4067 ;;      Temps:          0       4       0       0       0
  4068 ;;      Totals:         0      17       0       0       0
  4069 ;;Total ram usage:       17 bytes
  4070 ;; Hardware stack levels used:    1
  4071 ;; Hardware stack levels required when called:    2
  4072 ;; This function calls:
  4073 ;;		Nothing
  4074 ;; This function is called by:
  4075 ;;		_tarar
  4076 ;;		_main
  4077 ;; This function uses a non-reentrant model
  4078 ;;
  4079                           
  4080                           
  4081                           ;psect for function _celdaRead
  4082  077C                     _celdaRead:	
  4083  077C                     l1767:	
  4084                           ;incstack = 0
  4085                           ; Regs used in _celdaRead: [wreg+status,2+status,0]
  4086                           
  4087                           
  4088                           ;peso.c: 28:     uint8_t i;;peso.c: 29:     uint32_t valor=0;
  4089  077C  3000               	movlw	0
  4090  077D  1283               	bcf	3,5	;RP0=0, select bank0
  4091  077E  1303               	bcf	3,6	;RP1=0, select bank0
  4092  077F  00B9               	movwf	celdaRead@valor+3
  4093  0780  3000               	movlw	0
  4094  0781  00B8               	movwf	celdaRead@valor+2
  4095  0782  3000               	movlw	0
  4096  0783  00B7               	movwf	celdaRead@valor+1
  4097  0784  3000               	movlw	0
  4098  0785  00B6               	movwf	celdaRead@valor
  4099  0786                     l16:	
  4100                           ;peso.c: 30:     uint32_t v;;peso.c: 31:     while(PORTAbits.RA1);
  4101                           
  4102  0786  1885               	btfsc	5,1	;volatile
  4103  0787  2F89               	goto	u1841
  4104  0788  2F8A               	goto	u1840
  4105  0789                     u1841:	
  4106  0789  2F86               	goto	l16
  4107  078A                     u1840:	
  4108  078A                     l1769:	
  4109                           
  4110                           ;peso.c: 32:     for(i=0;i<24;i++){
  4111  078A  01B5               	clrf	celdaRead@i
  4112  078B                     l19:	
  4113                           
  4114                           ;peso.c: 33:         PORTAbits.RA0 = 1;
  4115  078B  1405               	bsf	5,0	;volatile
  4116                           
  4117                           ;peso.c: 34:         _delay((unsigned long)((1)*(4000000/4000000.0)));
  4118  078C  0000               	nop
  4119                           
  4120                           ;peso.c: 35:         PORTAbits.RA0 = 0;
  4121  078D  1283               	bcf	3,5	;RP0=0, select bank0
  4122  078E  1303               	bcf	3,6	;RP1=0, select bank0
  4123  078F  1005               	bcf	5,0	;volatile
  4124                           
  4125                           ;peso.c: 36:         _delay((unsigned long)((1)*(4000000/4000000.0)));
  4126  0790  0000               	nop
  4127  0791                     l1775:	
  4128                           
  4129                           ;peso.c: 37:         valor <<= 1;
  4130  0791  3001               	movlw	1
  4131  0792  1283               	bcf	3,5	;RP0=0, select bank0
  4132  0793  1303               	bcf	3,6	;RP1=0, select bank0
  4133  0794  00AD               	movwf	??_celdaRead
  4134  0795                     u1855:	
  4135  0795  1003               	clrc
  4136  0796  0DB6               	rlf	celdaRead@valor,f
  4137  0797  0DB7               	rlf	celdaRead@valor+1,f
  4138  0798  0DB8               	rlf	celdaRead@valor+2,f
  4139  0799  0DB9               	rlf	celdaRead@valor+3,f
  4140  079A  0BAD               	decfsz	??_celdaRead,f
  4141  079B  2F95               	goto	u1855
  4142                           
  4143                           ;peso.c: 38:         v = 0x0+PORTAbits.RA1;;
  4144  079C  0C05               	rrf	5,w	;volatile
  4145  079D  3901               	andlw	1
  4146  079E  00AD               	movwf	??_celdaRead
  4147  079F  01AE               	clrf	??_celdaRead+1
  4148  07A0  01AF               	clrf	??_celdaRead+2
  4149  07A1  01B0               	clrf	??_celdaRead+3
  4150  07A2  0830               	movf	??_celdaRead+3,w
  4151  07A3  00B4               	movwf	celdaRead@v+3
  4152  07A4  082F               	movf	??_celdaRead+2,w
  4153  07A5  00B3               	movwf	celdaRead@v+2
  4154  07A6  082E               	movf	??_celdaRead+1,w
  4155  07A7  00B2               	movwf	celdaRead@v+1
  4156  07A8  082D               	movf	??_celdaRead,w
  4157  07A9  00B1               	movwf	celdaRead@v
  4158  07AA                     l1777:	
  4159                           
  4160                           ;peso.c: 39:         valor = valor|v;
  4161  07AA  0831               	movf	celdaRead@v,w
  4162  07AB  0436               	iorwf	celdaRead@valor,w
  4163  07AC  00AD               	movwf	??_celdaRead
  4164  07AD  0832               	movf	celdaRead@v+1,w
  4165  07AE  0437               	iorwf	celdaRead@valor+1,w
  4166  07AF  00AE               	movwf	??_celdaRead+1
  4167  07B0  0833               	movf	celdaRead@v+2,w
  4168  07B1  0438               	iorwf	celdaRead@valor+2,w
  4169  07B2  00AF               	movwf	??_celdaRead+2
  4170  07B3  0834               	movf	celdaRead@v+3,w
  4171  07B4  0439               	iorwf	celdaRead@valor+3,w
  4172  07B5  00B0               	movwf	??_celdaRead+3
  4173  07B6  0830               	movf	??_celdaRead+3,w
  4174  07B7  00B9               	movwf	celdaRead@valor+3
  4175  07B8  082F               	movf	??_celdaRead+2,w
  4176  07B9  00B8               	movwf	celdaRead@valor+2
  4177  07BA  082E               	movf	??_celdaRead+1,w
  4178  07BB  00B7               	movwf	celdaRead@valor+1
  4179  07BC  082D               	movf	??_celdaRead,w
  4180  07BD  00B6               	movwf	celdaRead@valor
  4181  07BE                     l1779:	
  4182                           
  4183                           ;peso.c: 40:     }
  4184  07BE  3001               	movlw	1
  4185  07BF  00AD               	movwf	??_celdaRead
  4186  07C0  082D               	movf	??_celdaRead,w
  4187  07C1  07B5               	addwf	celdaRead@i,f
  4188  07C2  3018               	movlw	24
  4189  07C3  0235               	subwf	celdaRead@i,w
  4190  07C4  1C03               	skipc
  4191  07C5  2FC7               	goto	u1861
  4192  07C6  2FC8               	goto	u1860
  4193  07C7                     u1861:	
  4194  07C7  2F8B               	goto	l19
  4195  07C8                     u1860:	
  4196  07C8                     l20:	
  4197                           
  4198                           ;peso.c: 41:     PORTAbits.RA0 = 1;
  4199  07C8  1405               	bsf	5,0	;volatile
  4200                           
  4201                           ;peso.c: 42:     _delay((unsigned long)((1)*(4000000/4000000.0)));
  4202  07C9  0000               	nop
  4203                           
  4204                           ;peso.c: 43:     PORTAbits.RA0 = 0;
  4205  07CA  1283               	bcf	3,5	;RP0=0, select bank0
  4206  07CB  1303               	bcf	3,6	;RP1=0, select bank0
  4207  07CC  1005               	bcf	5,0	;volatile
  4208  07CD                     l1781:	
  4209                           
  4210                           ;peso.c: 53:     valor = valor-0x80000000;
  4211  07CD  3000               	movlw	0
  4212  07CE  00AD               	movwf	??_celdaRead
  4213  07CF  3000               	movlw	0
  4214  07D0  00AE               	movwf	??_celdaRead+1
  4215  07D1  3000               	movlw	0
  4216  07D2  00AF               	movwf	??_celdaRead+2
  4217  07D3  3080               	movlw	128
  4218  07D4  00B0               	movwf	??_celdaRead+3
  4219  07D5  0836               	movf	celdaRead@valor,w
  4220  07D6  07AD               	addwf	??_celdaRead,f
  4221  07D7  0837               	movf	celdaRead@valor+1,w
  4222  07D8  1803               	skipnc
  4223  07D9  0F37               	incfsz	celdaRead@valor+1,w
  4224  07DA  2FDC               	goto	u1870
  4225  07DB  2FDD               	goto	u1871
  4226  07DC                     u1870:	
  4227  07DC  07AE               	addwf	??_celdaRead+1,f
  4228  07DD                     u1871:	
  4229  07DD  0838               	movf	celdaRead@valor+2,w
  4230  07DE  1803               	skipnc
  4231  07DF  0F38               	incfsz	celdaRead@valor+2,w
  4232  07E0  2FE2               	goto	u1872
  4233  07E1  2FE3               	goto	u1873
  4234  07E2                     u1872:	
  4235  07E2  07AF               	addwf	??_celdaRead+2,f
  4236  07E3                     u1873:	
  4237  07E3  0839               	movf	celdaRead@valor+3,w
  4238  07E4  1803               	skipnc
  4239  07E5  0A39               	incf	celdaRead@valor+3,w
  4240  07E6  07B0               	addwf	??_celdaRead+3,f
  4241  07E7  0830               	movf	??_celdaRead+3,w
  4242  07E8  00B9               	movwf	celdaRead@valor+3
  4243  07E9  082F               	movf	??_celdaRead+2,w
  4244  07EA  00B8               	movwf	celdaRead@valor+2
  4245  07EB  082E               	movf	??_celdaRead+1,w
  4246  07EC  00B7               	movwf	celdaRead@valor+1
  4247  07ED  082D               	movf	??_celdaRead,w
  4248  07EE  00B6               	movwf	celdaRead@valor
  4249                           
  4250                           ;peso.c: 54:     return valor;
  4251  07EF  0839               	movf	celdaRead@valor+3,w
  4252  07F0  00AC               	movwf	?_celdaRead+3
  4253  07F1  0838               	movf	celdaRead@valor+2,w
  4254  07F2  00AB               	movwf	?_celdaRead+2
  4255  07F3  0837               	movf	celdaRead@valor+1,w
  4256  07F4  00AA               	movwf	?_celdaRead+1
  4257  07F5  0836               	movf	celdaRead@valor,w
  4258  07F6  00A9               	movwf	?_celdaRead
  4259  07F7                     l21:	
  4260  07F7  0008               	return
  4261  07F8                     __end_of_celdaRead:	
  4262                           
  4263                           	psect	text10
  4264  0860                     __ptext10:	
  4265 ;; *************** function ___xxtofl *****************
  4266 ;; Defined at:
  4267 ;;		line 10 in file "D:\Program Files (x86)\Microchip\xc8\v2.10\pic\sources\c90\common\xxtofl.c"
  4268 ;; Parameters:    Size  Location     Type
  4269 ;;  sign            1    wreg     unsigned char 
  4270 ;;  val             4   26[BANK0 ] long 
  4271 ;; Auto vars:     Size  Location     Type
  4272 ;;  sign            1   34[BANK0 ] unsigned char 
  4273 ;;  arg             4   36[BANK0 ] unsigned long 
  4274 ;;  exp             1   35[BANK0 ] unsigned char 
  4275 ;; Return value:  Size  Location     Type
  4276 ;;                  4   26[BANK0 ] unsigned char 
  4277 ;; Registers used:
  4278 ;;		wreg, status,2, status,0
  4279 ;; Tracked objects:
  4280 ;;		On entry : 0/0
  4281 ;;		On exit  : 0/0
  4282 ;;		Unchanged: 0/0
  4283 ;; Data sizes:     COMMON   BANK0   BANK1   BANK3   BANK2
  4284 ;;      Params:         0       4       0       0       0
  4285 ;;      Locals:         0       6       0       0       0
  4286 ;;      Temps:          0       4       0       0       0
  4287 ;;      Totals:         0      14       0       0       0
  4288 ;;Total ram usage:       14 bytes
  4289 ;; Hardware stack levels used:    1
  4290 ;; Hardware stack levels required when called:    2
  4291 ;; This function calls:
  4292 ;;		Nothing
  4293 ;; This function is called by:
  4294 ;;		_tarar
  4295 ;;		_main
  4296 ;;		_weight
  4297 ;; This function uses a non-reentrant model
  4298 ;;
  4299                           
  4300                           
  4301                           ;psect for function ___xxtofl
  4302  0860                     ___xxtofl:	
  4303                           
  4304                           ;incstack = 0
  4305                           ; Regs used in ___xxtofl: [wreg+status,2+status,0]
  4306                           ;___xxtofl@sign stored from wreg
  4307  0860  1283               	bcf	3,5	;RP0=0, select bank0
  4308  0861  1303               	bcf	3,6	;RP1=0, select bank0
  4309  0862  00C2               	movwf	___xxtofl@sign
  4310  0863                     l2155:	
  4311  0863  0842               	movf	___xxtofl@sign,w
  4312  0864  1903               	btfsc	3,2
  4313  0865  2867               	goto	u2811
  4314  0866  2868               	goto	u2810
  4315  0867                     u2811:	
  4316  0867  287C               	goto	l2161
  4317  0868                     u2810:	
  4318  0868                     l2157:	
  4319  0868  1FBD               	btfss	___xxtofl@val+3,7
  4320  0869  286B               	goto	u2821
  4321  086A  286C               	goto	u2820
  4322  086B                     u2821:	
  4323  086B  287C               	goto	l2161
  4324  086C                     u2820:	
  4325  086C                     l2159:	
  4326  086C  093A               	comf	___xxtofl@val,w
  4327  086D  00C4               	movwf	___xxtofl@arg
  4328  086E  093B               	comf	___xxtofl@val+1,w
  4329  086F  00C5               	movwf	___xxtofl@arg+1
  4330  0870  093C               	comf	___xxtofl@val+2,w
  4331  0871  00C6               	movwf	___xxtofl@arg+2
  4332  0872  093D               	comf	___xxtofl@val+3,w
  4333  0873  00C7               	movwf	___xxtofl@arg+3
  4334  0874  0AC4               	incf	___xxtofl@arg,f
  4335  0875  1903               	skipnz
  4336  0876  0AC5               	incf	___xxtofl@arg+1,f
  4337  0877  1903               	skipnz
  4338  0878  0AC6               	incf	___xxtofl@arg+2,f
  4339  0879  1903               	skipnz
  4340  087A  0AC7               	incf	___xxtofl@arg+3,f
  4341  087B  2884               	goto	l736
  4342  087C                     l2161:	
  4343  087C  083D               	movf	___xxtofl@val+3,w
  4344  087D  00C7               	movwf	___xxtofl@arg+3
  4345  087E  083C               	movf	___xxtofl@val+2,w
  4346  087F  00C6               	movwf	___xxtofl@arg+2
  4347  0880  083B               	movf	___xxtofl@val+1,w
  4348  0881  00C5               	movwf	___xxtofl@arg+1
  4349  0882  083A               	movf	___xxtofl@val,w
  4350  0883  00C4               	movwf	___xxtofl@arg
  4351  0884                     l736:	
  4352  0884  083D               	movf	___xxtofl@val+3,w
  4353  0885  043C               	iorwf	___xxtofl@val+2,w
  4354  0886  043B               	iorwf	___xxtofl@val+1,w
  4355  0887  043A               	iorwf	___xxtofl@val,w
  4356  0888  1D03               	skipz
  4357  0889  288B               	goto	u2831
  4358  088A  288C               	goto	u2830
  4359  088B                     u2831:	
  4360  088B  2895               	goto	l2167
  4361  088C                     u2830:	
  4362  088C                     l2163:	
  4363  088C  3000               	movlw	0
  4364  088D  00BD               	movwf	?___xxtofl+3
  4365  088E  3000               	movlw	0
  4366  088F  00BC               	movwf	?___xxtofl+2
  4367  0890  3000               	movlw	0
  4368  0891  00BB               	movwf	?___xxtofl+1
  4369  0892  3000               	movlw	0
  4370  0893  00BA               	movwf	?___xxtofl
  4371  0894  291B               	goto	l738
  4372  0895                     l2167:	
  4373  0895  3096               	movlw	150
  4374  0896  00BE               	movwf	??___xxtofl
  4375  0897  083E               	movf	??___xxtofl,w
  4376  0898  00C3               	movwf	___xxtofl@exp
  4377  0899  28A7               	goto	l2171
  4378  089A                     l2169:	
  4379  089A  3001               	movlw	1
  4380  089B  00BE               	movwf	??___xxtofl
  4381  089C  083E               	movf	??___xxtofl,w
  4382  089D  07C3               	addwf	___xxtofl@exp,f
  4383  089E  3001               	movlw	1
  4384  089F                     u2845:	
  4385  089F  1003               	clrc
  4386  08A0  0CC7               	rrf	___xxtofl@arg+3,f
  4387  08A1  0CC6               	rrf	___xxtofl@arg+2,f
  4388  08A2  0CC5               	rrf	___xxtofl@arg+1,f
  4389  08A3  0CC4               	rrf	___xxtofl@arg,f
  4390  08A4  3EFF               	addlw	-1
  4391  08A5  1D03               	skipz
  4392  08A6  289F               	goto	u2845
  4393  08A7                     l2171:	
  4394  08A7  30FE               	movlw	254
  4395  08A8  0547               	andwf	___xxtofl@arg+3,w
  4396  08A9  1D03               	btfss	3,2
  4397  08AA  28AC               	goto	u2851
  4398  08AB  28AD               	goto	u2850
  4399  08AC                     u2851:	
  4400  08AC  289A               	goto	l2169
  4401  08AD                     u2850:	
  4402  08AD  28C9               	goto	l742
  4403  08AE                     l2173:	
  4404  08AE  3001               	movlw	1
  4405  08AF  00BE               	movwf	??___xxtofl
  4406  08B0  083E               	movf	??___xxtofl,w
  4407  08B1  07C3               	addwf	___xxtofl@exp,f
  4408  08B2                     l2175:	
  4409  08B2  3001               	movlw	1
  4410  08B3  07C4               	addwf	___xxtofl@arg,f
  4411  08B4  3000               	movlw	0
  4412  08B5  1803               	skipnc
  4413  08B6  3001               	movlw	1
  4414  08B7  07C5               	addwf	___xxtofl@arg+1,f
  4415  08B8  3000               	movlw	0
  4416  08B9  1803               	skipnc
  4417  08BA  3001               	movlw	1
  4418  08BB  07C6               	addwf	___xxtofl@arg+2,f
  4419  08BC  3000               	movlw	0
  4420  08BD  1803               	skipnc
  4421  08BE  3001               	movlw	1
  4422  08BF  07C7               	addwf	___xxtofl@arg+3,f
  4423  08C0                     l2177:	
  4424  08C0  3001               	movlw	1
  4425  08C1                     u2865:	
  4426  08C1  1003               	clrc
  4427  08C2  0CC7               	rrf	___xxtofl@arg+3,f
  4428  08C3  0CC6               	rrf	___xxtofl@arg+2,f
  4429  08C4  0CC5               	rrf	___xxtofl@arg+1,f
  4430  08C5  0CC4               	rrf	___xxtofl@arg,f
  4431  08C6  3EFF               	addlw	-1
  4432  08C7  1D03               	skipz
  4433  08C8  28C1               	goto	u2865
  4434  08C9                     l742:	
  4435  08C9  30FF               	movlw	255
  4436  08CA  0547               	andwf	___xxtofl@arg+3,w
  4437  08CB  1D03               	btfss	3,2
  4438  08CC  28CE               	goto	u2871
  4439  08CD  28CF               	goto	u2870
  4440  08CE                     u2871:	
  4441  08CE  28AE               	goto	l2173
  4442  08CF                     u2870:	
  4443  08CF  28DB               	goto	l2181
  4444  08D0                     l2179:	
  4445  08D0  3001               	movlw	1
  4446  08D1  02C3               	subwf	___xxtofl@exp,f
  4447  08D2  3001               	movlw	1
  4448  08D3  00BE               	movwf	??___xxtofl
  4449  08D4                     u2885:	
  4450  08D4  1003               	clrc
  4451  08D5  0DC4               	rlf	___xxtofl@arg,f
  4452  08D6  0DC5               	rlf	___xxtofl@arg+1,f
  4453  08D7  0DC6               	rlf	___xxtofl@arg+2,f
  4454  08D8  0DC7               	rlf	___xxtofl@arg+3,f
  4455  08D9  0BBE               	decfsz	??___xxtofl,f
  4456  08DA  28D4               	goto	u2885
  4457  08DB                     l2181:	
  4458  08DB  1BC6               	btfsc	___xxtofl@arg+2,7
  4459  08DC  28DE               	goto	u2891
  4460  08DD  28DF               	goto	u2890
  4461  08DE                     u2891:	
  4462  08DE  28E5               	goto	l749
  4463  08DF                     u2890:	
  4464  08DF                     l2183:	
  4465  08DF  3002               	movlw	2
  4466  08E0  0243               	subwf	___xxtofl@exp,w
  4467  08E1  1803               	skipnc
  4468  08E2  28E4               	goto	u2901
  4469  08E3  28E5               	goto	u2900
  4470  08E4                     u2901:	
  4471  08E4  28D0               	goto	l2179
  4472  08E5                     u2900:	
  4473  08E5                     l749:	
  4474  08E5  1843               	btfsc	___xxtofl@exp,0
  4475  08E6  28E8               	goto	u2911
  4476  08E7  28E9               	goto	u2910
  4477  08E8                     u2911:	
  4478  08E8  28F1               	goto	l750
  4479  08E9                     u2910:	
  4480  08E9                     l2185:	
  4481  08E9  30FF               	movlw	255
  4482  08EA  05C4               	andwf	___xxtofl@arg,f
  4483  08EB  30FF               	movlw	255
  4484  08EC  05C5               	andwf	___xxtofl@arg+1,f
  4485  08ED  307F               	movlw	127
  4486  08EE  05C6               	andwf	___xxtofl@arg+2,f
  4487  08EF  30FF               	movlw	255
  4488  08F0  05C7               	andwf	___xxtofl@arg+3,f
  4489  08F1                     l750:	
  4490  08F1  1003               	clrc
  4491  08F2  0CC3               	rrf	___xxtofl@exp,f
  4492  08F3                     l2187:	
  4493  08F3  0843               	movf	___xxtofl@exp,w
  4494  08F4  00BE               	movwf	??___xxtofl
  4495  08F5  01BF               	clrf	??___xxtofl+1
  4496  08F6  01C0               	clrf	??___xxtofl+2
  4497  08F7  01C1               	clrf	??___xxtofl+3
  4498  08F8  3018               	movlw	24
  4499  08F9                     u2925:	
  4500  08F9  1003               	clrc
  4501  08FA  0DBE               	rlf	??___xxtofl,f
  4502  08FB  0DBF               	rlf	??___xxtofl+1,f
  4503  08FC  0DC0               	rlf	??___xxtofl+2,f
  4504  08FD  0DC1               	rlf	??___xxtofl+3,f
  4505  08FE                     u2920:	
  4506  08FE  3EFF               	addlw	-1
  4507  08FF  1D03               	skipz
  4508  0900  28F9               	goto	u2925
  4509  0901  083E               	movf	??___xxtofl,w
  4510  0902  04C4               	iorwf	___xxtofl@arg,f
  4511  0903  083F               	movf	??___xxtofl+1,w
  4512  0904  04C5               	iorwf	___xxtofl@arg+1,f
  4513  0905  0840               	movf	??___xxtofl+2,w
  4514  0906  04C6               	iorwf	___xxtofl@arg+2,f
  4515  0907  0841               	movf	??___xxtofl+3,w
  4516  0908  04C7               	iorwf	___xxtofl@arg+3,f
  4517  0909                     l2189:	
  4518  0909  0842               	movf	___xxtofl@sign,w
  4519  090A  1903               	btfsc	3,2
  4520  090B  290D               	goto	u2931
  4521  090C  290E               	goto	u2930
  4522  090D                     u2931:	
  4523  090D  2913               	goto	l2195
  4524  090E                     u2930:	
  4525  090E                     l2191:	
  4526  090E  1FBD               	btfss	___xxtofl@val+3,7
  4527  090F  2911               	goto	u2941
  4528  0910  2912               	goto	u2940
  4529  0911                     u2941:	
  4530  0911  2913               	goto	l2195
  4531  0912                     u2940:	
  4532  0912                     l2193:	
  4533  0912  17C7               	bsf	___xxtofl@arg+3,7
  4534  0913                     l2195:	
  4535  0913  0847               	movf	___xxtofl@arg+3,w
  4536  0914  00BD               	movwf	?___xxtofl+3
  4537  0915  0846               	movf	___xxtofl@arg+2,w
  4538  0916  00BC               	movwf	?___xxtofl+2
  4539  0917  0845               	movf	___xxtofl@arg+1,w
  4540  0918  00BB               	movwf	?___xxtofl+1
  4541  0919  0844               	movf	___xxtofl@arg,w
  4542  091A  00BA               	movwf	?___xxtofl
  4543  091B                     l738:	
  4544  091B  0008               	return
  4545  091C                     __end_of___xxtofl:	
  4546                           
  4547                           	psect	text11
  4548  12DA                     __ptext11:	
  4549 ;; *************** function ___fltol *****************
  4550 ;; Defined at:
  4551 ;;		line 43 in file "D:\Program Files (x86)\Microchip\xc8\v2.10\pic\sources\c90\common\fltol.c"
  4552 ;; Parameters:    Size  Location     Type
  4553 ;;  f1              4   29[BANK1 ] unsigned char 
  4554 ;; Auto vars:     Size  Location     Type
  4555 ;;  exp1            1   39[BANK1 ] unsigned char 
  4556 ;;  sign1           1   38[BANK1 ] unsigned char 
  4557 ;; Return value:  Size  Location     Type
  4558 ;;                  4   29[BANK1 ] long 
  4559 ;; Registers used:
  4560 ;;		wreg, status,2, status,0
  4561 ;; Tracked objects:
  4562 ;;		On entry : 0/0
  4563 ;;		On exit  : 0/0
  4564 ;;		Unchanged: 0/0
  4565 ;; Data sizes:     COMMON   BANK0   BANK1   BANK3   BANK2
  4566 ;;      Params:         0       0       4       0       0
  4567 ;;      Locals:         0       0       2       0       0
  4568 ;;      Temps:          0       0       5       0       0
  4569 ;;      Totals:         0       0      11       0       0
  4570 ;;Total ram usage:       11 bytes
  4571 ;; Hardware stack levels used:    1
  4572 ;; Hardware stack levels required when called:    2
  4573 ;; This function calls:
  4574 ;;		Nothing
  4575 ;; This function is called by:
  4576 ;;		_tarar
  4577 ;;		_main
  4578 ;;		_weight
  4579 ;; This function uses a non-reentrant model
  4580 ;;
  4581                           
  4582                           
  4583                           ;psect for function ___fltol
  4584  12DA                     ___fltol:	
  4585  12DA                     l1785:	
  4586                           ;incstack = 0
  4587                           ; Regs used in ___fltol: [wreg+status,2+status,0]
  4588                           
  4589  12DA  1003               	clrc
  4590  12DB  1683               	bsf	3,5	;RP0=1, select bank1
  4591  12DC  1303               	bcf	3,6	;RP1=0, select bank1
  4592  12DD  0D3F               	rlf	(___fltol@f1+2)^(0+128),w
  4593  12DE  0D40               	rlf	(___fltol@f1+3)^(0+128),w
  4594  12DF  00C1               	movwf	??___fltol^(0+128)
  4595  12E0  0841               	movf	??___fltol^(0+128),w
  4596  12E1  00C7               	movwf	___fltol@exp1^(0+128)
  4597  12E2  0847               	movf	___fltol@exp1^(0+128),w
  4598  12E3  1D03               	btfss	3,2
  4599  12E4  2AE6               	goto	u1881
  4600  12E5  2AE7               	goto	u1880
  4601  12E6                     u1881:	
  4602  12E6  2AF0               	goto	l1791
  4603  12E7                     u1880:	
  4604  12E7                     l1787:	
  4605  12E7  3000               	movlw	0
  4606  12E8  00C0               	movwf	(?___fltol+3)^(0+128)
  4607  12E9  3000               	movlw	0
  4608  12EA  00BF               	movwf	(?___fltol+2)^(0+128)
  4609  12EB  3000               	movlw	0
  4610  12EC  00BE               	movwf	(?___fltol+1)^(0+128)
  4611  12ED  3000               	movlw	0
  4612  12EE  00BD               	movwf	?___fltol^(0+128)
  4613  12EF  2B55               	goto	l495
  4614  12F0                     l1791:	
  4615  12F0  083D               	movf	___fltol@f1^(0+128),w
  4616  12F1  00C1               	movwf	??___fltol^(0+128)
  4617  12F2  083E               	movf	(___fltol@f1+1)^(0+128),w
  4618  12F3  00C2               	movwf	(??___fltol^(0+128)+1)
  4619  12F4  083F               	movf	(___fltol@f1+2)^(0+128),w
  4620  12F5  00C3               	movwf	(??___fltol^(0+128)+2)
  4621  12F6  0840               	movf	(___fltol@f1+3)^(0+128),w
  4622  12F7  00C4               	movwf	(??___fltol^(0+128)+3)
  4623  12F8  301F               	movlw	31
  4624  12F9                     u1895:	
  4625  12F9  1003               	clrc
  4626  12FA  0CC4               	rrf	(??___fltol^(0+128)+3),f
  4627  12FB  0CC3               	rrf	(??___fltol^(0+128)+2),f
  4628  12FC  0CC2               	rrf	(??___fltol^(0+128)+1),f
  4629  12FD  0CC1               	rrf	??___fltol^(0+128),f
  4630  12FE                     u1890:	
  4631  12FE  3EFF               	addlw	-1
  4632  12FF  1D03               	skipz
  4633  1300  2AF9               	goto	u1895
  4634  1301  0841               	movf	??___fltol^(0+128),w
  4635  1302  00C5               	movwf	(??___fltol+4)^(0+128)
  4636  1303  0845               	movf	(??___fltol+4)^(0+128),w
  4637  1304  00C6               	movwf	___fltol@sign1^(0+128)
  4638  1305                     l1793:	
  4639  1305  17BF               	bsf	(___fltol@f1^(0+128)+2),7
  4640  1306                     l1795:	
  4641  1306  30FF               	movlw	255
  4642  1307  05BD               	andwf	___fltol@f1^(0+128),f
  4643  1308  30FF               	movlw	255
  4644  1309  05BE               	andwf	(___fltol@f1+1)^(0+128),f
  4645  130A  30FF               	movlw	255
  4646  130B  05BF               	andwf	(___fltol@f1+2)^(0+128),f
  4647  130C  3000               	movlw	0
  4648  130D  05C0               	andwf	(___fltol@f1+3)^(0+128),f
  4649  130E                     l1797:	
  4650  130E  3096               	movlw	150
  4651  130F  02C7               	subwf	___fltol@exp1^(0+128),f
  4652  1310                     l1799:	
  4653  1310  1FC7               	btfss	___fltol@exp1^(0+128),7
  4654  1311  2B13               	goto	u1901
  4655  1312  2B14               	goto	u1900
  4656  1313                     u1901:	
  4657  1313  2B2E               	goto	l1809
  4658  1314                     u1900:	
  4659  1314                     l1801:	
  4660  1314  0847               	movf	___fltol@exp1^(0+128),w
  4661  1315  3A80               	xorlw	128
  4662  1316  3E97               	addlw	151
  4663  1317  1803               	skipnc
  4664  1318  2B1A               	goto	u1911
  4665  1319  2B1B               	goto	u1910
  4666  131A                     u1911:	
  4667  131A  2B1C               	goto	l1807
  4668  131B                     u1910:	
  4669  131B  2AE7               	goto	l1787
  4670  131C                     l1807:	
  4671  131C  3001               	movlw	1
  4672  131D                     u1925:	
  4673  131D  1003               	clrc
  4674  131E  0CC0               	rrf	(___fltol@f1+3)^(0+128),f
  4675  131F  0CBF               	rrf	(___fltol@f1+2)^(0+128),f
  4676  1320  0CBE               	rrf	(___fltol@f1+1)^(0+128),f
  4677  1321  0CBD               	rrf	___fltol@f1^(0+128),f
  4678  1322  3EFF               	addlw	-1
  4679  1323  1D03               	skipz
  4680  1324  2B1D               	goto	u1925
  4681  1325  3001               	movlw	1
  4682  1326  00C1               	movwf	??___fltol^(0+128)
  4683  1327  0841               	movf	??___fltol^(0+128),w
  4684  1328  07C7               	addwf	___fltol@exp1^(0+128),f
  4685  1329  1D03               	btfss	3,2
  4686  132A  2B2C               	goto	u1931
  4687  132B  2B2D               	goto	u1930
  4688  132C                     u1931:	
  4689  132C  2B1C               	goto	l1807
  4690  132D                     u1930:	
  4691  132D  2B45               	goto	l1817
  4692  132E                     l1809:	
  4693  132E  3020               	movlw	32
  4694  132F  0247               	subwf	___fltol@exp1^(0+128),w
  4695  1330  1C03               	skipc
  4696  1331  2B33               	goto	u1941
  4697  1332  2B34               	goto	u1940
  4698  1333                     u1941:	
  4699  1333  2B40               	goto	l502
  4700  1334                     u1940:	
  4701  1334  2AE7               	goto	l1787
  4702  1335                     l1815:	
  4703  1335  3001               	movlw	1
  4704  1336  00C1               	movwf	??___fltol^(0+128)
  4705  1337                     u1955:	
  4706  1337  1003               	clrc
  4707  1338  0DBD               	rlf	___fltol@f1^(0+128),f
  4708  1339  0DBE               	rlf	(___fltol@f1+1)^(0+128),f
  4709  133A  0DBF               	rlf	(___fltol@f1+2)^(0+128),f
  4710  133B  0DC0               	rlf	(___fltol@f1+3)^(0+128),f
  4711  133C  0BC1               	decfsz	??___fltol^(0+128),f
  4712  133D  2B37               	goto	u1955
  4713  133E  3001               	movlw	1
  4714  133F  02C7               	subwf	___fltol@exp1^(0+128),f
  4715  1340                     l502:	
  4716  1340  0847               	movf	___fltol@exp1^(0+128),w
  4717  1341  1D03               	btfss	3,2
  4718  1342  2B44               	goto	u1961
  4719  1343  2B45               	goto	u1960
  4720  1344                     u1961:	
  4721  1344  2B35               	goto	l1815
  4722  1345                     u1960:	
  4723  1345                     l1817:	
  4724  1345  0846               	movf	___fltol@sign1^(0+128),w
  4725  1346  1903               	btfsc	3,2
  4726  1347  2B49               	goto	u1971
  4727  1348  2B4A               	goto	u1970
  4728  1349                     u1971:	
  4729  1349  2B55               	goto	l505
  4730  134A                     u1970:	
  4731  134A                     l1819:	
  4732  134A  09BD               	comf	___fltol@f1^(0+128),f
  4733  134B  09BE               	comf	(___fltol@f1+1)^(0+128),f
  4734  134C  09BF               	comf	(___fltol@f1+2)^(0+128),f
  4735  134D  09C0               	comf	(___fltol@f1+3)^(0+128),f
  4736  134E  0ABD               	incf	___fltol@f1^(0+128),f
  4737  134F  1903               	skipnz
  4738  1350  0ABE               	incf	(___fltol@f1+1)^(0+128),f
  4739  1351  1903               	skipnz
  4740  1352  0ABF               	incf	(___fltol@f1+2)^(0+128),f
  4741  1353  1903               	skipnz
  4742  1354  0AC0               	incf	(___fltol@f1+3)^(0+128),f
  4743  1355                     l505:	
  4744  1355                     l495:	
  4745  1355  0008               	return
  4746  1356                     __end_of___fltol:	
  4747                           
  4748                           	psect	text12
  4749  0040                     __ptext12:	
  4750 ;; *************** function ___flmul *****************
  4751 ;; Defined at:
  4752 ;;		line 8 in file "D:\Program Files (x86)\Microchip\xc8\v2.10\pic\sources\c90\common\sprcmul.c"
  4753 ;; Parameters:    Size  Location     Type
  4754 ;;  b               4   40[BANK0 ] long 
  4755 ;;  a               4   44[BANK0 ] long 
  4756 ;; Auto vars:     Size  Location     Type
  4757 ;;  prod            4    7[BANK1 ] struct .
  4758 ;;  grs             4    2[BANK1 ] unsigned long 
  4759 ;;  temp            2   11[BANK1 ] struct .
  4760 ;;  bexp            1    6[BANK1 ] unsigned char 
  4761 ;;  aexp            1    1[BANK1 ] unsigned char 
  4762 ;;  sign            1    0[BANK1 ] unsigned char 
  4763 ;; Return value:  Size  Location     Type
  4764 ;;                  4   40[BANK0 ] unsigned char 
  4765 ;; Registers used:
  4766 ;;		wreg, status,2, status,0, btemp+1, pclath, cstack
  4767 ;; Tracked objects:
  4768 ;;		On entry : 0/0
  4769 ;;		On exit  : 0/0
  4770 ;;		Unchanged: 0/0
  4771 ;; Data sizes:     COMMON   BANK0   BANK1   BANK3   BANK2
  4772 ;;      Params:         0       8       0       0       0
  4773 ;;      Locals:         0       0      13       0       0
  4774 ;;      Temps:          0       5       0       0       0
  4775 ;;      Totals:         0      13      13       0       0
  4776 ;;Total ram usage:       26 bytes
  4777 ;; Hardware stack levels used:    1
  4778 ;; Hardware stack levels required when called:    3
  4779 ;; This function calls:
  4780 ;;		__Umul8_16
  4781 ;; This function is called by:
  4782 ;;		_tarar
  4783 ;;		_main
  4784 ;;		_weight
  4785 ;; This function uses a non-reentrant model
  4786 ;;
  4787                           
  4788                           
  4789                           ;psect for function ___flmul
  4790  0040                     ___flmul:	
  4791  0040                     l2763:	
  4792                           ;incstack = 0
  4793                           ; Regs used in ___flmul: [wreg+status,2+status,0+btemp+1+pclath+cstack]
  4794                           
  4795  0040  1283               	bcf	3,5	;RP0=0, select bank0
  4796  0041  1303               	bcf	3,6	;RP1=0, select bank0
  4797  0042  084B               	movf	___flmul@b+3,w
  4798  0043  3980               	andlw	128
  4799  0044  00D0               	movwf	??___flmul
  4800  0045  0850               	movf	??___flmul,w
  4801  0046  1683               	bsf	3,5	;RP0=1, select bank1
  4802  0047  1303               	bcf	3,6	;RP1=0, select bank1
  4803  0048  00A0               	movwf	___flmul@sign^(0+128)
  4804  0049                     l2765:	
  4805  0049  1283               	bcf	3,5	;RP0=0, select bank0
  4806  004A  1303               	bcf	3,6	;RP1=0, select bank0
  4807  004B  084B               	movf	___flmul@b+3,w
  4808  004C  00D0               	movwf	??___flmul
  4809  004D  0750               	addwf	??___flmul,w
  4810  004E  00D1               	movwf	??___flmul+1
  4811  004F  0851               	movf	??___flmul+1,w
  4812  0050  1683               	bsf	3,5	;RP0=1, select bank1
  4813  0051  1303               	bcf	3,6	;RP1=0, select bank1
  4814  0052  00A6               	movwf	___flmul@bexp^(0+128)
  4815  0053                     l2767:	
  4816  0053  1283               	bcf	3,5	;RP0=0, select bank0
  4817  0054  1303               	bcf	3,6	;RP1=0, select bank0
  4818  0055  1FCA               	btfss	___flmul@b+2,7
  4819  0056  2858               	goto	u4031
  4820  0057  2859               	goto	u4030
  4821  0058                     u4031:	
  4822  0058  285C               	goto	l2771
  4823  0059                     u4030:	
  4824  0059                     l2769:	
  4825  0059  1683               	bsf	3,5	;RP0=1, select bank1
  4826  005A  1303               	bcf	3,6	;RP1=0, select bank1
  4827  005B  1426               	bsf	___flmul@bexp^(0+128),0
  4828  005C                     l2771:	
  4829  005C  1683               	bsf	3,5	;RP0=1, select bank1
  4830  005D  1303               	bcf	3,6	;RP1=0, select bank1
  4831  005E  0826               	movf	___flmul@bexp^(0+128),w
  4832  005F  1903               	btfsc	3,2
  4833  0060  2862               	goto	u4041
  4834  0061  2863               	goto	u4040
  4835  0062                     u4041:	
  4836  0062  2875               	goto	l2779
  4837  0063                     u4040:	
  4838  0063                     l2773:	
  4839  0063  0A26               	incf	___flmul@bexp^(0+128),w
  4840  0064  1D03               	btfss	3,2
  4841  0065  2867               	goto	u4051
  4842  0066  2868               	goto	u4050
  4843  0067                     u4051:	
  4844  0067  2872               	goto	l2777
  4845  0068                     u4050:	
  4846  0068                     l2775:	
  4847  0068  3000               	movlw	0
  4848  0069  1283               	bcf	3,5	;RP0=0, select bank0
  4849  006A  1303               	bcf	3,6	;RP1=0, select bank0
  4850  006B  00CB               	movwf	___flmul@b+3
  4851  006C  3000               	movlw	0
  4852  006D  00CA               	movwf	___flmul@b+2
  4853  006E  3000               	movlw	0
  4854  006F  00C9               	movwf	___flmul@b+1
  4855  0070  3000               	movlw	0
  4856  0071  00C8               	movwf	___flmul@b
  4857  0072                     l2777:	
  4858  0072  1283               	bcf	3,5	;RP0=0, select bank0
  4859  0073  17CA               	bsf	___flmul@b+2,7
  4860  0074  287F               	goto	l2781
  4861  0075                     l2779:	
  4862  0075  3000               	movlw	0
  4863  0076  1283               	bcf	3,5	;RP0=0, select bank0
  4864  0077  1303               	bcf	3,6	;RP1=0, select bank0
  4865  0078  00CB               	movwf	___flmul@b+3
  4866  0079  3000               	movlw	0
  4867  007A  00CA               	movwf	___flmul@b+2
  4868  007B  3000               	movlw	0
  4869  007C  00C9               	movwf	___flmul@b+1
  4870  007D  3000               	movlw	0
  4871  007E  00C8               	movwf	___flmul@b
  4872  007F                     l2781:	
  4873  007F  084F               	movf	___flmul@a+3,w
  4874  0080  3980               	andlw	128
  4875  0081  00D0               	movwf	??___flmul
  4876  0082  0850               	movf	??___flmul,w
  4877  0083  1683               	bsf	3,5	;RP0=1, select bank1
  4878  0084  1303               	bcf	3,6	;RP1=0, select bank1
  4879  0085  06A0               	xorwf	___flmul@sign^(0+128),f
  4880  0086                     l2783:	
  4881  0086  1283               	bcf	3,5	;RP0=0, select bank0
  4882  0087  1303               	bcf	3,6	;RP1=0, select bank0
  4883  0088  084F               	movf	___flmul@a+3,w
  4884  0089  00D0               	movwf	??___flmul
  4885  008A  0750               	addwf	??___flmul,w
  4886  008B  00D1               	movwf	??___flmul+1
  4887  008C  0851               	movf	??___flmul+1,w
  4888  008D  1683               	bsf	3,5	;RP0=1, select bank1
  4889  008E  1303               	bcf	3,6	;RP1=0, select bank1
  4890  008F  00A1               	movwf	___flmul@aexp^(0+128)
  4891  0090                     l2785:	
  4892  0090  1283               	bcf	3,5	;RP0=0, select bank0
  4893  0091  1303               	bcf	3,6	;RP1=0, select bank0
  4894  0092  1FCE               	btfss	___flmul@a+2,7
  4895  0093  2895               	goto	u4061
  4896  0094  2896               	goto	u4060
  4897  0095                     u4061:	
  4898  0095  2899               	goto	l2789
  4899  0096                     u4060:	
  4900  0096                     l2787:	
  4901  0096  1683               	bsf	3,5	;RP0=1, select bank1
  4902  0097  1303               	bcf	3,6	;RP1=0, select bank1
  4903  0098  1421               	bsf	___flmul@aexp^(0+128),0
  4904  0099                     l2789:	
  4905  0099  1683               	bsf	3,5	;RP0=1, select bank1
  4906  009A  1303               	bcf	3,6	;RP1=0, select bank1
  4907  009B  0821               	movf	___flmul@aexp^(0+128),w
  4908  009C  1903               	btfsc	3,2
  4909  009D  289F               	goto	u4071
  4910  009E  28A0               	goto	u4070
  4911  009F                     u4071:	
  4912  009F  28B2               	goto	l2797
  4913  00A0                     u4070:	
  4914  00A0                     l2791:	
  4915  00A0  0A21               	incf	___flmul@aexp^(0+128),w
  4916  00A1  1D03               	btfss	3,2
  4917  00A2  28A4               	goto	u4081
  4918  00A3  28A5               	goto	u4080
  4919  00A4                     u4081:	
  4920  00A4  28AF               	goto	l2795
  4921  00A5                     u4080:	
  4922  00A5                     l2793:	
  4923  00A5  3000               	movlw	0
  4924  00A6  1283               	bcf	3,5	;RP0=0, select bank0
  4925  00A7  1303               	bcf	3,6	;RP1=0, select bank0
  4926  00A8  00CF               	movwf	___flmul@a+3
  4927  00A9  3000               	movlw	0
  4928  00AA  00CE               	movwf	___flmul@a+2
  4929  00AB  3000               	movlw	0
  4930  00AC  00CD               	movwf	___flmul@a+1
  4931  00AD  3000               	movlw	0
  4932  00AE  00CC               	movwf	___flmul@a
  4933  00AF                     l2795:	
  4934  00AF  1283               	bcf	3,5	;RP0=0, select bank0
  4935  00B0  17CE               	bsf	___flmul@a+2,7
  4936  00B1  28BC               	goto	l2799
  4937  00B2                     l2797:	
  4938  00B2  3000               	movlw	0
  4939  00B3  1283               	bcf	3,5	;RP0=0, select bank0
  4940  00B4  1303               	bcf	3,6	;RP1=0, select bank0
  4941  00B5  00CF               	movwf	___flmul@a+3
  4942  00B6  3000               	movlw	0
  4943  00B7  00CE               	movwf	___flmul@a+2
  4944  00B8  3000               	movlw	0
  4945  00B9  00CD               	movwf	___flmul@a+1
  4946  00BA  3000               	movlw	0
  4947  00BB  00CC               	movwf	___flmul@a
  4948  00BC                     l2799:	
  4949  00BC  1683               	bsf	3,5	;RP0=1, select bank1
  4950  00BD  1303               	bcf	3,6	;RP1=0, select bank1
  4951  00BE  0821               	movf	___flmul@aexp^(0+128),w
  4952  00BF  1903               	btfsc	3,2
  4953  00C0  28C2               	goto	u4091
  4954  00C1  28C3               	goto	u4090
  4955  00C2                     u4091:	
  4956  00C2  28C8               	goto	l2803
  4957  00C3                     u4090:	
  4958  00C3                     l2801:	
  4959  00C3  0826               	movf	___flmul@bexp^(0+128),w
  4960  00C4  1D03               	btfss	3,2
  4961  00C5  28C7               	goto	u4101
  4962  00C6  28C8               	goto	u4100
  4963  00C7                     u4101:	
  4964  00C7  28D3               	goto	l2807
  4965  00C8                     u4100:	
  4966  00C8                     l2803:	
  4967  00C8  3000               	movlw	0
  4968  00C9  1283               	bcf	3,5	;RP0=0, select bank0
  4969  00CA  1303               	bcf	3,6	;RP1=0, select bank0
  4970  00CB  00CB               	movwf	?___flmul+3
  4971  00CC  3000               	movlw	0
  4972  00CD  00CA               	movwf	?___flmul+2
  4973  00CE  3000               	movlw	0
  4974  00CF  00C9               	movwf	?___flmul+1
  4975  00D0  3000               	movlw	0
  4976  00D1  00C8               	movwf	?___flmul
  4977  00D2  2D9E               	goto	l698
  4978  00D3                     l2807:	
  4979  00D3  1283               	bcf	3,5	;RP0=0, select bank0
  4980  00D4  1303               	bcf	3,6	;RP1=0, select bank0
  4981  00D5  0848               	movf	___flmul@b,w
  4982  00D6  00D0               	movwf	??___flmul
  4983  00D7  0850               	movf	??___flmul,w
  4984  00D8  00A9               	movwf	__Umul8_16@multiplicand
  4985  00D9  084E               	movf	___flmul@a+2,w
  4986  00DA  160A  118A  2252  120A  118A  	fcall	__Umul8_16
  4987  00DF  1283               	bcf	3,5	;RP0=0, select bank0
  4988  00E0  1303               	bcf	3,6	;RP1=0, select bank0
  4989  00E1  082A               	movf	?__Umul8_16+1,w
  4990  00E2  1683               	bsf	3,5	;RP0=1, select bank1
  4991  00E3  1303               	bcf	3,6	;RP1=0, select bank1
  4992  00E4  00AC               	movwf	(___flmul@temp+1)^(0+128)
  4993  00E5  1283               	bcf	3,5	;RP0=0, select bank0
  4994  00E6  1303               	bcf	3,6	;RP1=0, select bank0
  4995  00E7  0829               	movf	?__Umul8_16,w
  4996  00E8  1683               	bsf	3,5	;RP0=1, select bank1
  4997  00E9  1303               	bcf	3,6	;RP1=0, select bank1
  4998  00EA  00AB               	movwf	___flmul@temp^(0+128)
  4999  00EB                     l2809:	
  5000  00EB  082B               	movf	___flmul@temp^(0+128),w
  5001  00EC  1283               	bcf	3,5	;RP0=0, select bank0
  5002  00ED  1303               	bcf	3,6	;RP1=0, select bank0
  5003  00EE  00D0               	movwf	??___flmul
  5004  00EF  01D1               	clrf	??___flmul+1
  5005  00F0  01D2               	clrf	??___flmul+2
  5006  00F1  01D3               	clrf	??___flmul+3
  5007  00F2  0853               	movf	??___flmul+3,w
  5008  00F3  1683               	bsf	3,5	;RP0=1, select bank1
  5009  00F4  1303               	bcf	3,6	;RP1=0, select bank1
  5010  00F5  00A5               	movwf	(___flmul@grs+3)^(0+128)
  5011  00F6  1283               	bcf	3,5	;RP0=0, select bank0
  5012  00F7  1303               	bcf	3,6	;RP1=0, select bank0
  5013  00F8  0852               	movf	??___flmul+2,w
  5014  00F9  1683               	bsf	3,5	;RP0=1, select bank1
  5015  00FA  1303               	bcf	3,6	;RP1=0, select bank1
  5016  00FB  00A4               	movwf	(___flmul@grs+2)^(0+128)
  5017  00FC  1283               	bcf	3,5	;RP0=0, select bank0
  5018  00FD  1303               	bcf	3,6	;RP1=0, select bank0
  5019  00FE  0851               	movf	??___flmul+1,w
  5020  00FF  1683               	bsf	3,5	;RP0=1, select bank1
  5021  0100  1303               	bcf	3,6	;RP1=0, select bank1
  5022  0101  00A3               	movwf	(___flmul@grs+1)^(0+128)
  5023  0102  1283               	bcf	3,5	;RP0=0, select bank0
  5024  0103  1303               	bcf	3,6	;RP1=0, select bank0
  5025  0104  0850               	movf	??___flmul,w
  5026  0105  1683               	bsf	3,5	;RP0=1, select bank1
  5027  0106  1303               	bcf	3,6	;RP1=0, select bank1
  5028  0107  00A2               	movwf	___flmul@grs^(0+128)
  5029  0108                     l2811:	
  5030  0108  082C               	movf	(___flmul@temp^(0+128)+1),w
  5031  0109  1283               	bcf	3,5	;RP0=0, select bank0
  5032  010A  1303               	bcf	3,6	;RP1=0, select bank0
  5033  010B  00D0               	movwf	??___flmul
  5034  010C  01D1               	clrf	??___flmul+1
  5035  010D  01D2               	clrf	??___flmul+2
  5036  010E  01D3               	clrf	??___flmul+3
  5037  010F  0853               	movf	??___flmul+3,w
  5038  0110  1683               	bsf	3,5	;RP0=1, select bank1
  5039  0111  1303               	bcf	3,6	;RP1=0, select bank1
  5040  0112  00AA               	movwf	(___flmul@prod+3)^(0+128)
  5041  0113  1283               	bcf	3,5	;RP0=0, select bank0
  5042  0114  1303               	bcf	3,6	;RP1=0, select bank0
  5043  0115  0852               	movf	??___flmul+2,w
  5044  0116  1683               	bsf	3,5	;RP0=1, select bank1
  5045  0117  1303               	bcf	3,6	;RP1=0, select bank1
  5046  0118  00A9               	movwf	(___flmul@prod+2)^(0+128)
  5047  0119  1283               	bcf	3,5	;RP0=0, select bank0
  5048  011A  1303               	bcf	3,6	;RP1=0, select bank0
  5049  011B  0851               	movf	??___flmul+1,w
  5050  011C  1683               	bsf	3,5	;RP0=1, select bank1
  5051  011D  1303               	bcf	3,6	;RP1=0, select bank1
  5052  011E  00A8               	movwf	(___flmul@prod+1)^(0+128)
  5053  011F  1283               	bcf	3,5	;RP0=0, select bank0
  5054  0120  1303               	bcf	3,6	;RP1=0, select bank0
  5055  0121  0850               	movf	??___flmul,w
  5056  0122  1683               	bsf	3,5	;RP0=1, select bank1
  5057  0123  1303               	bcf	3,6	;RP1=0, select bank1
  5058  0124  00A7               	movwf	___flmul@prod^(0+128)
  5059  0125  1283               	bcf	3,5	;RP0=0, select bank0
  5060  0126  1303               	bcf	3,6	;RP1=0, select bank0
  5061  0127  0849               	movf	___flmul@b+1,w
  5062  0128  00D0               	movwf	??___flmul
  5063  0129  0850               	movf	??___flmul,w
  5064  012A  00A9               	movwf	__Umul8_16@multiplicand
  5065  012B  084D               	movf	___flmul@a+1,w
  5066  012C  160A  118A  2252  120A  118A  	fcall	__Umul8_16
  5067  0131  1283               	bcf	3,5	;RP0=0, select bank0
  5068  0132  1303               	bcf	3,6	;RP1=0, select bank0
  5069  0133  082A               	movf	?__Umul8_16+1,w
  5070  0134  1683               	bsf	3,5	;RP0=1, select bank1
  5071  0135  1303               	bcf	3,6	;RP1=0, select bank1
  5072  0136  00AC               	movwf	(___flmul@temp+1)^(0+128)
  5073  0137  1283               	bcf	3,5	;RP0=0, select bank0
  5074  0138  1303               	bcf	3,6	;RP1=0, select bank0
  5075  0139  0829               	movf	?__Umul8_16,w
  5076  013A  1683               	bsf	3,5	;RP0=1, select bank1
  5077  013B  1303               	bcf	3,6	;RP1=0, select bank1
  5078  013C  00AB               	movwf	___flmul@temp^(0+128)
  5079  013D                     l2813:	
  5080  013D  082B               	movf	___flmul@temp^(0+128),w
  5081  013E  1283               	bcf	3,5	;RP0=0, select bank0
  5082  013F  1303               	bcf	3,6	;RP1=0, select bank0
  5083  0140  00D0               	movwf	??___flmul
  5084  0141  01D1               	clrf	??___flmul+1
  5085  0142  01D2               	clrf	??___flmul+2
  5086  0143  01D3               	clrf	??___flmul+3
  5087  0144  0850               	movf	??___flmul,w
  5088  0145  1683               	bsf	3,5	;RP0=1, select bank1
  5089  0146  1303               	bcf	3,6	;RP1=0, select bank1
  5090  0147  07A2               	addwf	___flmul@grs^(0+128),f
  5091  0148  1283               	bcf	3,5	;RP0=0, select bank0
  5092  0149  1303               	bcf	3,6	;RP1=0, select bank0
  5093  014A  0851               	movf	??___flmul+1,w
  5094  014B  1103               	clrz
  5095  014C  1803               	skipnc
  5096  014D  3E01               	addlw	1
  5097  014E  1903               	skipnz
  5098  014F  2953               	goto	u4111
  5099  0150  1683               	bsf	3,5	;RP0=1, select bank1
  5100  0151  1303               	bcf	3,6	;RP1=0, select bank1
  5101  0152  07A3               	addwf	(___flmul@grs+1)^(0+128),f
  5102  0153                     u4111:	
  5103  0153  1283               	bcf	3,5	;RP0=0, select bank0
  5104  0154  1303               	bcf	3,6	;RP1=0, select bank0
  5105  0155  0852               	movf	??___flmul+2,w
  5106  0156  1103               	clrz
  5107  0157  1803               	skipnc
  5108  0158  3E01               	addlw	1
  5109  0159  1903               	skipnz
  5110  015A  295E               	goto	u4112
  5111  015B  1683               	bsf	3,5	;RP0=1, select bank1
  5112  015C  1303               	bcf	3,6	;RP1=0, select bank1
  5113  015D  07A4               	addwf	(___flmul@grs+2)^(0+128),f
  5114  015E                     u4112:	
  5115  015E  1283               	bcf	3,5	;RP0=0, select bank0
  5116  015F  1303               	bcf	3,6	;RP1=0, select bank0
  5117  0160  0853               	movf	??___flmul+3,w
  5118  0161  1103               	clrz
  5119  0162  1803               	skipnc
  5120  0163  3E01               	addlw	1
  5121  0164  1903               	skipnz
  5122  0165  2969               	goto	u4113
  5123  0166  1683               	bsf	3,5	;RP0=1, select bank1
  5124  0167  1303               	bcf	3,6	;RP1=0, select bank1
  5125  0168  07A5               	addwf	(___flmul@grs+3)^(0+128),f
  5126  0169                     u4113:	
  5127  0169  1283               	bcf	3,5	;RP0=0, select bank0
  5128  016A  1303               	bcf	3,6	;RP1=0, select bank0
  5129  016B  1683               	bsf	3,5	;RP0=1, select bank1
  5130  016C  1303               	bcf	3,6	;RP1=0, select bank1
  5131  016D                     l2815:	
  5132  016D  082C               	movf	(___flmul@temp^(0+128)+1),w
  5133  016E  1283               	bcf	3,5	;RP0=0, select bank0
  5134  016F  1303               	bcf	3,6	;RP1=0, select bank0
  5135  0170  00D0               	movwf	??___flmul
  5136  0171  01D1               	clrf	??___flmul+1
  5137  0172  01D2               	clrf	??___flmul+2
  5138  0173  01D3               	clrf	??___flmul+3
  5139  0174  0850               	movf	??___flmul,w
  5140  0175  1683               	bsf	3,5	;RP0=1, select bank1
  5141  0176  1303               	bcf	3,6	;RP1=0, select bank1
  5142  0177  07A7               	addwf	___flmul@prod^(0+128),f
  5143  0178  1283               	bcf	3,5	;RP0=0, select bank0
  5144  0179  1303               	bcf	3,6	;RP1=0, select bank0
  5145  017A  0851               	movf	??___flmul+1,w
  5146  017B  1103               	clrz
  5147  017C  1803               	skipnc
  5148  017D  3E01               	addlw	1
  5149  017E  1903               	skipnz
  5150  017F  2983               	goto	u4121
  5151  0180  1683               	bsf	3,5	;RP0=1, select bank1
  5152  0181  1303               	bcf	3,6	;RP1=0, select bank1
  5153  0182  07A8               	addwf	(___flmul@prod+1)^(0+128),f
  5154  0183                     u4121:	
  5155  0183  1283               	bcf	3,5	;RP0=0, select bank0
  5156  0184  1303               	bcf	3,6	;RP1=0, select bank0
  5157  0185  0852               	movf	??___flmul+2,w
  5158  0186  1103               	clrz
  5159  0187  1803               	skipnc
  5160  0188  3E01               	addlw	1
  5161  0189  1903               	skipnz
  5162  018A  298E               	goto	u4122
  5163  018B  1683               	bsf	3,5	;RP0=1, select bank1
  5164  018C  1303               	bcf	3,6	;RP1=0, select bank1
  5165  018D  07A9               	addwf	(___flmul@prod+2)^(0+128),f
  5166  018E                     u4122:	
  5167  018E  1283               	bcf	3,5	;RP0=0, select bank0
  5168  018F  1303               	bcf	3,6	;RP1=0, select bank0
  5169  0190  0853               	movf	??___flmul+3,w
  5170  0191  1103               	clrz
  5171  0192  1803               	skipnc
  5172  0193  3E01               	addlw	1
  5173  0194  1903               	skipnz
  5174  0195  2999               	goto	u4123
  5175  0196  1683               	bsf	3,5	;RP0=1, select bank1
  5176  0197  1303               	bcf	3,6	;RP1=0, select bank1
  5177  0198  07AA               	addwf	(___flmul@prod+3)^(0+128),f
  5178  0199                     u4123:	
  5179  0199  1283               	bcf	3,5	;RP0=0, select bank0
  5180  019A  1303               	bcf	3,6	;RP1=0, select bank0
  5181  019B  1683               	bsf	3,5	;RP0=1, select bank1
  5182  019C  1303               	bcf	3,6	;RP1=0, select bank1
  5183  019D  1283               	bcf	3,5	;RP0=0, select bank0
  5184  019E  1303               	bcf	3,6	;RP1=0, select bank0
  5185  019F  084A               	movf	___flmul@b+2,w
  5186  01A0  00D0               	movwf	??___flmul
  5187  01A1  0850               	movf	??___flmul,w
  5188  01A2  00A9               	movwf	__Umul8_16@multiplicand
  5189  01A3  084C               	movf	___flmul@a,w
  5190  01A4  160A  118A  2252  120A  118A  	fcall	__Umul8_16
  5191  01A9  1283               	bcf	3,5	;RP0=0, select bank0
  5192  01AA  1303               	bcf	3,6	;RP1=0, select bank0
  5193  01AB  082A               	movf	?__Umul8_16+1,w
  5194  01AC  1683               	bsf	3,5	;RP0=1, select bank1
  5195  01AD  1303               	bcf	3,6	;RP1=0, select bank1
  5196  01AE  00AC               	movwf	(___flmul@temp+1)^(0+128)
  5197  01AF  1283               	bcf	3,5	;RP0=0, select bank0
  5198  01B0  1303               	bcf	3,6	;RP1=0, select bank0
  5199  01B1  0829               	movf	?__Umul8_16,w
  5200  01B2  1683               	bsf	3,5	;RP0=1, select bank1
  5201  01B3  1303               	bcf	3,6	;RP1=0, select bank1
  5202  01B4  00AB               	movwf	___flmul@temp^(0+128)
  5203  01B5                     l2817:	
  5204  01B5  082B               	movf	___flmul@temp^(0+128),w
  5205  01B6  1283               	bcf	3,5	;RP0=0, select bank0
  5206  01B7  1303               	bcf	3,6	;RP1=0, select bank0
  5207  01B8  00D0               	movwf	??___flmul
  5208  01B9  01D1               	clrf	??___flmul+1
  5209  01BA  01D2               	clrf	??___flmul+2
  5210  01BB  01D3               	clrf	??___flmul+3
  5211  01BC  0850               	movf	??___flmul,w
  5212  01BD  1683               	bsf	3,5	;RP0=1, select bank1
  5213  01BE  1303               	bcf	3,6	;RP1=0, select bank1
  5214  01BF  07A2               	addwf	___flmul@grs^(0+128),f
  5215  01C0  1283               	bcf	3,5	;RP0=0, select bank0
  5216  01C1  1303               	bcf	3,6	;RP1=0, select bank0
  5217  01C2  0851               	movf	??___flmul+1,w
  5218  01C3  1103               	clrz
  5219  01C4  1803               	skipnc
  5220  01C5  3E01               	addlw	1
  5221  01C6  1903               	skipnz
  5222  01C7  29CB               	goto	u4131
  5223  01C8  1683               	bsf	3,5	;RP0=1, select bank1
  5224  01C9  1303               	bcf	3,6	;RP1=0, select bank1
  5225  01CA  07A3               	addwf	(___flmul@grs+1)^(0+128),f
  5226  01CB                     u4131:	
  5227  01CB  1283               	bcf	3,5	;RP0=0, select bank0
  5228  01CC  1303               	bcf	3,6	;RP1=0, select bank0
  5229  01CD  0852               	movf	??___flmul+2,w
  5230  01CE  1103               	clrz
  5231  01CF  1803               	skipnc
  5232  01D0  3E01               	addlw	1
  5233  01D1  1903               	skipnz
  5234  01D2  29D6               	goto	u4132
  5235  01D3  1683               	bsf	3,5	;RP0=1, select bank1
  5236  01D4  1303               	bcf	3,6	;RP1=0, select bank1
  5237  01D5  07A4               	addwf	(___flmul@grs+2)^(0+128),f
  5238  01D6                     u4132:	
  5239  01D6  1283               	bcf	3,5	;RP0=0, select bank0
  5240  01D7  1303               	bcf	3,6	;RP1=0, select bank0
  5241  01D8  0853               	movf	??___flmul+3,w
  5242  01D9  1103               	clrz
  5243  01DA  1803               	skipnc
  5244  01DB  3E01               	addlw	1
  5245  01DC  1903               	skipnz
  5246  01DD  29E1               	goto	u4133
  5247  01DE  1683               	bsf	3,5	;RP0=1, select bank1
  5248  01DF  1303               	bcf	3,6	;RP1=0, select bank1
  5249  01E0  07A5               	addwf	(___flmul@grs+3)^(0+128),f
  5250  01E1                     u4133:	
  5251  01E1  1283               	bcf	3,5	;RP0=0, select bank0
  5252  01E2  1303               	bcf	3,6	;RP1=0, select bank0
  5253  01E3  1683               	bsf	3,5	;RP0=1, select bank1
  5254  01E4  1303               	bcf	3,6	;RP1=0, select bank1
  5255  01E5                     l2819:	
  5256  01E5  082C               	movf	(___flmul@temp^(0+128)+1),w
  5257  01E6  1283               	bcf	3,5	;RP0=0, select bank0
  5258  01E7  1303               	bcf	3,6	;RP1=0, select bank0
  5259  01E8  00D0               	movwf	??___flmul
  5260  01E9  01D1               	clrf	??___flmul+1
  5261  01EA  01D2               	clrf	??___flmul+2
  5262  01EB  01D3               	clrf	??___flmul+3
  5263  01EC  0850               	movf	??___flmul,w
  5264  01ED  1683               	bsf	3,5	;RP0=1, select bank1
  5265  01EE  1303               	bcf	3,6	;RP1=0, select bank1
  5266  01EF  07A7               	addwf	___flmul@prod^(0+128),f
  5267  01F0  1283               	bcf	3,5	;RP0=0, select bank0
  5268  01F1  1303               	bcf	3,6	;RP1=0, select bank0
  5269  01F2  0851               	movf	??___flmul+1,w
  5270  01F3  1103               	clrz
  5271  01F4  1803               	skipnc
  5272  01F5  3E01               	addlw	1
  5273  01F6  1903               	skipnz
  5274  01F7  29FB               	goto	u4141
  5275  01F8  1683               	bsf	3,5	;RP0=1, select bank1
  5276  01F9  1303               	bcf	3,6	;RP1=0, select bank1
  5277  01FA  07A8               	addwf	(___flmul@prod+1)^(0+128),f
  5278  01FB                     u4141:	
  5279  01FB  1283               	bcf	3,5	;RP0=0, select bank0
  5280  01FC  1303               	bcf	3,6	;RP1=0, select bank0
  5281  01FD  0852               	movf	??___flmul+2,w
  5282  01FE  1103               	clrz
  5283  01FF  1803               	skipnc
  5284  0200  3E01               	addlw	1
  5285  0201  1903               	skipnz
  5286  0202  2A06               	goto	u4142
  5287  0203  1683               	bsf	3,5	;RP0=1, select bank1
  5288  0204  1303               	bcf	3,6	;RP1=0, select bank1
  5289  0205  07A9               	addwf	(___flmul@prod+2)^(0+128),f
  5290  0206                     u4142:	
  5291  0206  1283               	bcf	3,5	;RP0=0, select bank0
  5292  0207  1303               	bcf	3,6	;RP1=0, select bank0
  5293  0208  0853               	movf	??___flmul+3,w
  5294  0209  1103               	clrz
  5295  020A  1803               	skipnc
  5296  020B  3E01               	addlw	1
  5297  020C  1903               	skipnz
  5298  020D  2A11               	goto	u4143
  5299  020E  1683               	bsf	3,5	;RP0=1, select bank1
  5300  020F  1303               	bcf	3,6	;RP1=0, select bank1
  5301  0210  07AA               	addwf	(___flmul@prod+3)^(0+128),f
  5302  0211                     u4143:	
  5303  0211  1283               	bcf	3,5	;RP0=0, select bank0
  5304  0212  1303               	bcf	3,6	;RP1=0, select bank0
  5305  0213  1683               	bsf	3,5	;RP0=1, select bank1
  5306  0214  1303               	bcf	3,6	;RP1=0, select bank1
  5307  0215                     l2821:	
  5308  0215  3008               	movlw	8
  5309  0216  1283               	bcf	3,5	;RP0=0, select bank0
  5310  0217  1303               	bcf	3,6	;RP1=0, select bank0
  5311  0218  00D0               	movwf	??___flmul
  5312  0219                     u4155:	
  5313  0219  1003               	clrc
  5314  021A  1683               	bsf	3,5	;RP0=1, select bank1
  5315  021B  1303               	bcf	3,6	;RP1=0, select bank1
  5316  021C  0DA2               	rlf	___flmul@grs^(0+128),f
  5317  021D  0DA3               	rlf	(___flmul@grs+1)^(0+128),f
  5318  021E  0DA4               	rlf	(___flmul@grs+2)^(0+128),f
  5319  021F  0DA5               	rlf	(___flmul@grs+3)^(0+128),f
  5320  0220  1283               	bcf	3,5	;RP0=0, select bank0
  5321  0221  1303               	bcf	3,6	;RP1=0, select bank0
  5322  0222  0BD0               	decfsz	??___flmul,f
  5323  0223  2A19               	goto	u4155
  5324  0224                     l2823:	
  5325  0224  0849               	movf	___flmul@b+1,w
  5326  0225  00D0               	movwf	??___flmul
  5327  0226  0850               	movf	??___flmul,w
  5328  0227  00A9               	movwf	__Umul8_16@multiplicand
  5329  0228  084C               	movf	___flmul@a,w
  5330  0229  160A  118A  2252  120A  118A  	fcall	__Umul8_16
  5331  022E  1283               	bcf	3,5	;RP0=0, select bank0
  5332  022F  1303               	bcf	3,6	;RP1=0, select bank0
  5333  0230  082A               	movf	?__Umul8_16+1,w
  5334  0231  1683               	bsf	3,5	;RP0=1, select bank1
  5335  0232  1303               	bcf	3,6	;RP1=0, select bank1
  5336  0233  00AC               	movwf	(___flmul@temp+1)^(0+128)
  5337  0234  1283               	bcf	3,5	;RP0=0, select bank0
  5338  0235  1303               	bcf	3,6	;RP1=0, select bank0
  5339  0236  0829               	movf	?__Umul8_16,w
  5340  0237  1683               	bsf	3,5	;RP0=1, select bank1
  5341  0238  1303               	bcf	3,6	;RP1=0, select bank1
  5342  0239  00AB               	movwf	___flmul@temp^(0+128)
  5343  023A                     l2825:	
  5344  023A  082B               	movf	___flmul@temp^(0+128),w
  5345  023B  1283               	bcf	3,5	;RP0=0, select bank0
  5346  023C  1303               	bcf	3,6	;RP1=0, select bank0
  5347  023D  00D0               	movwf	??___flmul
  5348  023E  1683               	bsf	3,5	;RP0=1, select bank1
  5349  023F  1303               	bcf	3,6	;RP1=0, select bank1
  5350  0240  082C               	movf	(___flmul@temp+1)^(0+128),w
  5351  0241  1283               	bcf	3,5	;RP0=0, select bank0
  5352  0242  1303               	bcf	3,6	;RP1=0, select bank0
  5353  0243  00D1               	movwf	??___flmul+1
  5354  0244  01D2               	clrf	??___flmul+2
  5355  0245  01D3               	clrf	??___flmul+3
  5356  0246  0850               	movf	??___flmul,w
  5357  0247  1683               	bsf	3,5	;RP0=1, select bank1
  5358  0248  1303               	bcf	3,6	;RP1=0, select bank1
  5359  0249  07A2               	addwf	___flmul@grs^(0+128),f
  5360  024A  1283               	bcf	3,5	;RP0=0, select bank0
  5361  024B  1303               	bcf	3,6	;RP1=0, select bank0
  5362  024C  0851               	movf	??___flmul+1,w
  5363  024D  1103               	clrz
  5364  024E  1803               	skipnc
  5365  024F  3E01               	addlw	1
  5366  0250  1903               	skipnz
  5367  0251  2A55               	goto	u4161
  5368  0252  1683               	bsf	3,5	;RP0=1, select bank1
  5369  0253  1303               	bcf	3,6	;RP1=0, select bank1
  5370  0254  07A3               	addwf	(___flmul@grs+1)^(0+128),f
  5371  0255                     u4161:	
  5372  0255  1283               	bcf	3,5	;RP0=0, select bank0
  5373  0256  1303               	bcf	3,6	;RP1=0, select bank0
  5374  0257  0852               	movf	??___flmul+2,w
  5375  0258  1103               	clrz
  5376  0259  1803               	skipnc
  5377  025A  3E01               	addlw	1
  5378  025B  1903               	skipnz
  5379  025C  2A60               	goto	u4162
  5380  025D  1683               	bsf	3,5	;RP0=1, select bank1
  5381  025E  1303               	bcf	3,6	;RP1=0, select bank1
  5382  025F  07A4               	addwf	(___flmul@grs+2)^(0+128),f
  5383  0260                     u4162:	
  5384  0260  1283               	bcf	3,5	;RP0=0, select bank0
  5385  0261  1303               	bcf	3,6	;RP1=0, select bank0
  5386  0262  0853               	movf	??___flmul+3,w
  5387  0263  1103               	clrz
  5388  0264  1803               	skipnc
  5389  0265  3E01               	addlw	1
  5390  0266  1903               	skipnz
  5391  0267  2A6B               	goto	u4163
  5392  0268  1683               	bsf	3,5	;RP0=1, select bank1
  5393  0269  1303               	bcf	3,6	;RP1=0, select bank1
  5394  026A  07A5               	addwf	(___flmul@grs+3)^(0+128),f
  5395  026B                     u4163:	
  5396  026B  1283               	bcf	3,5	;RP0=0, select bank0
  5397  026C  1303               	bcf	3,6	;RP1=0, select bank0
  5398  026D  1683               	bsf	3,5	;RP0=1, select bank1
  5399  026E  1303               	bcf	3,6	;RP1=0, select bank1
  5400  026F                     l2827:	
  5401  026F  1283               	bcf	3,5	;RP0=0, select bank0
  5402  0270  1303               	bcf	3,6	;RP1=0, select bank0
  5403  0271  0848               	movf	___flmul@b,w
  5404  0272  00D0               	movwf	??___flmul
  5405  0273  0850               	movf	??___flmul,w
  5406  0274  00A9               	movwf	__Umul8_16@multiplicand
  5407  0275  084D               	movf	___flmul@a+1,w
  5408  0276  160A  118A  2252  120A  118A  	fcall	__Umul8_16
  5409  027B  1283               	bcf	3,5	;RP0=0, select bank0
  5410  027C  1303               	bcf	3,6	;RP1=0, select bank0
  5411  027D  082A               	movf	?__Umul8_16+1,w
  5412  027E  1683               	bsf	3,5	;RP0=1, select bank1
  5413  027F  1303               	bcf	3,6	;RP1=0, select bank1
  5414  0280  00AC               	movwf	(___flmul@temp+1)^(0+128)
  5415  0281  1283               	bcf	3,5	;RP0=0, select bank0
  5416  0282  1303               	bcf	3,6	;RP1=0, select bank0
  5417  0283  0829               	movf	?__Umul8_16,w
  5418  0284  1683               	bsf	3,5	;RP0=1, select bank1
  5419  0285  1303               	bcf	3,6	;RP1=0, select bank1
  5420  0286  00AB               	movwf	___flmul@temp^(0+128)
  5421  0287                     l2829:	
  5422  0287  082B               	movf	___flmul@temp^(0+128),w
  5423  0288  1283               	bcf	3,5	;RP0=0, select bank0
  5424  0289  1303               	bcf	3,6	;RP1=0, select bank0
  5425  028A  00D0               	movwf	??___flmul
  5426  028B  1683               	bsf	3,5	;RP0=1, select bank1
  5427  028C  1303               	bcf	3,6	;RP1=0, select bank1
  5428  028D  082C               	movf	(___flmul@temp+1)^(0+128),w
  5429  028E  1283               	bcf	3,5	;RP0=0, select bank0
  5430  028F  1303               	bcf	3,6	;RP1=0, select bank0
  5431  0290  00D1               	movwf	??___flmul+1
  5432  0291  01D2               	clrf	??___flmul+2
  5433  0292  01D3               	clrf	??___flmul+3
  5434  0293  0850               	movf	??___flmul,w
  5435  0294  1683               	bsf	3,5	;RP0=1, select bank1
  5436  0295  1303               	bcf	3,6	;RP1=0, select bank1
  5437  0296  07A2               	addwf	___flmul@grs^(0+128),f
  5438  0297  1283               	bcf	3,5	;RP0=0, select bank0
  5439  0298  1303               	bcf	3,6	;RP1=0, select bank0
  5440  0299  0851               	movf	??___flmul+1,w
  5441  029A  1103               	clrz
  5442  029B  1803               	skipnc
  5443  029C  3E01               	addlw	1
  5444  029D  1903               	skipnz
  5445  029E  2AA2               	goto	u4171
  5446  029F  1683               	bsf	3,5	;RP0=1, select bank1
  5447  02A0  1303               	bcf	3,6	;RP1=0, select bank1
  5448  02A1  07A3               	addwf	(___flmul@grs+1)^(0+128),f
  5449  02A2                     u4171:	
  5450  02A2  1283               	bcf	3,5	;RP0=0, select bank0
  5451  02A3  1303               	bcf	3,6	;RP1=0, select bank0
  5452  02A4  0852               	movf	??___flmul+2,w
  5453  02A5  1103               	clrz
  5454  02A6  1803               	skipnc
  5455  02A7  3E01               	addlw	1
  5456  02A8  1903               	skipnz
  5457  02A9  2AAD               	goto	u4172
  5458  02AA  1683               	bsf	3,5	;RP0=1, select bank1
  5459  02AB  1303               	bcf	3,6	;RP1=0, select bank1
  5460  02AC  07A4               	addwf	(___flmul@grs+2)^(0+128),f
  5461  02AD                     u4172:	
  5462  02AD  1283               	bcf	3,5	;RP0=0, select bank0
  5463  02AE  1303               	bcf	3,6	;RP1=0, select bank0
  5464  02AF  0853               	movf	??___flmul+3,w
  5465  02B0  1103               	clrz
  5466  02B1  1803               	skipnc
  5467  02B2  3E01               	addlw	1
  5468  02B3  1903               	skipnz
  5469  02B4  2AB8               	goto	u4173
  5470  02B5  1683               	bsf	3,5	;RP0=1, select bank1
  5471  02B6  1303               	bcf	3,6	;RP1=0, select bank1
  5472  02B7  07A5               	addwf	(___flmul@grs+3)^(0+128),f
  5473  02B8                     u4173:	
  5474  02B8  1283               	bcf	3,5	;RP0=0, select bank0
  5475  02B9  1303               	bcf	3,6	;RP1=0, select bank0
  5476  02BA  1683               	bsf	3,5	;RP0=1, select bank1
  5477  02BB  1303               	bcf	3,6	;RP1=0, select bank1
  5478  02BC                     l2831:	
  5479  02BC  3008               	movlw	8
  5480  02BD  1283               	bcf	3,5	;RP0=0, select bank0
  5481  02BE  1303               	bcf	3,6	;RP1=0, select bank0
  5482  02BF  00D0               	movwf	??___flmul
  5483  02C0                     u4185:	
  5484  02C0  1003               	clrc
  5485  02C1  1683               	bsf	3,5	;RP0=1, select bank1
  5486  02C2  1303               	bcf	3,6	;RP1=0, select bank1
  5487  02C3  0DA2               	rlf	___flmul@grs^(0+128),f
  5488  02C4  0DA3               	rlf	(___flmul@grs+1)^(0+128),f
  5489  02C5  0DA4               	rlf	(___flmul@grs+2)^(0+128),f
  5490  02C6  0DA5               	rlf	(___flmul@grs+3)^(0+128),f
  5491  02C7  1283               	bcf	3,5	;RP0=0, select bank0
  5492  02C8  1303               	bcf	3,6	;RP1=0, select bank0
  5493  02C9  0BD0               	decfsz	??___flmul,f
  5494  02CA  2AC0               	goto	u4185
  5495  02CB  0848               	movf	___flmul@b,w
  5496  02CC  00D0               	movwf	??___flmul
  5497  02CD  0850               	movf	??___flmul,w
  5498  02CE  00A9               	movwf	__Umul8_16@multiplicand
  5499  02CF  084C               	movf	___flmul@a,w
  5500  02D0  160A  118A  2252  120A  118A  	fcall	__Umul8_16
  5501  02D5  1283               	bcf	3,5	;RP0=0, select bank0
  5502  02D6  1303               	bcf	3,6	;RP1=0, select bank0
  5503  02D7  082A               	movf	?__Umul8_16+1,w
  5504  02D8  1683               	bsf	3,5	;RP0=1, select bank1
  5505  02D9  1303               	bcf	3,6	;RP1=0, select bank1
  5506  02DA  00AC               	movwf	(___flmul@temp+1)^(0+128)
  5507  02DB  1283               	bcf	3,5	;RP0=0, select bank0
  5508  02DC  1303               	bcf	3,6	;RP1=0, select bank0
  5509  02DD  0829               	movf	?__Umul8_16,w
  5510  02DE  1683               	bsf	3,5	;RP0=1, select bank1
  5511  02DF  1303               	bcf	3,6	;RP1=0, select bank1
  5512  02E0  00AB               	movwf	___flmul@temp^(0+128)
  5513  02E1                     l2833:	
  5514  02E1  082B               	movf	___flmul@temp^(0+128),w
  5515  02E2  1283               	bcf	3,5	;RP0=0, select bank0
  5516  02E3  1303               	bcf	3,6	;RP1=0, select bank0
  5517  02E4  00D0               	movwf	??___flmul
  5518  02E5  1683               	bsf	3,5	;RP0=1, select bank1
  5519  02E6  1303               	bcf	3,6	;RP1=0, select bank1
  5520  02E7  082C               	movf	(___flmul@temp+1)^(0+128),w
  5521  02E8  1283               	bcf	3,5	;RP0=0, select bank0
  5522  02E9  1303               	bcf	3,6	;RP1=0, select bank0
  5523  02EA  00D1               	movwf	??___flmul+1
  5524  02EB  01D2               	clrf	??___flmul+2
  5525  02EC  01D3               	clrf	??___flmul+3
  5526  02ED  0850               	movf	??___flmul,w
  5527  02EE  1683               	bsf	3,5	;RP0=1, select bank1
  5528  02EF  1303               	bcf	3,6	;RP1=0, select bank1
  5529  02F0  07A2               	addwf	___flmul@grs^(0+128),f
  5530  02F1  1283               	bcf	3,5	;RP0=0, select bank0
  5531  02F2  1303               	bcf	3,6	;RP1=0, select bank0
  5532  02F3  0851               	movf	??___flmul+1,w
  5533  02F4  1103               	clrz
  5534  02F5  1803               	skipnc
  5535  02F6  3E01               	addlw	1
  5536  02F7  1903               	skipnz
  5537  02F8  2AFC               	goto	u4191
  5538  02F9  1683               	bsf	3,5	;RP0=1, select bank1
  5539  02FA  1303               	bcf	3,6	;RP1=0, select bank1
  5540  02FB  07A3               	addwf	(___flmul@grs+1)^(0+128),f
  5541  02FC                     u4191:	
  5542  02FC  1283               	bcf	3,5	;RP0=0, select bank0
  5543  02FD  1303               	bcf	3,6	;RP1=0, select bank0
  5544  02FE  0852               	movf	??___flmul+2,w
  5545  02FF  1103               	clrz
  5546  0300  1803               	skipnc
  5547  0301  3E01               	addlw	1
  5548  0302  1903               	skipnz
  5549  0303  2B07               	goto	u4192
  5550  0304  1683               	bsf	3,5	;RP0=1, select bank1
  5551  0305  1303               	bcf	3,6	;RP1=0, select bank1
  5552  0306  07A4               	addwf	(___flmul@grs+2)^(0+128),f
  5553  0307                     u4192:	
  5554  0307  1283               	bcf	3,5	;RP0=0, select bank0
  5555  0308  1303               	bcf	3,6	;RP1=0, select bank0
  5556  0309  0853               	movf	??___flmul+3,w
  5557  030A  1103               	clrz
  5558  030B  1803               	skipnc
  5559  030C  3E01               	addlw	1
  5560  030D  1903               	skipnz
  5561  030E  2B12               	goto	u4193
  5562  030F  1683               	bsf	3,5	;RP0=1, select bank1
  5563  0310  1303               	bcf	3,6	;RP1=0, select bank1
  5564  0311  07A5               	addwf	(___flmul@grs+3)^(0+128),f
  5565  0312                     u4193:	
  5566  0312  1283               	bcf	3,5	;RP0=0, select bank0
  5567  0313  1303               	bcf	3,6	;RP1=0, select bank0
  5568  0314  1683               	bsf	3,5	;RP0=1, select bank1
  5569  0315  1303               	bcf	3,6	;RP1=0, select bank1
  5570  0316                     l2835:	
  5571  0316  1283               	bcf	3,5	;RP0=0, select bank0
  5572  0317  1303               	bcf	3,6	;RP1=0, select bank0
  5573  0318  0849               	movf	___flmul@b+1,w
  5574  0319  00D0               	movwf	??___flmul
  5575  031A  0850               	movf	??___flmul,w
  5576  031B  00A9               	movwf	__Umul8_16@multiplicand
  5577  031C  084E               	movf	___flmul@a+2,w
  5578  031D  160A  118A  2252  120A  118A  	fcall	__Umul8_16
  5579  0322  1283               	bcf	3,5	;RP0=0, select bank0
  5580  0323  1303               	bcf	3,6	;RP1=0, select bank0
  5581  0324  082A               	movf	?__Umul8_16+1,w
  5582  0325  1683               	bsf	3,5	;RP0=1, select bank1
  5583  0326  1303               	bcf	3,6	;RP1=0, select bank1
  5584  0327  00AC               	movwf	(___flmul@temp+1)^(0+128)
  5585  0328  1283               	bcf	3,5	;RP0=0, select bank0
  5586  0329  1303               	bcf	3,6	;RP1=0, select bank0
  5587  032A  0829               	movf	?__Umul8_16,w
  5588  032B  1683               	bsf	3,5	;RP0=1, select bank1
  5589  032C  1303               	bcf	3,6	;RP1=0, select bank1
  5590  032D  00AB               	movwf	___flmul@temp^(0+128)
  5591  032E  082B               	movf	___flmul@temp^(0+128),w
  5592  032F  1283               	bcf	3,5	;RP0=0, select bank0
  5593  0330  1303               	bcf	3,6	;RP1=0, select bank0
  5594  0331  00D0               	movwf	??___flmul
  5595  0332  1683               	bsf	3,5	;RP0=1, select bank1
  5596  0333  1303               	bcf	3,6	;RP1=0, select bank1
  5597  0334  082C               	movf	(___flmul@temp+1)^(0+128),w
  5598  0335  1283               	bcf	3,5	;RP0=0, select bank0
  5599  0336  1303               	bcf	3,6	;RP1=0, select bank0
  5600  0337  00D1               	movwf	??___flmul+1
  5601  0338  01D2               	clrf	??___flmul+2
  5602  0339  01D3               	clrf	??___flmul+3
  5603  033A  0850               	movf	??___flmul,w
  5604  033B  1683               	bsf	3,5	;RP0=1, select bank1
  5605  033C  1303               	bcf	3,6	;RP1=0, select bank1
  5606  033D  07A7               	addwf	___flmul@prod^(0+128),f
  5607  033E  1283               	bcf	3,5	;RP0=0, select bank0
  5608  033F  1303               	bcf	3,6	;RP1=0, select bank0
  5609  0340  0851               	movf	??___flmul+1,w
  5610  0341  1103               	clrz
  5611  0342  1803               	skipnc
  5612  0343  3E01               	addlw	1
  5613  0344  1903               	skipnz
  5614  0345  2B49               	goto	u4201
  5615  0346  1683               	bsf	3,5	;RP0=1, select bank1
  5616  0347  1303               	bcf	3,6	;RP1=0, select bank1
  5617  0348  07A8               	addwf	(___flmul@prod+1)^(0+128),f
  5618  0349                     u4201:	
  5619  0349  1283               	bcf	3,5	;RP0=0, select bank0
  5620  034A  1303               	bcf	3,6	;RP1=0, select bank0
  5621  034B  0852               	movf	??___flmul+2,w
  5622  034C  1103               	clrz
  5623  034D  1803               	skipnc
  5624  034E  3E01               	addlw	1
  5625  034F  1903               	skipnz
  5626  0350  2B54               	goto	u4202
  5627  0351  1683               	bsf	3,5	;RP0=1, select bank1
  5628  0352  1303               	bcf	3,6	;RP1=0, select bank1
  5629  0353  07A9               	addwf	(___flmul@prod+2)^(0+128),f
  5630  0354                     u4202:	
  5631  0354  1283               	bcf	3,5	;RP0=0, select bank0
  5632  0355  1303               	bcf	3,6	;RP1=0, select bank0
  5633  0356  0853               	movf	??___flmul+3,w
  5634  0357  1103               	clrz
  5635  0358  1803               	skipnc
  5636  0359  3E01               	addlw	1
  5637  035A  1903               	skipnz
  5638  035B  2B5F               	goto	u4203
  5639  035C  1683               	bsf	3,5	;RP0=1, select bank1
  5640  035D  1303               	bcf	3,6	;RP1=0, select bank1
  5641  035E  07AA               	addwf	(___flmul@prod+3)^(0+128),f
  5642  035F                     u4203:	
  5643  035F  1283               	bcf	3,5	;RP0=0, select bank0
  5644  0360  1303               	bcf	3,6	;RP1=0, select bank0
  5645  0361  1683               	bsf	3,5	;RP0=1, select bank1
  5646  0362  1303               	bcf	3,6	;RP1=0, select bank1
  5647  0363                     l2837:	
  5648  0363  1283               	bcf	3,5	;RP0=0, select bank0
  5649  0364  1303               	bcf	3,6	;RP1=0, select bank0
  5650  0365  084A               	movf	___flmul@b+2,w
  5651  0366  00D0               	movwf	??___flmul
  5652  0367  0850               	movf	??___flmul,w
  5653  0368  00A9               	movwf	__Umul8_16@multiplicand
  5654  0369  084D               	movf	___flmul@a+1,w
  5655  036A  160A  118A  2252  120A  118A  	fcall	__Umul8_16
  5656  036F  1283               	bcf	3,5	;RP0=0, select bank0
  5657  0370  1303               	bcf	3,6	;RP1=0, select bank0
  5658  0371  082A               	movf	?__Umul8_16+1,w
  5659  0372  1683               	bsf	3,5	;RP0=1, select bank1
  5660  0373  1303               	bcf	3,6	;RP1=0, select bank1
  5661  0374  00AC               	movwf	(___flmul@temp+1)^(0+128)
  5662  0375  1283               	bcf	3,5	;RP0=0, select bank0
  5663  0376  1303               	bcf	3,6	;RP1=0, select bank0
  5664  0377  0829               	movf	?__Umul8_16,w
  5665  0378  1683               	bsf	3,5	;RP0=1, select bank1
  5666  0379  1303               	bcf	3,6	;RP1=0, select bank1
  5667  037A  00AB               	movwf	___flmul@temp^(0+128)
  5668  037B                     l2839:	
  5669  037B  082B               	movf	___flmul@temp^(0+128),w
  5670  037C  1283               	bcf	3,5	;RP0=0, select bank0
  5671  037D  1303               	bcf	3,6	;RP1=0, select bank0
  5672  037E  00D0               	movwf	??___flmul
  5673  037F  1683               	bsf	3,5	;RP0=1, select bank1
  5674  0380  1303               	bcf	3,6	;RP1=0, select bank1
  5675  0381  082C               	movf	(___flmul@temp+1)^(0+128),w
  5676  0382  1283               	bcf	3,5	;RP0=0, select bank0
  5677  0383  1303               	bcf	3,6	;RP1=0, select bank0
  5678  0384  00D1               	movwf	??___flmul+1
  5679  0385  01D2               	clrf	??___flmul+2
  5680  0386  01D3               	clrf	??___flmul+3
  5681  0387  0850               	movf	??___flmul,w
  5682  0388  1683               	bsf	3,5	;RP0=1, select bank1
  5683  0389  1303               	bcf	3,6	;RP1=0, select bank1
  5684  038A  07A7               	addwf	___flmul@prod^(0+128),f
  5685  038B  1283               	bcf	3,5	;RP0=0, select bank0
  5686  038C  1303               	bcf	3,6	;RP1=0, select bank0
  5687  038D  0851               	movf	??___flmul+1,w
  5688  038E  1103               	clrz
  5689  038F  1803               	skipnc
  5690  0390  3E01               	addlw	1
  5691  0391  1903               	skipnz
  5692  0392  2B96               	goto	u4211
  5693  0393  1683               	bsf	3,5	;RP0=1, select bank1
  5694  0394  1303               	bcf	3,6	;RP1=0, select bank1
  5695  0395  07A8               	addwf	(___flmul@prod+1)^(0+128),f
  5696  0396                     u4211:	
  5697  0396  1283               	bcf	3,5	;RP0=0, select bank0
  5698  0397  1303               	bcf	3,6	;RP1=0, select bank0
  5699  0398  0852               	movf	??___flmul+2,w
  5700  0399  1103               	clrz
  5701  039A  1803               	skipnc
  5702  039B  3E01               	addlw	1
  5703  039C  1903               	skipnz
  5704  039D  2BA1               	goto	u4212
  5705  039E  1683               	bsf	3,5	;RP0=1, select bank1
  5706  039F  1303               	bcf	3,6	;RP1=0, select bank1
  5707  03A0  07A9               	addwf	(___flmul@prod+2)^(0+128),f
  5708  03A1                     u4212:	
  5709  03A1  1283               	bcf	3,5	;RP0=0, select bank0
  5710  03A2  1303               	bcf	3,6	;RP1=0, select bank0
  5711  03A3  0853               	movf	??___flmul+3,w
  5712  03A4  1103               	clrz
  5713  03A5  1803               	skipnc
  5714  03A6  3E01               	addlw	1
  5715  03A7  1903               	skipnz
  5716  03A8  2BAC               	goto	u4213
  5717  03A9  1683               	bsf	3,5	;RP0=1, select bank1
  5718  03AA  1303               	bcf	3,6	;RP1=0, select bank1
  5719  03AB  07AA               	addwf	(___flmul@prod+3)^(0+128),f
  5720  03AC                     u4213:	
  5721  03AC  1283               	bcf	3,5	;RP0=0, select bank0
  5722  03AD  1303               	bcf	3,6	;RP1=0, select bank0
  5723  03AE  1683               	bsf	3,5	;RP0=1, select bank1
  5724  03AF  1303               	bcf	3,6	;RP1=0, select bank1
  5725  03B0  1283               	bcf	3,5	;RP0=0, select bank0
  5726  03B1  1303               	bcf	3,6	;RP1=0, select bank0
  5727  03B2  084A               	movf	___flmul@b+2,w
  5728  03B3  00D0               	movwf	??___flmul
  5729  03B4  0850               	movf	??___flmul,w
  5730  03B5  00A9               	movwf	__Umul8_16@multiplicand
  5731  03B6  084E               	movf	___flmul@a+2,w
  5732  03B7  160A  118A  2252  120A  118A  	fcall	__Umul8_16
  5733  03BC  1283               	bcf	3,5	;RP0=0, select bank0
  5734  03BD  1303               	bcf	3,6	;RP1=0, select bank0
  5735  03BE  082A               	movf	?__Umul8_16+1,w
  5736  03BF  1683               	bsf	3,5	;RP0=1, select bank1
  5737  03C0  1303               	bcf	3,6	;RP1=0, select bank1
  5738  03C1  00AC               	movwf	(___flmul@temp+1)^(0+128)
  5739  03C2  1283               	bcf	3,5	;RP0=0, select bank0
  5740  03C3  1303               	bcf	3,6	;RP1=0, select bank0
  5741  03C4  0829               	movf	?__Umul8_16,w
  5742  03C5  1683               	bsf	3,5	;RP0=1, select bank1
  5743  03C6  1303               	bcf	3,6	;RP1=0, select bank1
  5744  03C7  00AB               	movwf	___flmul@temp^(0+128)
  5745  03C8                     l2841:	
  5746  03C8  082B               	movf	___flmul@temp^(0+128),w
  5747  03C9  1283               	bcf	3,5	;RP0=0, select bank0
  5748  03CA  1303               	bcf	3,6	;RP1=0, select bank0
  5749  03CB  00D0               	movwf	??___flmul
  5750  03CC  1683               	bsf	3,5	;RP0=1, select bank1
  5751  03CD  1303               	bcf	3,6	;RP1=0, select bank1
  5752  03CE  082C               	movf	(___flmul@temp+1)^(0+128),w
  5753  03CF  1283               	bcf	3,5	;RP0=0, select bank0
  5754  03D0  1303               	bcf	3,6	;RP1=0, select bank0
  5755  03D1  00D1               	movwf	??___flmul+1
  5756  03D2  01D2               	clrf	??___flmul+2
  5757  03D3  01D3               	clrf	??___flmul+3
  5758  03D4  3008               	movlw	8
  5759  03D5                     u4225:	
  5760  03D5  1003               	clrc
  5761  03D6  0DD0               	rlf	??___flmul,f
  5762  03D7  0DD1               	rlf	??___flmul+1,f
  5763  03D8  0DD2               	rlf	??___flmul+2,f
  5764  03D9  0DD3               	rlf	??___flmul+3,f
  5765  03DA                     u4220:	
  5766  03DA  3EFF               	addlw	-1
  5767  03DB  1D03               	skipz
  5768  03DC  2BD5               	goto	u4225
  5769  03DD  0850               	movf	??___flmul,w
  5770  03DE  1683               	bsf	3,5	;RP0=1, select bank1
  5771  03DF  1303               	bcf	3,6	;RP1=0, select bank1
  5772  03E0  07A7               	addwf	___flmul@prod^(0+128),f
  5773  03E1  1283               	bcf	3,5	;RP0=0, select bank0
  5774  03E2  1303               	bcf	3,6	;RP1=0, select bank0
  5775  03E3  0851               	movf	??___flmul+1,w
  5776  03E4  1103               	clrz
  5777  03E5  1803               	skipnc
  5778  03E6  3E01               	addlw	1
  5779  03E7  1903               	skipnz
  5780  03E8  2BEC               	goto	u4231
  5781  03E9  1683               	bsf	3,5	;RP0=1, select bank1
  5782  03EA  1303               	bcf	3,6	;RP1=0, select bank1
  5783  03EB  07A8               	addwf	(___flmul@prod+1)^(0+128),f
  5784  03EC                     u4231:	
  5785  03EC  1283               	bcf	3,5	;RP0=0, select bank0
  5786  03ED  1303               	bcf	3,6	;RP1=0, select bank0
  5787  03EE  0852               	movf	??___flmul+2,w
  5788  03EF  1103               	clrz
  5789  03F0  1803               	skipnc
  5790  03F1  3E01               	addlw	1
  5791  03F2  1903               	skipnz
  5792  03F3  2BF7               	goto	u4232
  5793  03F4  1683               	bsf	3,5	;RP0=1, select bank1
  5794  03F5  1303               	bcf	3,6	;RP1=0, select bank1
  5795  03F6  07A9               	addwf	(___flmul@prod+2)^(0+128),f
  5796  03F7                     u4232:	
  5797  03F7  1283               	bcf	3,5	;RP0=0, select bank0
  5798  03F8  1303               	bcf	3,6	;RP1=0, select bank0
  5799  03F9  0853               	movf	??___flmul+3,w
  5800  03FA  1103               	clrz
  5801  03FB  1803               	skipnc
  5802  03FC  3E01               	addlw	1
  5803  03FD  1903               	skipnz
  5804  03FE  2C02               	goto	u4233
  5805  03FF  1683               	bsf	3,5	;RP0=1, select bank1
  5806  0400  1303               	bcf	3,6	;RP1=0, select bank1
  5807  0401  07AA               	addwf	(___flmul@prod+3)^(0+128),f
  5808  0402                     u4233:	
  5809  0402  1283               	bcf	3,5	;RP0=0, select bank0
  5810  0403  1303               	bcf	3,6	;RP1=0, select bank0
  5811  0404  1683               	bsf	3,5	;RP0=1, select bank1
  5812  0405  1303               	bcf	3,6	;RP1=0, select bank1
  5813  0406                     l2843:	
  5814  0406  0822               	movf	___flmul@grs^(0+128),w
  5815  0407  1283               	bcf	3,5	;RP0=0, select bank0
  5816  0408  1303               	bcf	3,6	;RP1=0, select bank0
  5817  0409  00D0               	movwf	??___flmul
  5818  040A  1683               	bsf	3,5	;RP0=1, select bank1
  5819  040B  1303               	bcf	3,6	;RP1=0, select bank1
  5820  040C  0823               	movf	(___flmul@grs+1)^(0+128),w
  5821  040D  1283               	bcf	3,5	;RP0=0, select bank0
  5822  040E  1303               	bcf	3,6	;RP1=0, select bank0
  5823  040F  00D1               	movwf	??___flmul+1
  5824  0410  1683               	bsf	3,5	;RP0=1, select bank1
  5825  0411  1303               	bcf	3,6	;RP1=0, select bank1
  5826  0412  0824               	movf	(___flmul@grs+2)^(0+128),w
  5827  0413  1283               	bcf	3,5	;RP0=0, select bank0
  5828  0414  1303               	bcf	3,6	;RP1=0, select bank0
  5829  0415  00D2               	movwf	??___flmul+2
  5830  0416  1683               	bsf	3,5	;RP0=1, select bank1
  5831  0417  1303               	bcf	3,6	;RP1=0, select bank1
  5832  0418  0825               	movf	(___flmul@grs+3)^(0+128),w
  5833  0419  1283               	bcf	3,5	;RP0=0, select bank0
  5834  041A  1303               	bcf	3,6	;RP1=0, select bank0
  5835  041B  00D3               	movwf	??___flmul+3
  5836  041C  3018               	movlw	24
  5837  041D                     u4245:	
  5838  041D  1003               	clrc
  5839  041E  0CD3               	rrf	??___flmul+3,f
  5840  041F  0CD2               	rrf	??___flmul+2,f
  5841  0420  0CD1               	rrf	??___flmul+1,f
  5842  0421  0CD0               	rrf	??___flmul,f
  5843  0422                     u4240:	
  5844  0422  3EFF               	addlw	-1
  5845  0423  1D03               	skipz
  5846  0424  2C1D               	goto	u4245
  5847  0425  0850               	movf	??___flmul,w
  5848  0426  1683               	bsf	3,5	;RP0=1, select bank1
  5849  0427  1303               	bcf	3,6	;RP1=0, select bank1
  5850  0428  07A7               	addwf	___flmul@prod^(0+128),f
  5851  0429  1283               	bcf	3,5	;RP0=0, select bank0
  5852  042A  1303               	bcf	3,6	;RP1=0, select bank0
  5853  042B  0851               	movf	??___flmul+1,w
  5854  042C  1103               	clrz
  5855  042D  1803               	skipnc
  5856  042E  3E01               	addlw	1
  5857  042F  1903               	skipnz
  5858  0430  2C34               	goto	u4251
  5859  0431  1683               	bsf	3,5	;RP0=1, select bank1
  5860  0432  1303               	bcf	3,6	;RP1=0, select bank1
  5861  0433  07A8               	addwf	(___flmul@prod+1)^(0+128),f
  5862  0434                     u4251:	
  5863  0434  1283               	bcf	3,5	;RP0=0, select bank0
  5864  0435  1303               	bcf	3,6	;RP1=0, select bank0
  5865  0436  0852               	movf	??___flmul+2,w
  5866  0437  1103               	clrz
  5867  0438  1803               	skipnc
  5868  0439  3E01               	addlw	1
  5869  043A  1903               	skipnz
  5870  043B  2C3F               	goto	u4252
  5871  043C  1683               	bsf	3,5	;RP0=1, select bank1
  5872  043D  1303               	bcf	3,6	;RP1=0, select bank1
  5873  043E  07A9               	addwf	(___flmul@prod+2)^(0+128),f
  5874  043F                     u4252:	
  5875  043F  1283               	bcf	3,5	;RP0=0, select bank0
  5876  0440  1303               	bcf	3,6	;RP1=0, select bank0
  5877  0441  0853               	movf	??___flmul+3,w
  5878  0442  1103               	clrz
  5879  0443  1803               	skipnc
  5880  0444  3E01               	addlw	1
  5881  0445  1903               	skipnz
  5882  0446  2C4A               	goto	u4253
  5883  0447  1683               	bsf	3,5	;RP0=1, select bank1
  5884  0448  1303               	bcf	3,6	;RP1=0, select bank1
  5885  0449  07AA               	addwf	(___flmul@prod+3)^(0+128),f
  5886  044A                     u4253:	
  5887  044A  1283               	bcf	3,5	;RP0=0, select bank0
  5888  044B  1303               	bcf	3,6	;RP1=0, select bank0
  5889  044C  1683               	bsf	3,5	;RP0=1, select bank1
  5890  044D  1303               	bcf	3,6	;RP1=0, select bank1
  5891  044E                     l2845:	
  5892  044E  3008               	movlw	8
  5893  044F  1283               	bcf	3,5	;RP0=0, select bank0
  5894  0450  1303               	bcf	3,6	;RP1=0, select bank0
  5895  0451  00D0               	movwf	??___flmul
  5896  0452                     u4265:	
  5897  0452  1003               	clrc
  5898  0453  1683               	bsf	3,5	;RP0=1, select bank1
  5899  0454  1303               	bcf	3,6	;RP1=0, select bank1
  5900  0455  0DA2               	rlf	___flmul@grs^(0+128),f
  5901  0456  0DA3               	rlf	(___flmul@grs+1)^(0+128),f
  5902  0457  0DA4               	rlf	(___flmul@grs+2)^(0+128),f
  5903  0458  0DA5               	rlf	(___flmul@grs+3)^(0+128),f
  5904  0459  1283               	bcf	3,5	;RP0=0, select bank0
  5905  045A  1303               	bcf	3,6	;RP1=0, select bank0
  5906  045B  0BD0               	decfsz	??___flmul,f
  5907  045C  2C52               	goto	u4265
  5908  045D                     l2847:	
  5909  045D  1683               	bsf	3,5	;RP0=1, select bank1
  5910  045E  1303               	bcf	3,6	;RP1=0, select bank1
  5911  045F  0826               	movf	___flmul@bexp^(0+128),w
  5912  0460  0721               	addwf	___flmul@aexp^(0+128),w
  5913  0461  1283               	bcf	3,5	;RP0=0, select bank0
  5914  0462  1303               	bcf	3,6	;RP1=0, select bank0
  5915  0463  00D0               	movwf	??___flmul
  5916  0464  01D1               	clrf	??___flmul+1
  5917  0465  0DD1               	rlf	??___flmul+1,f
  5918  0466  0850               	movf	??___flmul,w
  5919  0467  3E82               	addlw	130
  5920  0468  1683               	bsf	3,5	;RP0=1, select bank1
  5921  0469  1303               	bcf	3,6	;RP1=0, select bank1
  5922  046A  00AB               	movwf	___flmul@temp^(0+128)
  5923  046B  1283               	bcf	3,5	;RP0=0, select bank0
  5924  046C  1303               	bcf	3,6	;RP1=0, select bank0
  5925  046D  0851               	movf	??___flmul+1,w
  5926  046E  1803               	skipnc
  5927  046F  3E01               	addlw	1
  5928  0470  3EFF               	addlw	255
  5929  0471  1683               	bsf	3,5	;RP0=1, select bank1
  5930  0472  1303               	bcf	3,6	;RP1=0, select bank1
  5931  0473  00AC               	movwf	(___flmul@temp+1)^(0+128)
  5932  0474  2CA2               	goto	l2859
  5933  0475                     l2849:	
  5934  0475  3001               	movlw	1
  5935  0476  1283               	bcf	3,5	;RP0=0, select bank0
  5936  0477  1303               	bcf	3,6	;RP1=0, select bank0
  5937  0478  00D0               	movwf	??___flmul
  5938  0479                     u4275:	
  5939  0479  1003               	clrc
  5940  047A  1683               	bsf	3,5	;RP0=1, select bank1
  5941  047B  1303               	bcf	3,6	;RP1=0, select bank1
  5942  047C  0DA7               	rlf	___flmul@prod^(0+128),f
  5943  047D  0DA8               	rlf	(___flmul@prod+1)^(0+128),f
  5944  047E  0DA9               	rlf	(___flmul@prod+2)^(0+128),f
  5945  047F  0DAA               	rlf	(___flmul@prod+3)^(0+128),f
  5946  0480  1283               	bcf	3,5	;RP0=0, select bank0
  5947  0481  1303               	bcf	3,6	;RP1=0, select bank0
  5948  0482  0BD0               	decfsz	??___flmul,f
  5949  0483  2C79               	goto	u4275
  5950  0484                     l2851:	
  5951  0484  1683               	bsf	3,5	;RP0=1, select bank1
  5952  0485  1303               	bcf	3,6	;RP1=0, select bank1
  5953  0486  1FA5               	btfss	(___flmul@grs+3)^(0+128),7
  5954  0487  2C89               	goto	u4281
  5955  0488  2C8A               	goto	u4280
  5956  0489                     u4281:	
  5957  0489  2C8B               	goto	l2855
  5958  048A                     u4280:	
  5959  048A                     l2853:	
  5960  048A  1427               	bsf	___flmul@prod^(0+128),0
  5961  048B                     l2855:	
  5962  048B  3001               	movlw	1
  5963  048C  1283               	bcf	3,5	;RP0=0, select bank0
  5964  048D  1303               	bcf	3,6	;RP1=0, select bank0
  5965  048E  00D0               	movwf	??___flmul
  5966  048F                     u4295:	
  5967  048F  1003               	clrc
  5968  0490  1683               	bsf	3,5	;RP0=1, select bank1
  5969  0491  1303               	bcf	3,6	;RP1=0, select bank1
  5970  0492  0DA2               	rlf	___flmul@grs^(0+128),f
  5971  0493  0DA3               	rlf	(___flmul@grs+1)^(0+128),f
  5972  0494  0DA4               	rlf	(___flmul@grs+2)^(0+128),f
  5973  0495  0DA5               	rlf	(___flmul@grs+3)^(0+128),f
  5974  0496  1283               	bcf	3,5	;RP0=0, select bank0
  5975  0497  1303               	bcf	3,6	;RP1=0, select bank0
  5976  0498  0BD0               	decfsz	??___flmul,f
  5977  0499  2C8F               	goto	u4295
  5978  049A                     l2857:	
  5979  049A  30FF               	movlw	255
  5980  049B  1683               	bsf	3,5	;RP0=1, select bank1
  5981  049C  1303               	bcf	3,6	;RP1=0, select bank1
  5982  049D  07AB               	addwf	___flmul@temp^(0+128),f
  5983  049E  1803               	skipnc
  5984  049F  0AAC               	incf	(___flmul@temp+1)^(0+128),f
  5985  04A0  30FF               	movlw	255
  5986  04A1  07AC               	addwf	(___flmul@temp+1)^(0+128),f
  5987  04A2                     l2859:	
  5988  04A2  1FA9               	btfss	(___flmul@prod+2)^(0+128),7
  5989  04A3  2CA5               	goto	u4301
  5990  04A4  2CA6               	goto	u4300
  5991  04A5                     u4301:	
  5992  04A5  2C75               	goto	l2849
  5993  04A6                     u4300:	
  5994  04A6                     l2861:	
  5995  04A6  01A1               	clrf	___flmul@aexp^(0+128)
  5996  04A7                     l2863:	
  5997  04A7  1FA5               	btfss	(___flmul@grs+3)^(0+128),7
  5998  04A8  2CAA               	goto	u4311
  5999  04A9  2CAB               	goto	u4310
  6000  04AA                     u4311:	
  6001  04AA  2CD9               	goto	l2871
  6002  04AB                     u4310:	
  6003  04AB                     l2865:	
  6004  04AB  30FF               	movlw	255
  6005  04AC  0522               	andwf	___flmul@grs^(0+128),w
  6006  04AD  1283               	bcf	3,5	;RP0=0, select bank0
  6007  04AE  1303               	bcf	3,6	;RP1=0, select bank0
  6008  04AF  00D0               	movwf	??___flmul
  6009  04B0  30FF               	movlw	255
  6010  04B1  1683               	bsf	3,5	;RP0=1, select bank1
  6011  04B2  1303               	bcf	3,6	;RP1=0, select bank1
  6012  04B3  0523               	andwf	(___flmul@grs+1)^(0+128),w
  6013  04B4  1283               	bcf	3,5	;RP0=0, select bank0
  6014  04B5  1303               	bcf	3,6	;RP1=0, select bank0
  6015  04B6  00D1               	movwf	??___flmul+1
  6016  04B7  30FF               	movlw	255
  6017  04B8  1683               	bsf	3,5	;RP0=1, select bank1
  6018  04B9  1303               	bcf	3,6	;RP1=0, select bank1
  6019  04BA  0524               	andwf	(___flmul@grs+2)^(0+128),w
  6020  04BB  1283               	bcf	3,5	;RP0=0, select bank0
  6021  04BC  1303               	bcf	3,6	;RP1=0, select bank0
  6022  04BD  00D2               	movwf	??___flmul+2
  6023  04BE  307F               	movlw	127
  6024  04BF  1683               	bsf	3,5	;RP0=1, select bank1
  6025  04C0  1303               	bcf	3,6	;RP1=0, select bank1
  6026  04C1  0525               	andwf	(___flmul@grs+3)^(0+128),w
  6027  04C2  1283               	bcf	3,5	;RP0=0, select bank0
  6028  04C3  1303               	bcf	3,6	;RP1=0, select bank0
  6029  04C4  00D3               	movwf	??___flmul+3
  6030  04C5  0853               	movf	??___flmul+3,w
  6031  04C6  0452               	iorwf	??___flmul+2,w
  6032  04C7  0451               	iorwf	??___flmul+1,w
  6033  04C8  0450               	iorwf	??___flmul,w
  6034  04C9  1903               	skipnz
  6035  04CA  2CCC               	goto	u4321
  6036  04CB  2CCD               	goto	u4320
  6037  04CC                     u4321:	
  6038  04CC  2CD2               	goto	l704
  6039  04CD                     u4320:	
  6040  04CD                     l2867:	
  6041  04CD  1683               	bsf	3,5	;RP0=1, select bank1
  6042  04CE  1303               	bcf	3,6	;RP1=0, select bank1
  6043  04CF  01A1               	clrf	___flmul@aexp^(0+128)
  6044  04D0  0AA1               	incf	___flmul@aexp^(0+128),f
  6045  04D1  2CD9               	goto	l2871
  6046  04D2                     l704:	
  6047  04D2  1683               	bsf	3,5	;RP0=1, select bank1
  6048  04D3  1303               	bcf	3,6	;RP1=0, select bank1
  6049  04D4  1C27               	btfss	___flmul@prod^(0+128),0
  6050  04D5  2CD7               	goto	u4331
  6051  04D6  2CD8               	goto	u4330
  6052  04D7                     u4331:	
  6053  04D7  2CD9               	goto	l2871
  6054  04D8                     u4330:	
  6055  04D8  2CCD               	goto	l2867
  6056  04D9                     l2871:	
  6057  04D9  0821               	movf	___flmul@aexp^(0+128),w
  6058  04DA  1903               	btfsc	3,2
  6059  04DB  2CDD               	goto	u4341
  6060  04DC  2CDE               	goto	u4340
  6061  04DD                     u4341:	
  6062  04DD  2D2B               	goto	l2881
  6063  04DE                     u4340:	
  6064  04DE                     l2873:	
  6065  04DE  3001               	movlw	1
  6066  04DF  07A7               	addwf	___flmul@prod^(0+128),f
  6067  04E0  3000               	movlw	0
  6068  04E1  1803               	skipnc
  6069  04E2  3001               	movlw	1
  6070  04E3  07A8               	addwf	(___flmul@prod+1)^(0+128),f
  6071  04E4  3000               	movlw	0
  6072  04E5  1803               	skipnc
  6073  04E6  3001               	movlw	1
  6074  04E7  07A9               	addwf	(___flmul@prod+2)^(0+128),f
  6075  04E8  3000               	movlw	0
  6076  04E9  1803               	skipnc
  6077  04EA  3001               	movlw	1
  6078  04EB  07AA               	addwf	(___flmul@prod+3)^(0+128),f
  6079  04EC                     l2875:	
  6080  04EC  1C2A               	btfss	(___flmul@prod+3)^(0+128),0
  6081  04ED  2CEF               	goto	u4351
  6082  04EE  2CF0               	goto	u4350
  6083  04EF                     u4351:	
  6084  04EF  2D2B               	goto	l2881
  6085  04F0                     u4350:	
  6086  04F0                     l2877:	
  6087  04F0  0827               	movf	___flmul@prod^(0+128),w
  6088  04F1  1283               	bcf	3,5	;RP0=0, select bank0
  6089  04F2  1303               	bcf	3,6	;RP1=0, select bank0
  6090  04F3  00D0               	movwf	??___flmul
  6091  04F4  1683               	bsf	3,5	;RP0=1, select bank1
  6092  04F5  1303               	bcf	3,6	;RP1=0, select bank1
  6093  04F6  0828               	movf	(___flmul@prod+1)^(0+128),w
  6094  04F7  1283               	bcf	3,5	;RP0=0, select bank0
  6095  04F8  1303               	bcf	3,6	;RP1=0, select bank0
  6096  04F9  00D1               	movwf	??___flmul+1
  6097  04FA  1683               	bsf	3,5	;RP0=1, select bank1
  6098  04FB  1303               	bcf	3,6	;RP1=0, select bank1
  6099  04FC  0829               	movf	(___flmul@prod+2)^(0+128),w
  6100  04FD  1283               	bcf	3,5	;RP0=0, select bank0
  6101  04FE  1303               	bcf	3,6	;RP1=0, select bank0
  6102  04FF  00D2               	movwf	??___flmul+2
  6103  0500  1683               	bsf	3,5	;RP0=1, select bank1
  6104  0501  1303               	bcf	3,6	;RP1=0, select bank1
  6105  0502  082A               	movf	(___flmul@prod+3)^(0+128),w
  6106  0503  1283               	bcf	3,5	;RP0=0, select bank0
  6107  0504  1303               	bcf	3,6	;RP1=0, select bank0
  6108  0505  00D3               	movwf	??___flmul+3
  6109  0506  3001               	movlw	1
  6110  0507  00D4               	movwf	??___flmul+4
  6111  0508                     u4365:	
  6112  0508  0D53               	rlf	??___flmul+3,w
  6113  0509  0CD3               	rrf	??___flmul+3,f
  6114  050A  0CD2               	rrf	??___flmul+2,f
  6115  050B  0CD1               	rrf	??___flmul+1,f
  6116  050C  0CD0               	rrf	??___flmul,f
  6117  050D                     u4360:	
  6118  050D  0BD4               	decfsz	??___flmul+4,f
  6119  050E  2D08               	goto	u4365
  6120  050F  0853               	movf	??___flmul+3,w
  6121  0510  1683               	bsf	3,5	;RP0=1, select bank1
  6122  0511  1303               	bcf	3,6	;RP1=0, select bank1
  6123  0512  00AA               	movwf	(___flmul@prod+3)^(0+128)
  6124  0513  1283               	bcf	3,5	;RP0=0, select bank0
  6125  0514  1303               	bcf	3,6	;RP1=0, select bank0
  6126  0515  0852               	movf	??___flmul+2,w
  6127  0516  1683               	bsf	3,5	;RP0=1, select bank1
  6128  0517  1303               	bcf	3,6	;RP1=0, select bank1
  6129  0518  00A9               	movwf	(___flmul@prod+2)^(0+128)
  6130  0519  1283               	bcf	3,5	;RP0=0, select bank0
  6131  051A  1303               	bcf	3,6	;RP1=0, select bank0
  6132  051B  0851               	movf	??___flmul+1,w
  6133  051C  1683               	bsf	3,5	;RP0=1, select bank1
  6134  051D  1303               	bcf	3,6	;RP1=0, select bank1
  6135  051E  00A8               	movwf	(___flmul@prod+1)^(0+128)
  6136  051F  1283               	bcf	3,5	;RP0=0, select bank0
  6137  0520  1303               	bcf	3,6	;RP1=0, select bank0
  6138  0521  0850               	movf	??___flmul,w
  6139  0522  1683               	bsf	3,5	;RP0=1, select bank1
  6140  0523  1303               	bcf	3,6	;RP1=0, select bank1
  6141  0524  00A7               	movwf	___flmul@prod^(0+128)
  6142  0525                     l2879:	
  6143  0525  3001               	movlw	1
  6144  0526  07AB               	addwf	___flmul@temp^(0+128),f
  6145  0527  1803               	skipnc
  6146  0528  0AAC               	incf	(___flmul@temp+1)^(0+128),f
  6147  0529  3000               	movlw	0
  6148  052A  07AC               	addwf	(___flmul@temp+1)^(0+128),f
  6149  052B                     l2881:	
  6150  052B  082C               	movf	(___flmul@temp+1)^(0+128),w
  6151  052C  3A80               	xorlw	128
  6152  052D  00FF               	movwf	btemp+1
  6153  052E  3080               	movlw	128
  6154  052F  027F               	subwf	btemp+1,w
  6155  0530  1D03               	skipz
  6156  0531  2D34               	goto	u4375
  6157  0532  30FF               	movlw	255
  6158  0533  022B               	subwf	___flmul@temp^(0+128),w
  6159  0534                     u4375:	
  6160  0534  1C03               	skipc
  6161  0535  2D37               	goto	u4371
  6162  0536  2D38               	goto	u4370
  6163  0537                     u4371:	
  6164  0537  2D43               	goto	l2885
  6165  0538                     u4370:	
  6166  0538                     l2883:	
  6167  0538  307F               	movlw	127
  6168  0539  1683               	bsf	3,5	;RP0=1, select bank1
  6169  053A  1303               	bcf	3,6	;RP1=0, select bank1
  6170  053B  00AA               	movwf	(___flmul@prod+3)^(0+128)
  6171  053C  3080               	movlw	128
  6172  053D  00A9               	movwf	(___flmul@prod+2)^(0+128)
  6173  053E  3000               	movlw	0
  6174  053F  00A8               	movwf	(___flmul@prod+1)^(0+128)
  6175  0540  3000               	movlw	0
  6176  0541  00A7               	movwf	___flmul@prod^(0+128)
  6177  0542  2D80               	goto	l710
  6178  0543                     l2885:	
  6179  0543  1683               	bsf	3,5	;RP0=1, select bank1
  6180  0544  1303               	bcf	3,6	;RP1=0, select bank1
  6181  0545  082C               	movf	(___flmul@temp+1)^(0+128),w
  6182  0546  3A80               	xorlw	128
  6183  0547  00FF               	movwf	btemp+1
  6184  0548  3080               	movlw	128
  6185  0549  027F               	subwf	btemp+1,w
  6186  054A  1D03               	skipz
  6187  054B  2D4E               	goto	u4385
  6188  054C  3001               	movlw	1
  6189  054D  022B               	subwf	___flmul@temp^(0+128),w
  6190  054E                     u4385:	
  6191  054E  1803               	skipnc
  6192  054F  2D51               	goto	u4381
  6193  0550  2D52               	goto	u4380
  6194  0551                     u4381:	
  6195  0551  2D5E               	goto	l2891
  6196  0552                     u4380:	
  6197  0552                     l2887:	
  6198  0552  3000               	movlw	0
  6199  0553  1683               	bsf	3,5	;RP0=1, select bank1
  6200  0554  1303               	bcf	3,6	;RP1=0, select bank1
  6201  0555  00AA               	movwf	(___flmul@prod+3)^(0+128)
  6202  0556  3000               	movlw	0
  6203  0557  00A9               	movwf	(___flmul@prod+2)^(0+128)
  6204  0558  3000               	movlw	0
  6205  0559  00A8               	movwf	(___flmul@prod+1)^(0+128)
  6206  055A  3000               	movlw	0
  6207  055B  00A7               	movwf	___flmul@prod^(0+128)
  6208  055C                     l2889:	
  6209  055C  01A0               	clrf	___flmul@sign^(0+128)
  6210  055D  2D80               	goto	l710
  6211  055E                     l2891:	
  6212  055E  1683               	bsf	3,5	;RP0=1, select bank1
  6213  055F  1303               	bcf	3,6	;RP1=0, select bank1
  6214  0560  082B               	movf	___flmul@temp^(0+128),w
  6215  0561  1283               	bcf	3,5	;RP0=0, select bank0
  6216  0562  1303               	bcf	3,6	;RP1=0, select bank0
  6217  0563  00D0               	movwf	??___flmul
  6218  0564  0850               	movf	??___flmul,w
  6219  0565  1683               	bsf	3,5	;RP0=1, select bank1
  6220  0566  1303               	bcf	3,6	;RP1=0, select bank1
  6221  0567  00A6               	movwf	___flmul@bexp^(0+128)
  6222  0568  30FF               	movlw	255
  6223  0569  05A7               	andwf	___flmul@prod^(0+128),f
  6224  056A  30FF               	movlw	255
  6225  056B  05A8               	andwf	(___flmul@prod+1)^(0+128),f
  6226  056C  307F               	movlw	127
  6227  056D  05A9               	andwf	(___flmul@prod+2)^(0+128),f
  6228  056E  3000               	movlw	0
  6229  056F  05AA               	andwf	(___flmul@prod+3)^(0+128),f
  6230  0570                     l2893:	
  6231  0570  1C26               	btfss	___flmul@bexp^(0+128),0
  6232  0571  2D73               	goto	u4391
  6233  0572  2D74               	goto	u4390
  6234  0573                     u4391:	
  6235  0573  2D75               	goto	l2897
  6236  0574                     u4390:	
  6237  0574                     l2895:	
  6238  0574  17A9               	bsf	(___flmul@prod^(0+128)+2),7
  6239  0575                     l2897:	
  6240  0575  0826               	movf	___flmul@bexp^(0+128),w
  6241  0576  1283               	bcf	3,5	;RP0=0, select bank0
  6242  0577  1303               	bcf	3,6	;RP1=0, select bank0
  6243  0578  00D0               	movwf	??___flmul
  6244  0579  1003               	clrc
  6245  057A  0C50               	rrf	??___flmul,w
  6246  057B  00D1               	movwf	??___flmul+1
  6247  057C  0851               	movf	??___flmul+1,w
  6248  057D  1683               	bsf	3,5	;RP0=1, select bank1
  6249  057E  1303               	bcf	3,6	;RP1=0, select bank1
  6250  057F  00AA               	movwf	(___flmul@prod^(0+128)+3)
  6251  0580                     l710:	
  6252  0580  0820               	movf	___flmul@sign^(0+128),w
  6253  0581  1283               	bcf	3,5	;RP0=0, select bank0
  6254  0582  1303               	bcf	3,6	;RP1=0, select bank0
  6255  0583  00D0               	movwf	??___flmul
  6256  0584  0850               	movf	??___flmul,w
  6257  0585  1683               	bsf	3,5	;RP0=1, select bank1
  6258  0586  1303               	bcf	3,6	;RP1=0, select bank1
  6259  0587  04AA               	iorwf	(___flmul@prod^(0+128)+3),f
  6260  0588                     l2899:	
  6261  0588  082A               	movf	(___flmul@prod+3)^(0+128),w
  6262  0589  1283               	bcf	3,5	;RP0=0, select bank0
  6263  058A  1303               	bcf	3,6	;RP1=0, select bank0
  6264  058B  00CB               	movwf	?___flmul+3
  6265  058C  1683               	bsf	3,5	;RP0=1, select bank1
  6266  058D  1303               	bcf	3,6	;RP1=0, select bank1
  6267  058E  0829               	movf	(___flmul@prod+2)^(0+128),w
  6268  058F  1283               	bcf	3,5	;RP0=0, select bank0
  6269  0590  1303               	bcf	3,6	;RP1=0, select bank0
  6270  0591  00CA               	movwf	?___flmul+2
  6271  0592  1683               	bsf	3,5	;RP0=1, select bank1
  6272  0593  1303               	bcf	3,6	;RP1=0, select bank1
  6273  0594  0828               	movf	(___flmul@prod+1)^(0+128),w
  6274  0595  1283               	bcf	3,5	;RP0=0, select bank0
  6275  0596  1303               	bcf	3,6	;RP1=0, select bank0
  6276  0597  00C9               	movwf	?___flmul+1
  6277  0598  1683               	bsf	3,5	;RP0=1, select bank1
  6278  0599  1303               	bcf	3,6	;RP1=0, select bank1
  6279  059A  0827               	movf	___flmul@prod^(0+128),w
  6280  059B  1283               	bcf	3,5	;RP0=0, select bank0
  6281  059C  1303               	bcf	3,6	;RP1=0, select bank0
  6282  059D  00C8               	movwf	?___flmul
  6283  059E                     l698:	
  6284  059E  0008               	return
  6285  059F                     __end_of___flmul:	
  6286                           
  6287                           	psect	text13
  6288  1252                     __ptext13:	
  6289 ;; *************** function __Umul8_16 *****************
  6290 ;; Defined at:
  6291 ;;		line 4 in file "D:\Program Files (x86)\Microchip\xc8\v2.10\pic\sources\c90\common\Umul8_16.c"
  6292 ;; Parameters:    Size  Location     Type
  6293 ;;  multiplier      1    wreg     unsigned char 
  6294 ;;  multiplicand    1    9[BANK0 ] unsigned char 
  6295 ;; Auto vars:     Size  Location     Type
  6296 ;;  multiplier      1   17[BANK0 ] unsigned char 
  6297 ;;  word_mpld       2   15[BANK0 ] unsigned int 
  6298 ;;  product         2   13[BANK0 ] unsigned int 
  6299 ;; Return value:  Size  Location     Type
  6300 ;;                  2    9[BANK0 ] unsigned int 
  6301 ;; Registers used:
  6302 ;;		wreg, status,2, status,0
  6303 ;; Tracked objects:
  6304 ;;		On entry : 0/0
  6305 ;;		On exit  : 0/0
  6306 ;;		Unchanged: 0/0
  6307 ;; Data sizes:     COMMON   BANK0   BANK1   BANK3   BANK2
  6308 ;;      Params:         0       2       0       0       0
  6309 ;;      Locals:         0       5       0       0       0
  6310 ;;      Temps:          0       2       0       0       0
  6311 ;;      Totals:         0       9       0       0       0
  6312 ;;Total ram usage:        9 bytes
  6313 ;; Hardware stack levels used:    1
  6314 ;; Hardware stack levels required when called:    2
  6315 ;; This function calls:
  6316 ;;		Nothing
  6317 ;; This function is called by:
  6318 ;;		___flmul
  6319 ;; This function uses a non-reentrant model
  6320 ;;
  6321                           
  6322                           
  6323                           ;psect for function __Umul8_16
  6324  1252                     __Umul8_16:	
  6325                           
  6326                           ;incstack = 0
  6327                           ; Regs used in __Umul8_16: [wreg+status,2+status,0]
  6328                           ;__Umul8_16@multiplier stored from wreg
  6329  1252  1283               	bcf	3,5	;RP0=0, select bank0
  6330  1253  1303               	bcf	3,6	;RP1=0, select bank0
  6331  1254  00B1               	movwf	__Umul8_16@multiplier
  6332  1255                     l2555:	
  6333  1255  01AD               	clrf	__Umul8_16@product
  6334  1256  01AE               	clrf	__Umul8_16@product+1
  6335  1257                     l2557:	
  6336  1257  0829               	movf	__Umul8_16@multiplicand,w
  6337  1258  00AB               	movwf	??__Umul8_16
  6338  1259  01AC               	clrf	??__Umul8_16+1
  6339  125A  082B               	movf	??__Umul8_16,w
  6340  125B  00AF               	movwf	__Umul8_16@word_mpld
  6341  125C  082C               	movf	??__Umul8_16+1,w
  6342  125D  00B0               	movwf	__Umul8_16@word_mpld+1
  6343  125E                     l2559:	
  6344  125E  1C31               	btfss	__Umul8_16@multiplier,0
  6345  125F  2A61               	goto	u3541
  6346  1260  2A62               	goto	u3540
  6347  1261                     u3541:	
  6348  1261  2A68               	goto	l755
  6349  1262                     u3540:	
  6350  1262                     l2561:	
  6351  1262  082F               	movf	__Umul8_16@word_mpld,w
  6352  1263  07AD               	addwf	__Umul8_16@product,f
  6353  1264  1803               	skipnc
  6354  1265  0AAE               	incf	__Umul8_16@product+1,f
  6355  1266  0830               	movf	__Umul8_16@word_mpld+1,w
  6356  1267  07AE               	addwf	__Umul8_16@product+1,f
  6357  1268                     l755:	
  6358  1268  3001               	movlw	1
  6359  1269                     u3555:	
  6360  1269  1003               	clrc
  6361  126A  0DAF               	rlf	__Umul8_16@word_mpld,f
  6362  126B  0DB0               	rlf	__Umul8_16@word_mpld+1,f
  6363  126C  3EFF               	addlw	-1
  6364  126D  1D03               	skipz
  6365  126E  2A69               	goto	u3555
  6366  126F  1003               	clrc
  6367  1270  0CB1               	rrf	__Umul8_16@multiplier,f
  6368  1271                     l2563:	
  6369  1271  0831               	movf	__Umul8_16@multiplier,w
  6370  1272  1D03               	btfss	3,2
  6371  1273  2A75               	goto	u3561
  6372  1274  2A76               	goto	u3560
  6373  1275                     u3561:	
  6374  1275  2A5E               	goto	l2559
  6375  1276                     u3560:	
  6376  1276                     l2565:	
  6377  1276  082E               	movf	__Umul8_16@product+1,w
  6378  1277  00AA               	movwf	?__Umul8_16+1
  6379  1278  082D               	movf	__Umul8_16@product,w
  6380  1279  00A9               	movwf	?__Umul8_16
  6381  127A                     l757:	
  6382  127A  0008               	return
  6383  127B                     __end_of__Umul8_16:	
  6384                           
  6385                           	psect	text14
  6386  1482                     __ptext14:	
  6387 ;; *************** function ___fladd *****************
  6388 ;; Defined at:
  6389 ;;		line 10 in file "D:\Program Files (x86)\Microchip\xc8\v2.10\pic\sources\c90\common\sprcadd.c"
  6390 ;; Parameters:    Size  Location     Type
  6391 ;;  b               4   13[BANK1 ] unsigned int 
  6392 ;;  a               4   17[BANK1 ] unsigned int 
  6393 ;; Auto vars:     Size  Location     Type
  6394 ;;  grs             1   64[BANK0 ] unsigned char 
  6395 ;;  bexp            1   63[BANK0 ] unsigned char 
  6396 ;;  aexp            1   62[BANK0 ] unsigned char 
  6397 ;;  signs           1   61[BANK0 ] unsigned char 
  6398 ;; Return value:  Size  Location     Type
  6399 ;;                  4   13[BANK1 ] unsigned char 
  6400 ;; Registers used:
  6401 ;;		wreg, status,2, status,0, btemp+1
  6402 ;; Tracked objects:
  6403 ;;		On entry : 0/0
  6404 ;;		On exit  : 0/0
  6405 ;;		Unchanged: 0/0
  6406 ;; Data sizes:     COMMON   BANK0   BANK1   BANK3   BANK2
  6407 ;;      Params:         0       0       8       0       0
  6408 ;;      Locals:         0       4       0       0       0
  6409 ;;      Temps:          0       8       0       0       0
  6410 ;;      Totals:         0      12       8       0       0
  6411 ;;Total ram usage:       20 bytes
  6412 ;; Hardware stack levels used:    1
  6413 ;; Hardware stack levels required when called:    2
  6414 ;; This function calls:
  6415 ;;		Nothing
  6416 ;; This function is called by:
  6417 ;;		_tarar
  6418 ;;		_main
  6419 ;;		___flsub
  6420 ;; This function uses a non-reentrant model
  6421 ;;
  6422                           
  6423                           
  6424                           ;psect for function ___fladd
  6425  1482                     ___fladd:	
  6426  1482                     l2569:	
  6427                           ;incstack = 0
  6428                           ; Regs used in ___fladd: [wreg+status,2+status,0+btemp+1]
  6429                           
  6430  1482  1683               	bsf	3,5	;RP0=1, select bank1
  6431  1483  1303               	bcf	3,6	;RP1=0, select bank1
  6432  1484  0830               	movf	(___fladd@b^(0+128)+3),w
  6433  1485  3980               	andlw	128
  6434  1486  1283               	bcf	3,5	;RP0=0, select bank0
  6435  1487  1303               	bcf	3,6	;RP1=0, select bank0
  6436  1488  00D5               	movwf	??___fladd
  6437  1489  0855               	movf	??___fladd,w
  6438  148A  00DD               	movwf	___fladd@signs
  6439  148B                     l2571:	
  6440  148B  1683               	bsf	3,5	;RP0=1, select bank1
  6441  148C  1303               	bcf	3,6	;RP1=0, select bank1
  6442  148D  0830               	movf	(___fladd@b^(0+128)+3),w
  6443  148E  1283               	bcf	3,5	;RP0=0, select bank0
  6444  148F  1303               	bcf	3,6	;RP1=0, select bank0
  6445  1490  00D5               	movwf	??___fladd
  6446  1491  0755               	addwf	??___fladd,w
  6447  1492  00D6               	movwf	??___fladd+1
  6448  1493  0856               	movf	??___fladd+1,w
  6449  1494  00DF               	movwf	___fladd@bexp
  6450  1495                     l2573:	
  6451  1495  1683               	bsf	3,5	;RP0=1, select bank1
  6452  1496  1303               	bcf	3,6	;RP1=0, select bank1
  6453  1497  1FAF               	btfss	(___fladd@b^(0+128)+2),7
  6454  1498  2C9A               	goto	u3571
  6455  1499  2C9B               	goto	u3570
  6456  149A                     u3571:	
  6457  149A  2C9E               	goto	l2577
  6458  149B                     u3570:	
  6459  149B                     l2575:	
  6460  149B  1283               	bcf	3,5	;RP0=0, select bank0
  6461  149C  1303               	bcf	3,6	;RP1=0, select bank0
  6462  149D  145F               	bsf	___fladd@bexp,0
  6463  149E                     l2577:	
  6464  149E  1283               	bcf	3,5	;RP0=0, select bank0
  6465  149F  085F               	movf	___fladd@bexp,w
  6466  14A0  1903               	btfsc	3,2
  6467  14A1  2CA3               	goto	u3581
  6468  14A2  2CA4               	goto	u3580
  6469  14A3                     u3581:	
  6470  14A3  2CB8               	goto	l2587
  6471  14A4                     u3580:	
  6472  14A4                     l2579:	
  6473  14A4  0A5F               	incf	___fladd@bexp,w
  6474  14A5  1D03               	btfss	3,2
  6475  14A6  2CA8               	goto	u3591
  6476  14A7  2CA9               	goto	u3590
  6477  14A8                     u3591:	
  6478  14A8  2CB3               	goto	l2583
  6479  14A9                     u3590:	
  6480  14A9                     l2581:	
  6481  14A9  3000               	movlw	0
  6482  14AA  1683               	bsf	3,5	;RP0=1, select bank1
  6483  14AB  1303               	bcf	3,6	;RP1=0, select bank1
  6484  14AC  00B0               	movwf	(___fladd@b+3)^(0+128)
  6485  14AD  3000               	movlw	0
  6486  14AE  00AF               	movwf	(___fladd@b+2)^(0+128)
  6487  14AF  3000               	movlw	0
  6488  14B0  00AE               	movwf	(___fladd@b+1)^(0+128)
  6489  14B1  3000               	movlw	0
  6490  14B2  00AD               	movwf	___fladd@b^(0+128)
  6491  14B3                     l2583:	
  6492  14B3  1683               	bsf	3,5	;RP0=1, select bank1
  6493  14B4  1303               	bcf	3,6	;RP1=0, select bank1
  6494  14B5  17AF               	bsf	(___fladd@b^(0+128)+2),7
  6495  14B6                     l2585:	
  6496  14B6  01B0               	clrf	(___fladd@b^(0+128)+3)
  6497  14B7  2CC2               	goto	l2589
  6498  14B8                     l2587:	
  6499  14B8  3000               	movlw	0
  6500  14B9  1683               	bsf	3,5	;RP0=1, select bank1
  6501  14BA  1303               	bcf	3,6	;RP1=0, select bank1
  6502  14BB  00B0               	movwf	(___fladd@b+3)^(0+128)
  6503  14BC  3000               	movlw	0
  6504  14BD  00AF               	movwf	(___fladd@b+2)^(0+128)
  6505  14BE  3000               	movlw	0
  6506  14BF  00AE               	movwf	(___fladd@b+1)^(0+128)
  6507  14C0  3000               	movlw	0
  6508  14C1  00AD               	movwf	___fladd@b^(0+128)
  6509  14C2                     l2589:	
  6510  14C2  0834               	movf	(___fladd@a^(0+128)+3),w
  6511  14C3  3980               	andlw	128
  6512  14C4  1283               	bcf	3,5	;RP0=0, select bank0
  6513  14C5  1303               	bcf	3,6	;RP1=0, select bank0
  6514  14C6  00D5               	movwf	??___fladd
  6515  14C7  0855               	movf	??___fladd,w
  6516  14C8  00DE               	movwf	___fladd@aexp
  6517  14C9                     l2591:	
  6518  14C9  085E               	movf	___fladd@aexp,w
  6519  14CA  065D               	xorwf	___fladd@signs,w
  6520  14CB  1903               	skipnz
  6521  14CC  2CCE               	goto	u3601
  6522  14CD  2CCF               	goto	u3600
  6523  14CE                     u3601:	
  6524  14CE  2CD0               	goto	l2595
  6525  14CF                     u3600:	
  6526  14CF                     l2593:	
  6527  14CF  175D               	bsf	___fladd@signs,6
  6528  14D0                     l2595:	
  6529  14D0  1683               	bsf	3,5	;RP0=1, select bank1
  6530  14D1  1303               	bcf	3,6	;RP1=0, select bank1
  6531  14D2  0834               	movf	(___fladd@a^(0+128)+3),w
  6532  14D3  1283               	bcf	3,5	;RP0=0, select bank0
  6533  14D4  1303               	bcf	3,6	;RP1=0, select bank0
  6534  14D5  00D5               	movwf	??___fladd
  6535  14D6  0755               	addwf	??___fladd,w
  6536  14D7  00D6               	movwf	??___fladd+1
  6537  14D8  0856               	movf	??___fladd+1,w
  6538  14D9  00DE               	movwf	___fladd@aexp
  6539  14DA                     l2597:	
  6540  14DA  1683               	bsf	3,5	;RP0=1, select bank1
  6541  14DB  1303               	bcf	3,6	;RP1=0, select bank1
  6542  14DC  1FB3               	btfss	(___fladd@a^(0+128)+2),7
  6543  14DD  2CDF               	goto	u3611
  6544  14DE  2CE0               	goto	u3610
  6545  14DF                     u3611:	
  6546  14DF  2CE3               	goto	l2601
  6547  14E0                     u3610:	
  6548  14E0                     l2599:	
  6549  14E0  1283               	bcf	3,5	;RP0=0, select bank0
  6550  14E1  1303               	bcf	3,6	;RP1=0, select bank0
  6551  14E2  145E               	bsf	___fladd@aexp,0
  6552  14E3                     l2601:	
  6553  14E3  1283               	bcf	3,5	;RP0=0, select bank0
  6554  14E4  085E               	movf	___fladd@aexp,w
  6555  14E5  1903               	btfsc	3,2
  6556  14E6  2CE8               	goto	u3621
  6557  14E7  2CE9               	goto	u3620
  6558  14E8                     u3621:	
  6559  14E8  2CFD               	goto	l2611
  6560  14E9                     u3620:	
  6561  14E9                     l2603:	
  6562  14E9  0A5E               	incf	___fladd@aexp,w
  6563  14EA  1D03               	btfss	3,2
  6564  14EB  2CED               	goto	u3631
  6565  14EC  2CEE               	goto	u3630
  6566  14ED                     u3631:	
  6567  14ED  2CF8               	goto	l2607
  6568  14EE                     u3630:	
  6569  14EE                     l2605:	
  6570  14EE  3000               	movlw	0
  6571  14EF  1683               	bsf	3,5	;RP0=1, select bank1
  6572  14F0  1303               	bcf	3,6	;RP1=0, select bank1
  6573  14F1  00B4               	movwf	(___fladd@a+3)^(0+128)
  6574  14F2  3000               	movlw	0
  6575  14F3  00B3               	movwf	(___fladd@a+2)^(0+128)
  6576  14F4  3000               	movlw	0
  6577  14F5  00B2               	movwf	(___fladd@a+1)^(0+128)
  6578  14F6  3000               	movlw	0
  6579  14F7  00B1               	movwf	___fladd@a^(0+128)
  6580  14F8                     l2607:	
  6581  14F8  1683               	bsf	3,5	;RP0=1, select bank1
  6582  14F9  1303               	bcf	3,6	;RP1=0, select bank1
  6583  14FA  17B3               	bsf	(___fladd@a^(0+128)+2),7
  6584  14FB                     l2609:	
  6585  14FB  01B4               	clrf	(___fladd@a^(0+128)+3)
  6586  14FC  2D07               	goto	l602
  6587  14FD                     l2611:	
  6588  14FD  3000               	movlw	0
  6589  14FE  1683               	bsf	3,5	;RP0=1, select bank1
  6590  14FF  1303               	bcf	3,6	;RP1=0, select bank1
  6591  1500  00B4               	movwf	(___fladd@a+3)^(0+128)
  6592  1501  3000               	movlw	0
  6593  1502  00B3               	movwf	(___fladd@a+2)^(0+128)
  6594  1503  3000               	movlw	0
  6595  1504  00B2               	movwf	(___fladd@a+1)^(0+128)
  6596  1505  3000               	movlw	0
  6597  1506  00B1               	movwf	___fladd@a^(0+128)
  6598  1507                     l602:	
  6599  1507  1283               	bcf	3,5	;RP0=0, select bank0
  6600  1508  1303               	bcf	3,6	;RP1=0, select bank0
  6601  1509  085F               	movf	___fladd@bexp,w
  6602  150A  025E               	subwf	___fladd@aexp,w
  6603  150B  1803               	skipnc
  6604  150C  2D0E               	goto	u3641
  6605  150D  2D0F               	goto	u3640
  6606  150E                     u3641:	
  6607  150E  2D85               	goto	l2647
  6608  150F                     u3640:	
  6609  150F                     l2613:	
  6610  150F  1F5D               	btfss	___fladd@signs,6
  6611  1510  2D12               	goto	u3651
  6612  1511  2D13               	goto	u3650
  6613  1512                     u3651:	
  6614  1512  2D17               	goto	l2617
  6615  1513                     u3650:	
  6616  1513                     l2615:	
  6617  1513  3080               	movlw	128
  6618  1514  00D5               	movwf	??___fladd
  6619  1515  0855               	movf	??___fladd,w
  6620  1516  06DD               	xorwf	___fladd@signs,f
  6621  1517                     l2617:	
  6622  1517  085F               	movf	___fladd@bexp,w
  6623  1518  00D5               	movwf	??___fladd
  6624  1519  0855               	movf	??___fladd,w
  6625  151A  00E0               	movwf	___fladd@grs
  6626  151B                     l2619:	
  6627  151B  085E               	movf	___fladd@aexp,w
  6628  151C  00D5               	movwf	??___fladd
  6629  151D  0855               	movf	??___fladd,w
  6630  151E  00DF               	movwf	___fladd@bexp
  6631  151F                     l2621:	
  6632  151F  0860               	movf	___fladd@grs,w
  6633  1520  00D5               	movwf	??___fladd
  6634  1521  0855               	movf	??___fladd,w
  6635  1522  00DE               	movwf	___fladd@aexp
  6636  1523                     l2623:	
  6637  1523  1683               	bsf	3,5	;RP0=1, select bank1
  6638  1524  1303               	bcf	3,6	;RP1=0, select bank1
  6639  1525  082D               	movf	___fladd@b^(0+128),w
  6640  1526  1283               	bcf	3,5	;RP0=0, select bank0
  6641  1527  1303               	bcf	3,6	;RP1=0, select bank0
  6642  1528  00D5               	movwf	??___fladd
  6643  1529  0855               	movf	??___fladd,w
  6644  152A  00E0               	movwf	___fladd@grs
  6645  152B                     l2625:	
  6646  152B  1683               	bsf	3,5	;RP0=1, select bank1
  6647  152C  1303               	bcf	3,6	;RP1=0, select bank1
  6648  152D  0831               	movf	___fladd@a^(0+128),w
  6649  152E  1283               	bcf	3,5	;RP0=0, select bank0
  6650  152F  1303               	bcf	3,6	;RP1=0, select bank0
  6651  1530  00D5               	movwf	??___fladd
  6652  1531  0855               	movf	??___fladd,w
  6653  1532  1683               	bsf	3,5	;RP0=1, select bank1
  6654  1533  1303               	bcf	3,6	;RP1=0, select bank1
  6655  1534  00AD               	movwf	___fladd@b^(0+128)
  6656  1535                     l2627:	
  6657  1535  1283               	bcf	3,5	;RP0=0, select bank0
  6658  1536  1303               	bcf	3,6	;RP1=0, select bank0
  6659  1537  0860               	movf	___fladd@grs,w
  6660  1538  00D5               	movwf	??___fladd
  6661  1539  0855               	movf	??___fladd,w
  6662  153A  1683               	bsf	3,5	;RP0=1, select bank1
  6663  153B  1303               	bcf	3,6	;RP1=0, select bank1
  6664  153C  00B1               	movwf	___fladd@a^(0+128)
  6665  153D                     l2629:	
  6666  153D  082E               	movf	(___fladd@b^(0+128)+1),w
  6667  153E  1283               	bcf	3,5	;RP0=0, select bank0
  6668  153F  1303               	bcf	3,6	;RP1=0, select bank0
  6669  1540  00D5               	movwf	??___fladd
  6670  1541  0855               	movf	??___fladd,w
  6671  1542  00E0               	movwf	___fladd@grs
  6672  1543                     l2631:	
  6673  1543  1683               	bsf	3,5	;RP0=1, select bank1
  6674  1544  1303               	bcf	3,6	;RP1=0, select bank1
  6675  1545  0832               	movf	(___fladd@a^(0+128)+1),w
  6676  1546  1283               	bcf	3,5	;RP0=0, select bank0
  6677  1547  1303               	bcf	3,6	;RP1=0, select bank0
  6678  1548  00D5               	movwf	??___fladd
  6679  1549  0855               	movf	??___fladd,w
  6680  154A  1683               	bsf	3,5	;RP0=1, select bank1
  6681  154B  1303               	bcf	3,6	;RP1=0, select bank1
  6682  154C  00AE               	movwf	(___fladd@b^(0+128)+1)
  6683  154D                     l2633:	
  6684  154D  1283               	bcf	3,5	;RP0=0, select bank0
  6685  154E  1303               	bcf	3,6	;RP1=0, select bank0
  6686  154F  0860               	movf	___fladd@grs,w
  6687  1550  00D5               	movwf	??___fladd
  6688  1551  0855               	movf	??___fladd,w
  6689  1552  1683               	bsf	3,5	;RP0=1, select bank1
  6690  1553  1303               	bcf	3,6	;RP1=0, select bank1
  6691  1554  00B2               	movwf	(___fladd@a^(0+128)+1)
  6692  1555                     l2635:	
  6693  1555  082F               	movf	(___fladd@b^(0+128)+2),w
  6694  1556  1283               	bcf	3,5	;RP0=0, select bank0
  6695  1557  1303               	bcf	3,6	;RP1=0, select bank0
  6696  1558  00D5               	movwf	??___fladd
  6697  1559  0855               	movf	??___fladd,w
  6698  155A  00E0               	movwf	___fladd@grs
  6699  155B                     l2637:	
  6700  155B  1683               	bsf	3,5	;RP0=1, select bank1
  6701  155C  1303               	bcf	3,6	;RP1=0, select bank1
  6702  155D  0833               	movf	(___fladd@a^(0+128)+2),w
  6703  155E  1283               	bcf	3,5	;RP0=0, select bank0
  6704  155F  1303               	bcf	3,6	;RP1=0, select bank0
  6705  1560  00D5               	movwf	??___fladd
  6706  1561  0855               	movf	??___fladd,w
  6707  1562  1683               	bsf	3,5	;RP0=1, select bank1
  6708  1563  1303               	bcf	3,6	;RP1=0, select bank1
  6709  1564  00AF               	movwf	(___fladd@b^(0+128)+2)
  6710  1565                     l2639:	
  6711  1565  1283               	bcf	3,5	;RP0=0, select bank0
  6712  1566  1303               	bcf	3,6	;RP1=0, select bank0
  6713  1567  0860               	movf	___fladd@grs,w
  6714  1568  00D5               	movwf	??___fladd
  6715  1569  0855               	movf	??___fladd,w
  6716  156A  1683               	bsf	3,5	;RP0=1, select bank1
  6717  156B  1303               	bcf	3,6	;RP1=0, select bank1
  6718  156C  00B3               	movwf	(___fladd@a^(0+128)+2)
  6719  156D                     l2641:	
  6720  156D  0830               	movf	(___fladd@b^(0+128)+3),w
  6721  156E  1283               	bcf	3,5	;RP0=0, select bank0
  6722  156F  1303               	bcf	3,6	;RP1=0, select bank0
  6723  1570  00D5               	movwf	??___fladd
  6724  1571  0855               	movf	??___fladd,w
  6725  1572  00E0               	movwf	___fladd@grs
  6726  1573                     l2643:	
  6727  1573  1683               	bsf	3,5	;RP0=1, select bank1
  6728  1574  1303               	bcf	3,6	;RP1=0, select bank1
  6729  1575  0834               	movf	(___fladd@a^(0+128)+3),w
  6730  1576  1283               	bcf	3,5	;RP0=0, select bank0
  6731  1577  1303               	bcf	3,6	;RP1=0, select bank0
  6732  1578  00D5               	movwf	??___fladd
  6733  1579  0855               	movf	??___fladd,w
  6734  157A  1683               	bsf	3,5	;RP0=1, select bank1
  6735  157B  1303               	bcf	3,6	;RP1=0, select bank1
  6736  157C  00B0               	movwf	(___fladd@b^(0+128)+3)
  6737  157D                     l2645:	
  6738  157D  1283               	bcf	3,5	;RP0=0, select bank0
  6739  157E  1303               	bcf	3,6	;RP1=0, select bank0
  6740  157F  0860               	movf	___fladd@grs,w
  6741  1580  00D5               	movwf	??___fladd
  6742  1581  0855               	movf	??___fladd,w
  6743  1582  1683               	bsf	3,5	;RP0=1, select bank1
  6744  1583  1303               	bcf	3,6	;RP1=0, select bank1
  6745  1584  00B4               	movwf	(___fladd@a^(0+128)+3)
  6746  1585                     l2647:	
  6747  1585  1283               	bcf	3,5	;RP0=0, select bank0
  6748  1586  01E0               	clrf	___fladd@grs
  6749  1587                     l2649:	
  6750  1587  085E               	movf	___fladd@aexp,w
  6751  1588  00D5               	movwf	??___fladd
  6752  1589  01D6               	clrf	??___fladd+1
  6753  158A  0856               	movf	??___fladd+1,w
  6754  158B  00D8               	movwf	??___fladd+3
  6755  158C  085F               	movf	___fladd@bexp,w
  6756  158D  0255               	subwf	??___fladd,w
  6757  158E  00D7               	movwf	??___fladd+2
  6758  158F  1C03               	skipc
  6759  1590  03D8               	decf	??___fladd+3,f
  6760  1591  0858               	movf	??___fladd+3,w
  6761  1592  3A80               	xorlw	128
  6762  1593  00FF               	movwf	btemp+1
  6763  1594  3080               	movlw	128
  6764  1595  027F               	subwf	btemp+1,w
  6765  1596  1D03               	skipz
  6766  1597  2D9A               	goto	u3665
  6767  1598  301A               	movlw	26
  6768  1599  0257               	subwf	??___fladd+2,w
  6769  159A                     u3665:	
  6770  159A  1C03               	skipc
  6771  159B  2D9D               	goto	u3661
  6772  159C  2D9E               	goto	u3660
  6773  159D                     u3661:	
  6774  159D  2DEA               	goto	l2665
  6775  159E                     u3660:	
  6776  159E                     l2651:	
  6777  159E  1683               	bsf	3,5	;RP0=1, select bank1
  6778  159F  1303               	bcf	3,6	;RP1=0, select bank1
  6779  15A0  0830               	movf	(___fladd@b+3)^(0+128),w
  6780  15A1  042F               	iorwf	(___fladd@b+2)^(0+128),w
  6781  15A2  042E               	iorwf	(___fladd@b+1)^(0+128),w
  6782  15A3  042D               	iorwf	___fladd@b^(0+128),w
  6783  15A4  1D03               	skipz
  6784  15A5  2DA7               	goto	u3671
  6785  15A6  2DA9               	goto	u3670
  6786  15A7                     u3671:	
  6787  15A7  3001               	movlw	1
  6788  15A8  2DAA               	goto	u3680
  6789  15A9                     u3670:	
  6790  15A9  3000               	movlw	0
  6791  15AA                     u3680:	
  6792  15AA  1283               	bcf	3,5	;RP0=0, select bank0
  6793  15AB  1303               	bcf	3,6	;RP1=0, select bank0
  6794  15AC  00D5               	movwf	??___fladd
  6795  15AD  0855               	movf	??___fladd,w
  6796  15AE  00E0               	movwf	___fladd@grs
  6797  15AF  3000               	movlw	0
  6798  15B0  1683               	bsf	3,5	;RP0=1, select bank1
  6799  15B1  1303               	bcf	3,6	;RP1=0, select bank1
  6800  15B2  00B0               	movwf	(___fladd@b+3)^(0+128)
  6801  15B3  3000               	movlw	0
  6802  15B4  00AF               	movwf	(___fladd@b+2)^(0+128)
  6803  15B5  3000               	movlw	0
  6804  15B6  00AE               	movwf	(___fladd@b+1)^(0+128)
  6805  15B7  3000               	movlw	0
  6806  15B8  00AD               	movwf	___fladd@b^(0+128)
  6807  15B9  1283               	bcf	3,5	;RP0=0, select bank0
  6808  15BA  1303               	bcf	3,6	;RP1=0, select bank0
  6809  15BB  085E               	movf	___fladd@aexp,w
  6810  15BC  00D5               	movwf	??___fladd
  6811  15BD  0855               	movf	??___fladd,w
  6812  15BE  00DF               	movwf	___fladd@bexp
  6813  15BF  2DF2               	goto	l606
  6814  15C0                     l608:	
  6815  15C0  1C60               	btfss	___fladd@grs,0
  6816  15C1  2DC3               	goto	u3691
  6817  15C2  2DC4               	goto	u3690
  6818  15C3                     u3691:	
  6819  15C3  2DCD               	goto	l2655
  6820  15C4                     u3690:	
  6821  15C4                     l2653:	
  6822  15C4  0860               	movf	___fladd@grs,w
  6823  15C5  00D5               	movwf	??___fladd
  6824  15C6  1003               	clrc
  6825  15C7  0C55               	rrf	??___fladd,w
  6826  15C8  3801               	iorlw	1
  6827  15C9  00D6               	movwf	??___fladd+1
  6828  15CA  0856               	movf	??___fladd+1,w
  6829  15CB  00E0               	movwf	___fladd@grs
  6830  15CC  2DCF               	goto	l2657
  6831  15CD                     l2655:	
  6832  15CD  1003               	clrc
  6833  15CE  0CE0               	rrf	___fladd@grs,f
  6834  15CF                     l2657:	
  6835  15CF  1683               	bsf	3,5	;RP0=1, select bank1
  6836  15D0  1303               	bcf	3,6	;RP1=0, select bank1
  6837  15D1  1C2D               	btfss	___fladd@b^(0+128),0
  6838  15D2  2DD4               	goto	u3701
  6839  15D3  2DD5               	goto	u3700
  6840  15D4                     u3701:	
  6841  15D4  2DD8               	goto	l2661
  6842  15D5                     u3700:	
  6843  15D5                     l2659:	
  6844  15D5  1283               	bcf	3,5	;RP0=0, select bank0
  6845  15D6  1303               	bcf	3,6	;RP1=0, select bank0
  6846  15D7  17E0               	bsf	___fladd@grs,7
  6847  15D8                     l2661:	
  6848  15D8  3001               	movlw	1
  6849  15D9  1283               	bcf	3,5	;RP0=0, select bank0
  6850  15DA  00D5               	movwf	??___fladd
  6851  15DB                     u3715:	
  6852  15DB  1683               	bsf	3,5	;RP0=1, select bank1
  6853  15DC  1303               	bcf	3,6	;RP1=0, select bank1
  6854  15DD  0D30               	rlf	(___fladd@b+3)^(0+128),w
  6855  15DE  0CB0               	rrf	(___fladd@b+3)^(0+128),f
  6856  15DF  0CAF               	rrf	(___fladd@b+2)^(0+128),f
  6857  15E0  0CAE               	rrf	(___fladd@b+1)^(0+128),f
  6858  15E1  0CAD               	rrf	___fladd@b^(0+128),f
  6859  15E2  1283               	bcf	3,5	;RP0=0, select bank0
  6860  15E3  1303               	bcf	3,6	;RP1=0, select bank0
  6861  15E4  0BD5               	decfsz	??___fladd& (0+127),f
  6862  15E5  2DDB               	goto	u3715
  6863  15E6                     l2663:	
  6864  15E6  3001               	movlw	1
  6865  15E7  00D5               	movwf	??___fladd
  6866  15E8  0855               	movf	??___fladd,w
  6867  15E9  07DF               	addwf	___fladd@bexp,f
  6868  15EA                     l2665:	
  6869  15EA  1283               	bcf	3,5	;RP0=0, select bank0
  6870  15EB  1303               	bcf	3,6	;RP1=0, select bank0
  6871  15EC  085E               	movf	___fladd@aexp,w
  6872  15ED  025F               	subwf	___fladd@bexp,w
  6873  15EE  1C03               	skipc
  6874  15EF  2DF1               	goto	u3721
  6875  15F0  2DF2               	goto	u3720
  6876  15F1                     u3721:	
  6877  15F1  2DC0               	goto	l608
  6878  15F2                     u3720:	
  6879  15F2                     l606:	
  6880  15F2  1B5D               	btfsc	___fladd@signs,6
  6881  15F3  2DF5               	goto	u3731
  6882  15F4  2DF6               	goto	u3730
  6883  15F5                     u3731:	
  6884  15F5  2E50               	goto	l2691
  6885  15F6                     u3730:	
  6886  15F6                     l2667:	
  6887  15F6  085F               	movf	___fladd@bexp,w
  6888  15F7  1D03               	btfss	3,2
  6889  15F8  2DFA               	goto	u3741
  6890  15F9  2DFB               	goto	u3740
  6891  15FA                     u3741:	
  6892  15FA  2E06               	goto	l2673
  6893  15FB                     u3740:	
  6894  15FB                     l2669:	
  6895  15FB  3000               	movlw	0
  6896  15FC  1683               	bsf	3,5	;RP0=1, select bank1
  6897  15FD  1303               	bcf	3,6	;RP1=0, select bank1
  6898  15FE  00B0               	movwf	(?___fladd+3)^(0+128)
  6899  15FF  3000               	movlw	0
  6900  1600  00AF               	movwf	(?___fladd+2)^(0+128)
  6901  1601  3000               	movlw	0
  6902  1602  00AE               	movwf	(?___fladd+1)^(0+128)
  6903  1603  3000               	movlw	0
  6904  1604  00AD               	movwf	?___fladd^(0+128)
  6905  1605  2FFF               	goto	l615
  6906  1606                     l2673:	
  6907  1606  1683               	bsf	3,5	;RP0=1, select bank1
  6908  1607  1303               	bcf	3,6	;RP1=0, select bank1
  6909  1608  0831               	movf	___fladd@a^(0+128),w
  6910  1609  07AD               	addwf	___fladd@b^(0+128),f
  6911  160A  0832               	movf	(___fladd@a+1)^(0+128),w
  6912  160B  1103               	clrz
  6913  160C  1803               	skipnc
  6914  160D  3E01               	addlw	1
  6915  160E  1903               	skipnz
  6916  160F  2E11               	goto	u3751
  6917  1610  07AE               	addwf	(___fladd@b+1)^(0+128),f
  6918  1611                     u3751:	
  6919  1611  0833               	movf	(___fladd@a+2)^(0+128),w
  6920  1612  1103               	clrz
  6921  1613  1803               	skipnc
  6922  1614  3E01               	addlw	1
  6923  1615  1903               	skipnz
  6924  1616  2E18               	goto	u3752
  6925  1617  07AF               	addwf	(___fladd@b+2)^(0+128),f
  6926  1618                     u3752:	
  6927  1618  0834               	movf	(___fladd@a+3)^(0+128),w
  6928  1619  1103               	clrz
  6929  161A  1803               	skipnc
  6930  161B  3E01               	addlw	1
  6931  161C  1903               	skipnz
  6932  161D  2E1F               	goto	u3753
  6933  161E  07B0               	addwf	(___fladd@b+3)^(0+128),f
  6934  161F                     u3753:	
  6935  161F                     l2675:	
  6936  161F  1C30               	btfss	(___fladd@b+3)^(0+128),0
  6937  1620  2E22               	goto	u3761
  6938  1621  2E23               	goto	u3760
  6939  1622                     u3761:	
  6940  1622  2F4F               	goto	l2725
  6941  1623                     u3760:	
  6942  1623                     l2677:	
  6943  1623  1283               	bcf	3,5	;RP0=0, select bank0
  6944  1624  1303               	bcf	3,6	;RP1=0, select bank0
  6945  1625  1C60               	btfss	___fladd@grs,0
  6946  1626  2E28               	goto	u3771
  6947  1627  2E29               	goto	u3770
  6948  1628                     u3771:	
  6949  1628  2E32               	goto	l2681
  6950  1629                     u3770:	
  6951  1629                     l2679:	
  6952  1629  0860               	movf	___fladd@grs,w
  6953  162A  00D5               	movwf	??___fladd
  6954  162B  1003               	clrc
  6955  162C  0C55               	rrf	??___fladd,w
  6956  162D  3801               	iorlw	1
  6957  162E  00D6               	movwf	??___fladd+1
  6958  162F  0856               	movf	??___fladd+1,w
  6959  1630  00E0               	movwf	___fladd@grs
  6960  1631  2E34               	goto	l2683
  6961  1632                     l2681:	
  6962  1632  1003               	clrc
  6963  1633  0CE0               	rrf	___fladd@grs,f
  6964  1634                     l2683:	
  6965  1634  1683               	bsf	3,5	;RP0=1, select bank1
  6966  1635  1303               	bcf	3,6	;RP1=0, select bank1
  6967  1636  1C2D               	btfss	___fladd@b^(0+128),0
  6968  1637  2E39               	goto	u3781
  6969  1638  2E3A               	goto	u3780
  6970  1639                     u3781:	
  6971  1639  2E3D               	goto	l2687
  6972  163A                     u3780:	
  6973  163A                     l2685:	
  6974  163A  1283               	bcf	3,5	;RP0=0, select bank0
  6975  163B  1303               	bcf	3,6	;RP1=0, select bank0
  6976  163C  17E0               	bsf	___fladd@grs,7
  6977  163D                     l2687:	
  6978  163D  3001               	movlw	1
  6979  163E  1283               	bcf	3,5	;RP0=0, select bank0
  6980  163F  00D5               	movwf	??___fladd
  6981  1640                     u3795:	
  6982  1640  1683               	bsf	3,5	;RP0=1, select bank1
  6983  1641  1303               	bcf	3,6	;RP1=0, select bank1
  6984  1642  0D30               	rlf	(___fladd@b+3)^(0+128),w
  6985  1643  0CB0               	rrf	(___fladd@b+3)^(0+128),f
  6986  1644  0CAF               	rrf	(___fladd@b+2)^(0+128),f
  6987  1645  0CAE               	rrf	(___fladd@b+1)^(0+128),f
  6988  1646  0CAD               	rrf	___fladd@b^(0+128),f
  6989  1647  1283               	bcf	3,5	;RP0=0, select bank0
  6990  1648  1303               	bcf	3,6	;RP1=0, select bank0
  6991  1649  0BD5               	decfsz	??___fladd& (0+127),f
  6992  164A  2E40               	goto	u3795
  6993  164B                     l2689:	
  6994  164B  3001               	movlw	1
  6995  164C  00D5               	movwf	??___fladd
  6996  164D  0855               	movf	??___fladd,w
  6997  164E  07DF               	addwf	___fladd@bexp,f
  6998  164F  2F4F               	goto	l2725
  6999  1650                     l2691:	
  7000  1650  1683               	bsf	3,5	;RP0=1, select bank1
  7001  1651  1303               	bcf	3,6	;RP1=0, select bank1
  7002  1652  0830               	movf	(___fladd@b+3)^(0+128),w
  7003  1653  3A80               	xorlw	128
  7004  1654  00FF               	movwf	btemp+1
  7005  1655  0834               	movf	(___fladd@a+3)^(0+128),w
  7006  1656  3A80               	xorlw	128
  7007  1657  027F               	subwf	btemp+1,w
  7008  1658  1D03               	skipz
  7009  1659  2E64               	goto	u3803
  7010  165A  0833               	movf	(___fladd@a+2)^(0+128),w
  7011  165B  022F               	subwf	(___fladd@b+2)^(0+128),w
  7012  165C  1D03               	skipz
  7013  165D  2E64               	goto	u3803
  7014  165E  0832               	movf	(___fladd@a+1)^(0+128),w
  7015  165F  022E               	subwf	(___fladd@b+1)^(0+128),w
  7016  1660  1D03               	skipz
  7017  1661  2E64               	goto	u3803
  7018  1662  0831               	movf	___fladd@a^(0+128),w
  7019  1663  022D               	subwf	___fladd@b^(0+128),w
  7020  1664                     u3803:	
  7021  1664  1803               	skipnc
  7022  1665  2E67               	goto	u3801
  7023  1666  2E68               	goto	u3800
  7024  1667                     u3801:	
  7025  1667  2EF8               	goto	l2701
  7026  1668                     u3800:	
  7027  1668                     l2693:	
  7028  1668  30FF               	movlw	255
  7029  1669  1283               	bcf	3,5	;RP0=0, select bank0
  7030  166A  1303               	bcf	3,6	;RP1=0, select bank0
  7031  166B  00D5               	movwf	??___fladd
  7032  166C  30FF               	movlw	255
  7033  166D  00D6               	movwf	??___fladd+1
  7034  166E  30FF               	movlw	255
  7035  166F  00D7               	movwf	??___fladd+2
  7036  1670  30FF               	movlw	255
  7037  1671  00D8               	movwf	??___fladd+3
  7038  1672  1683               	bsf	3,5	;RP0=1, select bank1
  7039  1673  1303               	bcf	3,6	;RP1=0, select bank1
  7040  1674  0831               	movf	___fladd@a^(0+128),w
  7041  1675  1283               	bcf	3,5	;RP0=0, select bank0
  7042  1676  1303               	bcf	3,6	;RP1=0, select bank0
  7043  1677  00D9               	movwf	??___fladd+4
  7044  1678  1683               	bsf	3,5	;RP0=1, select bank1
  7045  1679  1303               	bcf	3,6	;RP1=0, select bank1
  7046  167A  0832               	movf	(___fladd@a+1)^(0+128),w
  7047  167B  1283               	bcf	3,5	;RP0=0, select bank0
  7048  167C  1303               	bcf	3,6	;RP1=0, select bank0
  7049  167D  00DA               	movwf	??___fladd+5
  7050  167E  1683               	bsf	3,5	;RP0=1, select bank1
  7051  167F  1303               	bcf	3,6	;RP1=0, select bank1
  7052  1680  0833               	movf	(___fladd@a+2)^(0+128),w
  7053  1681  1283               	bcf	3,5	;RP0=0, select bank0
  7054  1682  1303               	bcf	3,6	;RP1=0, select bank0
  7055  1683  00DB               	movwf	??___fladd+6
  7056  1684  1683               	bsf	3,5	;RP0=1, select bank1
  7057  1685  1303               	bcf	3,6	;RP1=0, select bank1
  7058  1686  0834               	movf	(___fladd@a+3)^(0+128),w
  7059  1687  1283               	bcf	3,5	;RP0=0, select bank0
  7060  1688  1303               	bcf	3,6	;RP1=0, select bank0
  7061  1689  00DC               	movwf	??___fladd+7
  7062  168A  1683               	bsf	3,5	;RP0=1, select bank1
  7063  168B  1303               	bcf	3,6	;RP1=0, select bank1
  7064  168C  082D               	movf	___fladd@b^(0+128),w
  7065  168D  1283               	bcf	3,5	;RP0=0, select bank0
  7066  168E  1303               	bcf	3,6	;RP1=0, select bank0
  7067  168F  02D9               	subwf	??___fladd+4,f
  7068  1690  1683               	bsf	3,5	;RP0=1, select bank1
  7069  1691  1303               	bcf	3,6	;RP1=0, select bank1
  7070  1692  082E               	movf	(___fladd@b+1)^(0+128),w
  7071  1693  1C03               	skipc
  7072  1694  0F2E               	incfsz	(___fladd@b+1)^(0+128),w
  7073  1695  2E97               	goto	u3811
  7074  1696  2E9A               	goto	u3812
  7075  1697                     u3811:	
  7076  1697  1283               	bcf	3,5	;RP0=0, select bank0
  7077  1698  1303               	bcf	3,6	;RP1=0, select bank0
  7078  1699  02DA               	subwf	??___fladd+5,f
  7079  169A                     u3812:	
  7080  169A  1683               	bsf	3,5	;RP0=1, select bank1
  7081  169B  1303               	bcf	3,6	;RP1=0, select bank1
  7082  169C  082F               	movf	(___fladd@b+2)^(0+128),w
  7083  169D  1C03               	skipc
  7084  169E  0F2F               	incfsz	(___fladd@b+2)^(0+128),w
  7085  169F  2EA1               	goto	u3813
  7086  16A0  2EA4               	goto	u3814
  7087  16A1                     u3813:	
  7088  16A1  1283               	bcf	3,5	;RP0=0, select bank0
  7089  16A2  1303               	bcf	3,6	;RP1=0, select bank0
  7090  16A3  02DB               	subwf	??___fladd+6,f
  7091  16A4                     u3814:	
  7092  16A4  1683               	bsf	3,5	;RP0=1, select bank1
  7093  16A5  1303               	bcf	3,6	;RP1=0, select bank1
  7094  16A6  0830               	movf	(___fladd@b+3)^(0+128),w
  7095  16A7  1C03               	skipc
  7096  16A8  0F30               	incfsz	(___fladd@b+3)^(0+128),w
  7097  16A9  2EAB               	goto	u3815
  7098  16AA  2EAE               	goto	u3816
  7099  16AB                     u3815:	
  7100  16AB  1283               	bcf	3,5	;RP0=0, select bank0
  7101  16AC  1303               	bcf	3,6	;RP1=0, select bank0
  7102  16AD  02DC               	subwf	??___fladd+7,f
  7103  16AE                     u3816:	
  7104  16AE  1683               	bsf	3,5	;RP0=1, select bank1
  7105  16AF  1303               	bcf	3,6	;RP1=0, select bank1
  7106  16B0  1283               	bcf	3,5	;RP0=0, select bank0
  7107  16B1  1303               	bcf	3,6	;RP1=0, select bank0
  7108  16B2  0859               	movf	??___fladd+4,w
  7109  16B3  07D5               	addwf	??___fladd,f
  7110  16B4  085A               	movf	??___fladd+5,w
  7111  16B5  1803               	skipnc
  7112  16B6  0F5A               	incfsz	??___fladd+5,w
  7113  16B7  2EB9               	goto	u3820
  7114  16B8  2EBA               	goto	u3821
  7115  16B9                     u3820:	
  7116  16B9  07D6               	addwf	??___fladd+1,f
  7117  16BA                     u3821:	
  7118  16BA  085B               	movf	??___fladd+6,w
  7119  16BB  1803               	skipnc
  7120  16BC  0F5B               	incfsz	??___fladd+6,w
  7121  16BD  2EBF               	goto	u3822
  7122  16BE  2EC0               	goto	u3823
  7123  16BF                     u3822:	
  7124  16BF  07D7               	addwf	??___fladd+2,f
  7125  16C0                     u3823:	
  7126  16C0  085C               	movf	??___fladd+7,w
  7127  16C1  1803               	skipnc
  7128  16C2  0A5C               	incf	??___fladd+7,w
  7129  16C3  07D8               	addwf	??___fladd+3,f
  7130  16C4  0858               	movf	??___fladd+3,w
  7131  16C5  1683               	bsf	3,5	;RP0=1, select bank1
  7132  16C6  1303               	bcf	3,6	;RP1=0, select bank1
  7133  16C7  00B0               	movwf	(___fladd@b+3)^(0+128)
  7134  16C8  1283               	bcf	3,5	;RP0=0, select bank0
  7135  16C9  1303               	bcf	3,6	;RP1=0, select bank0
  7136  16CA  0857               	movf	??___fladd+2,w
  7137  16CB  1683               	bsf	3,5	;RP0=1, select bank1
  7138  16CC  1303               	bcf	3,6	;RP1=0, select bank1
  7139  16CD  00AF               	movwf	(___fladd@b+2)^(0+128)
  7140  16CE  1283               	bcf	3,5	;RP0=0, select bank0
  7141  16CF  1303               	bcf	3,6	;RP1=0, select bank0
  7142  16D0  0856               	movf	??___fladd+1,w
  7143  16D1  1683               	bsf	3,5	;RP0=1, select bank1
  7144  16D2  1303               	bcf	3,6	;RP1=0, select bank1
  7145  16D3  00AE               	movwf	(___fladd@b+1)^(0+128)
  7146  16D4  1283               	bcf	3,5	;RP0=0, select bank0
  7147  16D5  1303               	bcf	3,6	;RP1=0, select bank0
  7148  16D6  0855               	movf	??___fladd,w
  7149  16D7  1683               	bsf	3,5	;RP0=1, select bank1
  7150  16D8  1303               	bcf	3,6	;RP1=0, select bank1
  7151  16D9  00AD               	movwf	___fladd@b^(0+128)
  7152  16DA                     l2695:	
  7153  16DA  3080               	movlw	128
  7154  16DB  1283               	bcf	3,5	;RP0=0, select bank0
  7155  16DC  1303               	bcf	3,6	;RP1=0, select bank0
  7156  16DD  00D5               	movwf	??___fladd
  7157  16DE  0855               	movf	??___fladd,w
  7158  16DF  06DD               	xorwf	___fladd@signs,f
  7159  16E0  09E0               	comf	___fladd@grs,f
  7160  16E1  0AE0               	incf	___fladd@grs,f
  7161  16E2                     l2697:	
  7162  16E2  0860               	movf	___fladd@grs,w
  7163  16E3  1D03               	btfss	3,2
  7164  16E4  2EE6               	goto	u3831
  7165  16E5  2EE7               	goto	u3830
  7166  16E6                     u3831:	
  7167  16E6  2F06               	goto	l623
  7168  16E7                     u3830:	
  7169  16E7                     l2699:	
  7170  16E7  3001               	movlw	1
  7171  16E8  1683               	bsf	3,5	;RP0=1, select bank1
  7172  16E9  1303               	bcf	3,6	;RP1=0, select bank1
  7173  16EA  07AD               	addwf	___fladd@b^(0+128),f
  7174  16EB  3000               	movlw	0
  7175  16EC  1803               	skipnc
  7176  16ED  3001               	movlw	1
  7177  16EE  07AE               	addwf	(___fladd@b+1)^(0+128),f
  7178  16EF  3000               	movlw	0
  7179  16F0  1803               	skipnc
  7180  16F1  3001               	movlw	1
  7181  16F2  07AF               	addwf	(___fladd@b+2)^(0+128),f
  7182  16F3  3000               	movlw	0
  7183  16F4  1803               	skipnc
  7184  16F5  3001               	movlw	1
  7185  16F6  07B0               	addwf	(___fladd@b+3)^(0+128),f
  7186  16F7  2F06               	goto	l623
  7187  16F8                     l2701:	
  7188  16F8  0831               	movf	___fladd@a^(0+128),w
  7189  16F9  02AD               	subwf	___fladd@b^(0+128),f
  7190  16FA  0832               	movf	(___fladd@a+1)^(0+128),w
  7191  16FB  1C03               	skipc
  7192  16FC  0F32               	incfsz	(___fladd@a+1)^(0+128),w
  7193  16FD  02AE               	subwf	(___fladd@b+1)^(0+128),f
  7194  16FE  0833               	movf	(___fladd@a+2)^(0+128),w
  7195  16FF  1C03               	skipc
  7196  1700  0F33               	incfsz	(___fladd@a+2)^(0+128),w
  7197  1701  02AF               	subwf	(___fladd@b+2)^(0+128),f
  7198  1702  0834               	movf	(___fladd@a+3)^(0+128),w
  7199  1703  1C03               	skipc
  7200  1704  0F34               	incfsz	(___fladd@a+3)^(0+128),w
  7201  1705  02B0               	subwf	(___fladd@b+3)^(0+128),f
  7202  1706                     l623:	
  7203  1706  1683               	bsf	3,5	;RP0=1, select bank1
  7204  1707  1303               	bcf	3,6	;RP1=0, select bank1
  7205  1708  0830               	movf	(___fladd@b+3)^(0+128),w
  7206  1709  042F               	iorwf	(___fladd@b+2)^(0+128),w
  7207  170A  042E               	iorwf	(___fladd@b+1)^(0+128),w
  7208  170B  042D               	iorwf	___fladd@b^(0+128),w
  7209  170C  1D03               	skipz
  7210  170D  2F0F               	goto	u3841
  7211  170E  2F10               	goto	u3840
  7212  170F                     u3841:	
  7213  170F  2F49               	goto	l2723
  7214  1710                     u3840:	
  7215  1710                     l2703:	
  7216  1710  1283               	bcf	3,5	;RP0=0, select bank0
  7217  1711  1303               	bcf	3,6	;RP1=0, select bank0
  7218  1712  0860               	movf	___fladd@grs,w
  7219  1713  1D03               	btfss	3,2
  7220  1714  2F16               	goto	u3851
  7221  1715  2F17               	goto	u3850
  7222  1716                     u3851:	
  7223  1716  2F49               	goto	l2723
  7224  1717                     u3850:	
  7225  1717                     l2705:	
  7226  1717  3000               	movlw	0
  7227  1718  1683               	bsf	3,5	;RP0=1, select bank1
  7228  1719  1303               	bcf	3,6	;RP1=0, select bank1
  7229  171A  00B0               	movwf	(?___fladd+3)^(0+128)
  7230  171B  3000               	movlw	0
  7231  171C  00AF               	movwf	(?___fladd+2)^(0+128)
  7232  171D  3000               	movlw	0
  7233  171E  00AE               	movwf	(?___fladd+1)^(0+128)
  7234  171F  3000               	movlw	0
  7235  1720  00AD               	movwf	?___fladd^(0+128)
  7236  1721  2FFF               	goto	l615
  7237  1722                     l2709:	
  7238  1722  3001               	movlw	1
  7239  1723  1283               	bcf	3,5	;RP0=0, select bank0
  7240  1724  1303               	bcf	3,6	;RP1=0, select bank0
  7241  1725  00D5               	movwf	??___fladd
  7242  1726                     u3865:	
  7243  1726  1003               	clrc
  7244  1727  1683               	bsf	3,5	;RP0=1, select bank1
  7245  1728  1303               	bcf	3,6	;RP1=0, select bank1
  7246  1729  0DAD               	rlf	___fladd@b^(0+128),f
  7247  172A  0DAE               	rlf	(___fladd@b+1)^(0+128),f
  7248  172B  0DAF               	rlf	(___fladd@b+2)^(0+128),f
  7249  172C  0DB0               	rlf	(___fladd@b+3)^(0+128),f
  7250  172D  1283               	bcf	3,5	;RP0=0, select bank0
  7251  172E  1303               	bcf	3,6	;RP1=0, select bank0
  7252  172F  0BD5               	decfsz	??___fladd,f
  7253  1730  2F26               	goto	u3865
  7254  1731                     l2711:	
  7255  1731  1FE0               	btfss	___fladd@grs,7
  7256  1732  2F34               	goto	u3871
  7257  1733  2F35               	goto	u3870
  7258  1734                     u3871:	
  7259  1734  2F38               	goto	l627
  7260  1735                     u3870:	
  7261  1735                     l2713:	
  7262  1735  1683               	bsf	3,5	;RP0=1, select bank1
  7263  1736  1303               	bcf	3,6	;RP1=0, select bank1
  7264  1737  142D               	bsf	___fladd@b^(0+128),0
  7265  1738                     l627:	
  7266  1738  1283               	bcf	3,5	;RP0=0, select bank0
  7267  1739  1C60               	btfss	___fladd@grs,0
  7268  173A  2F3C               	goto	u3881
  7269  173B  2F3D               	goto	u3880
  7270  173C                     u3881:	
  7271  173C  2F40               	goto	l2717
  7272  173D                     u3880:	
  7273  173D                     l2715:	
  7274  173D  1403               	setc
  7275  173E  0DE0               	rlf	___fladd@grs,f
  7276  173F  2F42               	goto	l2719
  7277  1740                     l2717:	
  7278  1740  1003               	clrc
  7279  1741  0DE0               	rlf	___fladd@grs,f
  7280  1742                     l2719:	
  7281  1742  085F               	movf	___fladd@bexp,w
  7282  1743  1903               	btfsc	3,2
  7283  1744  2F46               	goto	u3891
  7284  1745  2F47               	goto	u3890
  7285  1746                     u3891:	
  7286  1746  2F49               	goto	l2723
  7287  1747                     u3890:	
  7288  1747                     l2721:	
  7289  1747  3001               	movlw	1
  7290  1748  02DF               	subwf	___fladd@bexp,f
  7291  1749                     l2723:	
  7292  1749  1683               	bsf	3,5	;RP0=1, select bank1
  7293  174A  1303               	bcf	3,6	;RP1=0, select bank1
  7294  174B  1FAF               	btfss	(___fladd@b+2)^(0+128),7
  7295  174C  2F4E               	goto	u3901
  7296  174D  2F4F               	goto	u3900
  7297  174E                     u3901:	
  7298  174E  2F22               	goto	l2709
  7299  174F                     u3900:	
  7300  174F                     l2725:	
  7301  174F  1283               	bcf	3,5	;RP0=0, select bank0
  7302  1750  01DE               	clrf	___fladd@aexp
  7303  1751                     l2727:	
  7304  1751  1FE0               	btfss	___fladd@grs,7
  7305  1752  2F54               	goto	u3911
  7306  1753  2F55               	goto	u3910
  7307  1754                     u3911:	
  7308  1754  2F66               	goto	l2735
  7309  1755                     u3910:	
  7310  1755                     l2729:	
  7311  1755  0860               	movf	___fladd@grs,w
  7312  1756  397F               	andlw	127
  7313  1757  1903               	btfsc	3,2
  7314  1758  2F5A               	goto	u3921
  7315  1759  2F5B               	goto	u3920
  7316  175A                     u3921:	
  7317  175A  2F5F               	goto	l633
  7318  175B                     u3920:	
  7319  175B                     l2731:	
  7320  175B  1283               	bcf	3,5	;RP0=0, select bank0
  7321  175C  01DE               	clrf	___fladd@aexp
  7322  175D  0ADE               	incf	___fladd@aexp,f
  7323  175E  2F66               	goto	l2735
  7324  175F                     l633:	
  7325  175F  1683               	bsf	3,5	;RP0=1, select bank1
  7326  1760  1303               	bcf	3,6	;RP1=0, select bank1
  7327  1761  1C2D               	btfss	___fladd@b^(0+128),0
  7328  1762  2F64               	goto	u3931
  7329  1763  2F65               	goto	u3930
  7330  1764                     u3931:	
  7331  1764  2F66               	goto	l2735
  7332  1765                     u3930:	
  7333  1765  2F5B               	goto	l2731
  7334  1766                     l2735:	
  7335  1766  1283               	bcf	3,5	;RP0=0, select bank0
  7336  1767  085E               	movf	___fladd@aexp,w
  7337  1768  1903               	btfsc	3,2
  7338  1769  2F6B               	goto	u3941
  7339  176A  2F6C               	goto	u3940
  7340  176B                     u3941:	
  7341  176B  2FC0               	goto	l636
  7342  176C                     u3940:	
  7343  176C                     l2737:	
  7344  176C  3001               	movlw	1
  7345  176D  1683               	bsf	3,5	;RP0=1, select bank1
  7346  176E  1303               	bcf	3,6	;RP1=0, select bank1
  7347  176F  07AD               	addwf	___fladd@b^(0+128),f
  7348  1770  3000               	movlw	0
  7349  1771  1803               	skipnc
  7350  1772  3001               	movlw	1
  7351  1773  07AE               	addwf	(___fladd@b+1)^(0+128),f
  7352  1774  3000               	movlw	0
  7353  1775  1803               	skipnc
  7354  1776  3001               	movlw	1
  7355  1777  07AF               	addwf	(___fladd@b+2)^(0+128),f
  7356  1778  3000               	movlw	0
  7357  1779  1803               	skipnc
  7358  177A  3001               	movlw	1
  7359  177B  07B0               	addwf	(___fladd@b+3)^(0+128),f
  7360  177C                     l2739:	
  7361  177C  1C30               	btfss	(___fladd@b+3)^(0+128),0
  7362  177D  2F7F               	goto	u3951
  7363  177E  2F80               	goto	u3950
  7364  177F                     u3951:	
  7365  177F  2FC0               	goto	l636
  7366  1780                     u3950:	
  7367  1780                     l2741:	
  7368  1780  082D               	movf	___fladd@b^(0+128),w
  7369  1781  1283               	bcf	3,5	;RP0=0, select bank0
  7370  1782  1303               	bcf	3,6	;RP1=0, select bank0
  7371  1783  00D5               	movwf	??___fladd
  7372  1784  1683               	bsf	3,5	;RP0=1, select bank1
  7373  1785  1303               	bcf	3,6	;RP1=0, select bank1
  7374  1786  082E               	movf	(___fladd@b+1)^(0+128),w
  7375  1787  1283               	bcf	3,5	;RP0=0, select bank0
  7376  1788  1303               	bcf	3,6	;RP1=0, select bank0
  7377  1789  00D6               	movwf	??___fladd+1
  7378  178A  1683               	bsf	3,5	;RP0=1, select bank1
  7379  178B  1303               	bcf	3,6	;RP1=0, select bank1
  7380  178C  082F               	movf	(___fladd@b+2)^(0+128),w
  7381  178D  1283               	bcf	3,5	;RP0=0, select bank0
  7382  178E  1303               	bcf	3,6	;RP1=0, select bank0
  7383  178F  00D7               	movwf	??___fladd+2
  7384  1790  1683               	bsf	3,5	;RP0=1, select bank1
  7385  1791  1303               	bcf	3,6	;RP1=0, select bank1
  7386  1792  0830               	movf	(___fladd@b+3)^(0+128),w
  7387  1793  1283               	bcf	3,5	;RP0=0, select bank0
  7388  1794  1303               	bcf	3,6	;RP1=0, select bank0
  7389  1795  00D8               	movwf	??___fladd+3
  7390  1796  3001               	movlw	1
  7391  1797  00D9               	movwf	??___fladd+4
  7392  1798                     u3965:	
  7393  1798  0D58               	rlf	??___fladd+3,w
  7394  1799  0CD8               	rrf	??___fladd+3,f
  7395  179A  0CD7               	rrf	??___fladd+2,f
  7396  179B  0CD6               	rrf	??___fladd+1,f
  7397  179C  0CD5               	rrf	??___fladd,f
  7398  179D                     u3960:	
  7399  179D  0BD9               	decfsz	??___fladd+4,f
  7400  179E  2F98               	goto	u3965
  7401  179F  0858               	movf	??___fladd+3,w
  7402  17A0  1683               	bsf	3,5	;RP0=1, select bank1
  7403  17A1  1303               	bcf	3,6	;RP1=0, select bank1
  7404  17A2  00B0               	movwf	(___fladd@b+3)^(0+128)
  7405  17A3  1283               	bcf	3,5	;RP0=0, select bank0
  7406  17A4  1303               	bcf	3,6	;RP1=0, select bank0
  7407  17A5  0857               	movf	??___fladd+2,w
  7408  17A6  1683               	bsf	3,5	;RP0=1, select bank1
  7409  17A7  1303               	bcf	3,6	;RP1=0, select bank1
  7410  17A8  00AF               	movwf	(___fladd@b+2)^(0+128)
  7411  17A9  1283               	bcf	3,5	;RP0=0, select bank0
  7412  17AA  1303               	bcf	3,6	;RP1=0, select bank0
  7413  17AB  0856               	movf	??___fladd+1,w
  7414  17AC  1683               	bsf	3,5	;RP0=1, select bank1
  7415  17AD  1303               	bcf	3,6	;RP1=0, select bank1
  7416  17AE  00AE               	movwf	(___fladd@b+1)^(0+128)
  7417  17AF  1283               	bcf	3,5	;RP0=0, select bank0
  7418  17B0  1303               	bcf	3,6	;RP1=0, select bank0
  7419  17B1  0855               	movf	??___fladd,w
  7420  17B2  1683               	bsf	3,5	;RP0=1, select bank1
  7421  17B3  1303               	bcf	3,6	;RP1=0, select bank1
  7422  17B4  00AD               	movwf	___fladd@b^(0+128)
  7423  17B5  1283               	bcf	3,5	;RP0=0, select bank0
  7424  17B6  1303               	bcf	3,6	;RP1=0, select bank0
  7425  17B7  0A5F               	incf	___fladd@bexp,w
  7426  17B8  1903               	btfsc	3,2
  7427  17B9  2FBB               	goto	u3971
  7428  17BA  2FBC               	goto	u3970
  7429  17BB                     u3971:	
  7430  17BB  2FC0               	goto	l636
  7431  17BC                     u3970:	
  7432  17BC                     l2743:	
  7433  17BC  3001               	movlw	1
  7434  17BD  00D5               	movwf	??___fladd
  7435  17BE  0855               	movf	??___fladd,w
  7436  17BF  07DF               	addwf	___fladd@bexp,f
  7437  17C0                     l636:	
  7438  17C0  1283               	bcf	3,5	;RP0=0, select bank0
  7439  17C1  0A5F               	incf	___fladd@bexp,w
  7440  17C2  1903               	btfsc	3,2
  7441  17C3  2FC5               	goto	u3981
  7442  17C4  2FC6               	goto	u3980
  7443  17C5                     u3981:	
  7444  17C5  2FCB               	goto	l2747
  7445  17C6                     u3980:	
  7446  17C6                     l2745:	
  7447  17C6  085F               	movf	___fladd@bexp,w
  7448  17C7  1D03               	btfss	3,2
  7449  17C8  2FCA               	goto	u3991
  7450  17C9  2FCB               	goto	u3990
  7451  17CA                     u3991:	
  7452  17CA  2FDD               	goto	l2753
  7453  17CB                     u3990:	
  7454  17CB                     l2747:	
  7455  17CB  3000               	movlw	0
  7456  17CC  1683               	bsf	3,5	;RP0=1, select bank1
  7457  17CD  1303               	bcf	3,6	;RP1=0, select bank1
  7458  17CE  00B0               	movwf	(___fladd@b+3)^(0+128)
  7459  17CF  3000               	movlw	0
  7460  17D0  00AF               	movwf	(___fladd@b+2)^(0+128)
  7461  17D1  3000               	movlw	0
  7462  17D2  00AE               	movwf	(___fladd@b+1)^(0+128)
  7463  17D3  3000               	movlw	0
  7464  17D4  00AD               	movwf	___fladd@b^(0+128)
  7465  17D5                     l2749:	
  7466  17D5  1283               	bcf	3,5	;RP0=0, select bank0
  7467  17D6  1303               	bcf	3,6	;RP1=0, select bank0
  7468  17D7  085F               	movf	___fladd@bexp,w
  7469  17D8  1D03               	btfss	3,2
  7470  17D9  2FDB               	goto	u4001
  7471  17DA  2FDC               	goto	u4000
  7472  17DB                     u4001:	
  7473  17DB  2FDD               	goto	l2753
  7474  17DC                     u4000:	
  7475  17DC                     l2751:	
  7476  17DC  01DD               	clrf	___fladd@signs
  7477  17DD                     l2753:	
  7478  17DD  1C5F               	btfss	___fladd@bexp,0
  7479  17DE  2FE0               	goto	u4011
  7480  17DF  2FE1               	goto	u4010
  7481  17E0                     u4011:	
  7482  17E0  2FE5               	goto	l2757
  7483  17E1                     u4010:	
  7484  17E1                     l2755:	
  7485  17E1  1683               	bsf	3,5	;RP0=1, select bank1
  7486  17E2  1303               	bcf	3,6	;RP1=0, select bank1
  7487  17E3  17AF               	bsf	(___fladd@b^(0+128)+2),7
  7488  17E4  2FEB               	goto	l644
  7489  17E5                     l2757:	
  7490  17E5  307F               	movlw	127
  7491  17E6  00D5               	movwf	??___fladd
  7492  17E7  0855               	movf	??___fladd,w
  7493  17E8  1683               	bsf	3,5	;RP0=1, select bank1
  7494  17E9  1303               	bcf	3,6	;RP1=0, select bank1
  7495  17EA  05AF               	andwf	(___fladd@b^(0+128)+2),f
  7496  17EB                     l644:	
  7497  17EB  1283               	bcf	3,5	;RP0=0, select bank0
  7498  17EC  1303               	bcf	3,6	;RP1=0, select bank0
  7499  17ED  085F               	movf	___fladd@bexp,w
  7500  17EE  00D5               	movwf	??___fladd
  7501  17EF  1003               	clrc
  7502  17F0  0C55               	rrf	??___fladd,w
  7503  17F1  00D6               	movwf	??___fladd+1
  7504  17F2  0856               	movf	??___fladd+1,w
  7505  17F3  1683               	bsf	3,5	;RP0=1, select bank1
  7506  17F4  1303               	bcf	3,6	;RP1=0, select bank1
  7507  17F5  00B0               	movwf	(___fladd@b^(0+128)+3)
  7508  17F6                     l2759:	
  7509  17F6  1283               	bcf	3,5	;RP0=0, select bank0
  7510  17F7  1303               	bcf	3,6	;RP1=0, select bank0
  7511  17F8  1FDD               	btfss	___fladd@signs,7
  7512  17F9  2FFB               	goto	u4021
  7513  17FA  2FFC               	goto	u4020
  7514  17FB                     u4021:	
  7515  17FB  2FFF               	goto	l645
  7516  17FC                     u4020:	
  7517  17FC                     l2761:	
  7518  17FC  1683               	bsf	3,5	;RP0=1, select bank1
  7519  17FD  1303               	bcf	3,6	;RP1=0, select bank1
  7520  17FE  17B0               	bsf	(___fladd@b^(0+128)+3),7
  7521  17FF                     l645:	
  7522  17FF                     l615:	
  7523  17FF  0008               	return
  7524  1800                     __end_of___fladd:	
  7525                           
  7526                           	psect	text15
  7527  11EB                     __ptext15:	
  7528 ;; *************** function _I2C_Slave_Init *****************
  7529 ;; Defined at:
  7530 ;;		line 93 in file "I2C.c"
  7531 ;; Parameters:    Size  Location     Type
  7532 ;;  address         1    wreg     unsigned char 
  7533 ;; Auto vars:     Size  Location     Type
  7534 ;;  address         1    9[BANK0 ] unsigned char 
  7535 ;; Return value:  Size  Location     Type
  7536 ;;                  1    wreg      void 
  7537 ;; Registers used:
  7538 ;;		wreg
  7539 ;; Tracked objects:
  7540 ;;		On entry : 0/0
  7541 ;;		On exit  : 0/0
  7542 ;;		Unchanged: 0/0
  7543 ;; Data sizes:     COMMON   BANK0   BANK1   BANK3   BANK2
  7544 ;;      Params:         0       0       0       0       0
  7545 ;;      Locals:         0       1       0       0       0
  7546 ;;      Temps:          0       0       0       0       0
  7547 ;;      Totals:         0       1       0       0       0
  7548 ;;Total ram usage:        1 bytes
  7549 ;; Hardware stack levels used:    1
  7550 ;; Hardware stack levels required when called:    2
  7551 ;; This function calls:
  7552 ;;		Nothing
  7553 ;; This function is called by:
  7554 ;;		_setup
  7555 ;; This function uses a non-reentrant model
  7556 ;;
  7557                           
  7558                           
  7559                           ;psect for function _I2C_Slave_Init
  7560  11EB                     _I2C_Slave_Init:	
  7561                           
  7562                           ;incstack = 0
  7563                           ; Regs used in _I2C_Slave_Init: [wreg]
  7564                           ;I2C_Slave_Init@address stored from wreg
  7565  11EB  1283               	bcf	3,5	;RP0=0, select bank0
  7566  11EC  1303               	bcf	3,6	;RP1=0, select bank0
  7567  11ED  00A9               	movwf	I2C_Slave_Init@address
  7568  11EE                     l2939:	
  7569                           
  7570                           ;I2C.c: 93: void I2C_Slave_Init(uint8_t address);I2C.c: 94: {;I2C.c: 95:     SSPADD = ad
      +                          dress;
  7571  11EE  0829               	movf	I2C_Slave_Init@address,w
  7572  11EF  1683               	bsf	3,5	;RP0=1, select bank1
  7573  11F0  1303               	bcf	3,6	;RP1=0, select bank1
  7574  11F1  0093               	movwf	19	;volatile
  7575                           
  7576                           ;I2C.c: 96:     SSPCON = 0x36;
  7577  11F2  3036               	movlw	54
  7578  11F3  1283               	bcf	3,5	;RP0=0, select bank0
  7579  11F4  1303               	bcf	3,6	;RP1=0, select bank0
  7580  11F5  0094               	movwf	20	;volatile
  7581                           
  7582                           ;I2C.c: 97:     SSPSTAT = 0x80;
  7583  11F6  3080               	movlw	128
  7584  11F7  1683               	bsf	3,5	;RP0=1, select bank1
  7585  11F8  1303               	bcf	3,6	;RP1=0, select bank1
  7586  11F9  0094               	movwf	20	;volatile
  7587                           
  7588                           ;I2C.c: 98:     SSPCON2 = 0x01;
  7589  11FA  3001               	movlw	1
  7590  11FB  0091               	movwf	17	;volatile
  7591  11FC                     l2941:	
  7592                           
  7593                           ;I2C.c: 99:     TRISC3 = 1;
  7594  11FC  1587               	bsf	7,3	;volatile
  7595  11FD                     l2943:	
  7596                           
  7597                           ;I2C.c: 100:     TRISC4 = 1;
  7598  11FD  1607               	bsf	7,4	;volatile
  7599  11FE                     l2945:	
  7600                           
  7601                           ;I2C.c: 101:     GIE = 1;
  7602  11FE  178B               	bsf	11,7	;volatile
  7603  11FF                     l2947:	
  7604                           
  7605                           ;I2C.c: 102:     PEIE = 1;
  7606  11FF  170B               	bsf	11,6	;volatile
  7607  1200                     l2949:	
  7608                           
  7609                           ;I2C.c: 103:     SSPIF = 0;
  7610  1200  1283               	bcf	3,5	;RP0=0, select bank0
  7611  1201  1303               	bcf	3,6	;RP1=0, select bank0
  7612  1202  118C               	bcf	12,3	;volatile
  7613  1203                     l2951:	
  7614                           
  7615                           ;I2C.c: 104:     SSPIE = 1;
  7616  1203  1683               	bsf	3,5	;RP0=1, select bank1
  7617  1204  1303               	bcf	3,6	;RP1=0, select bank1
  7618  1205  158C               	bsf	12,3	;volatile
  7619  1206                     l223:	
  7620  1206  0008               	return
  7621  1207                     __end_of_I2C_Slave_Init:	
  7622                           
  7623                           	psect	text16
  7624  1356                     __ptext16:	
  7625 ;; *************** function _isr *****************
  7626 ;; Defined at:
  7627 ;;		line 57 in file "main.c"
  7628 ;; Parameters:    Size  Location     Type
  7629 ;;		None
  7630 ;; Auto vars:     Size  Location     Type
  7631 ;;		None
  7632 ;; Return value:  Size  Location     Type
  7633 ;;                  1    wreg      void 
  7634 ;; Registers used:
  7635 ;;		wreg, fsr0l, fsr0h, status,2, status,0, pclath, cstack
  7636 ;; Tracked objects:
  7637 ;;		On entry : 0/0
  7638 ;;		On exit  : 0/0
  7639 ;;		Unchanged: 0/0
  7640 ;; Data sizes:     COMMON   BANK0   BANK1   BANK3   BANK2
  7641 ;;      Params:         0       0       0       0       0
  7642 ;;      Locals:         0       0       0       0       0
  7643 ;;      Temps:          0       9       0       0       0
  7644 ;;      Totals:         0       9       0       0       0
  7645 ;;Total ram usage:        9 bytes
  7646 ;; Hardware stack levels used:    1
  7647 ;; Hardware stack levels required when called:    1
  7648 ;; This function calls:
  7649 ;;		_select
  7650 ;; This function is called by:
  7651 ;;		Interrupt level 1
  7652 ;; This function uses a non-reentrant model
  7653 ;;
  7654                           
  7655                           
  7656                           ;psect for function _isr
  7657  1356                     _isr:	
  7658  1356                     i1l2503:	
  7659                           
  7660                           ;main.c: 58:     if(PIR1bits.SSPIF==1){
  7661  1356  1D8C               	btfss	12,3	;volatile
  7662  1357  2B59               	goto	u344_21
  7663  1358  2B5A               	goto	u344_20
  7664  1359                     u344_21:	
  7665  1359  2BD5               	goto	i1l98
  7666  135A                     u344_20:	
  7667  135A                     i1l2505:	
  7668                           
  7669                           ;main.c: 59:         SSPCONbits.CKP = 0;
  7670  135A  1214               	bcf	20,4	;volatile
  7671                           
  7672                           ;main.c: 61:         if ((SSPCONbits.SSPOV) || (SSPCONbits.WCOL)){
  7673  135B  1B14               	btfsc	20,6	;volatile
  7674  135C  2B5E               	goto	u345_21
  7675  135D  2B5F               	goto	u345_20
  7676  135E                     u345_21:	
  7677  135E  2B63               	goto	i1l2509
  7678  135F                     u345_20:	
  7679  135F                     i1l2507:	
  7680  135F  1F94               	btfss	20,7	;volatile
  7681  1360  2B62               	goto	u346_21
  7682  1361  2B63               	goto	u346_20
  7683  1362                     u346_21:	
  7684  1362  2B6A               	goto	i1l2517
  7685  1363                     u346_20:	
  7686  1363                     i1l2509:	
  7687                           
  7688                           ;main.c: 62:             z = SSPBUF;
  7689  1363  0813               	movf	19,w	;volatile
  7690  1364  00A0               	movwf	??_isr
  7691  1365  0820               	movf	??_isr,w
  7692  1366  00E5               	movwf	_z
  7693  1367                     i1l2511:	
  7694                           
  7695                           ;main.c: 63:             SSPCONbits.SSPOV = 0;
  7696  1367  1314               	bcf	20,6	;volatile
  7697  1368                     i1l2513:	
  7698                           
  7699                           ;main.c: 64:             SSPCONbits.WCOL = 0;
  7700  1368  1394               	bcf	20,7	;volatile
  7701  1369                     i1l2515:	
  7702                           
  7703                           ;main.c: 65:             SSPCONbits.CKP = 1;
  7704  1369  1614               	bsf	20,4	;volatile
  7705  136A                     i1l2517:	
  7706                           
  7707                           ;main.c: 68:         if(!SSPSTATbits.D_nA && !SSPSTATbits.R_nW) {
  7708  136A  1683               	bsf	3,5	;RP0=1, select bank1
  7709  136B  1303               	bcf	3,6	;RP1=0, select bank1
  7710  136C  1A94               	btfsc	20,5	;volatile
  7711  136D  2B6F               	goto	u347_21
  7712  136E  2B70               	goto	u347_20
  7713  136F                     u347_21:	
  7714  136F  2B90               	goto	i1l89
  7715  1370                     u347_20:	
  7716  1370                     i1l2519:	
  7717  1370  1914               	btfsc	20,2	;volatile
  7718  1371  2B73               	goto	u348_21
  7719  1372  2B74               	goto	u348_20
  7720  1373                     u348_21:	
  7721  1373  2B90               	goto	i1l89
  7722  1374                     u348_20:	
  7723  1374                     i1l2521:	
  7724                           
  7725                           ;main.c: 70:             z = SSPBUF;
  7726  1374  1283               	bcf	3,5	;RP0=0, select bank0
  7727  1375  1303               	bcf	3,6	;RP1=0, select bank0
  7728  1376  0813               	movf	19,w	;volatile
  7729  1377  00A0               	movwf	??_isr
  7730  1378  0820               	movf	??_isr,w
  7731  1379  00E5               	movwf	_z
  7732  137A                     i1l2523:	
  7733                           
  7734                           ;main.c: 72:             PIR1bits.SSPIF = 0;
  7735  137A  118C               	bcf	12,3	;volatile
  7736  137B                     i1l2525:	
  7737                           
  7738                           ;main.c: 73:             SSPCONbits.CKP = 1;
  7739  137B  1614               	bsf	20,4	;volatile
  7740  137C                     i1l90:	
  7741                           ;main.c: 74:             while(!SSPSTATbits.BF);
  7742                           
  7743  137C  1683               	bsf	3,5	;RP0=1, select bank1
  7744  137D  1303               	bcf	3,6	;RP1=0, select bank1
  7745  137E  1C14               	btfss	20,0	;volatile
  7746  137F  2B81               	goto	u349_21
  7747  1380  2B82               	goto	u349_20
  7748  1381                     u349_21:	
  7749  1381  2B7C               	goto	i1l90
  7750  1382                     u349_20:	
  7751  1382                     i1l2527:	
  7752                           
  7753                           ;main.c: 75:             borrar = SSPBUF;
  7754  1382  1283               	bcf	3,5	;RP0=0, select bank0
  7755  1383  1303               	bcf	3,6	;RP1=0, select bank0
  7756  1384  0813               	movf	19,w	;volatile
  7757  1385  00A0               	movwf	??_isr
  7758  1386  0820               	movf	??_isr,w
  7759  1387  00E6               	movwf	_borrar
  7760                           
  7761                           ;main.c: 76:             _delay((unsigned long)((250)*(4000000/4000000.0)));
  7762  1388  3052               	movlw	82
  7763  1389  1283               	bcf	3,5	;RP0=0, select bank0
  7764  138A  1303               	bcf	3,6	;RP1=0, select bank0
  7765  138B  00A0               	movwf	??_isr
  7766  138C                     u451_27:	
  7767  138C  0BA0               	decfsz	??_isr,f
  7768  138D  2B8C               	goto	u451_27
  7769  138E  0000               	nop
  7770                           
  7771                           ;main.c: 77:         }else if(!SSPSTATbits.D_nA && SSPSTATbits.R_nW){
  7772  138F  2BD2               	goto	i1l93
  7773  1390                     i1l89:	
  7774  1390  1A94               	btfsc	20,5	;volatile
  7775  1391  2B93               	goto	u350_21
  7776  1392  2B94               	goto	u350_20
  7777  1393                     u350_21:	
  7778  1393  2BD2               	goto	i1l93
  7779  1394                     u350_20:	
  7780  1394                     i1l2529:	
  7781  1394  1D14               	btfss	20,2	;volatile
  7782  1395  2B97               	goto	u351_21
  7783  1396  2B98               	goto	u351_20
  7784  1397                     u351_21:	
  7785  1397  2BD2               	goto	i1l93
  7786  1398                     u351_20:	
  7787  1398                     i1l2531:	
  7788                           
  7789                           ;main.c: 78:             z = SSPBUF;
  7790  1398  1283               	bcf	3,5	;RP0=0, select bank0
  7791  1399  1303               	bcf	3,6	;RP1=0, select bank0
  7792  139A  0813               	movf	19,w	;volatile
  7793  139B  00A0               	movwf	??_isr
  7794  139C  0820               	movf	??_isr,w
  7795  139D  00E5               	movwf	_z
  7796  139E                     i1l2533:	
  7797                           
  7798                           ;main.c: 79:             BF = 0;
  7799  139E  1683               	bsf	3,5	;RP0=1, select bank1
  7800  139F  1303               	bcf	3,6	;RP1=0, select bank1
  7801  13A0  1014               	bcf	20,0	;volatile
  7802  13A1                     i1l2535:	
  7803                           
  7804                           ;main.c: 80:             mandar=select(b1,m1,c1,d1,u1,&contador);
  7805  13A1  0874               	movf	_m1,w
  7806  13A2  1283               	bcf	3,5	;RP0=0, select bank0
  7807  13A3  1303               	bcf	3,6	;RP1=0, select bank0
  7808  13A4  00A0               	movwf	??_isr
  7809  13A5  0820               	movf	??_isr,w
  7810  13A6  00F7               	movwf	select@b
  7811  13A7  0873               	movf	_c1,w
  7812  13A8  00A1               	movwf	??_isr+1
  7813  13A9  0821               	movf	??_isr+1,w
  7814  13AA  00F8               	movwf	select@c
  7815  13AB  0872               	movf	_d1,w
  7816  13AC  00A2               	movwf	??_isr+2
  7817  13AD  0822               	movf	??_isr+2,w
  7818  13AE  00F9               	movwf	select@d
  7819  13AF  0871               	movf	_u1,w
  7820  13B0  00A3               	movwf	??_isr+3
  7821  13B1  0823               	movf	??_isr+3,w
  7822  13B2  00FA               	movwf	select@e
  7823  13B3  3076               	movlw	(low (_contador| 0))& (0+255)
  7824  13B4  00A4               	movwf	??_isr+4
  7825  13B5  0824               	movf	??_isr+4,w
  7826  13B6  00FB               	movwf	select@contador
  7827  13B7  0875               	movf	_b1,w
  7828  13B8  120A  158A  2004  160A  118A  	fcall	_select
  7829  13BD  1283               	bcf	3,5	;RP0=0, select bank0
  7830  13BE  1303               	bcf	3,6	;RP1=0, select bank0
  7831  13BF  00A5               	movwf	??_isr+5
  7832  13C0  0825               	movf	??_isr+5,w
  7833  13C1  00F0               	movwf	_mandar
  7834  13C2                     i1l2537:	
  7835                           
  7836                           ;main.c: 81:             SSPBUF = mandar;
  7837  13C2  0870               	movf	_mandar,w
  7838  13C3  0093               	movwf	19	;volatile
  7839  13C4                     i1l2539:	
  7840                           
  7841                           ;main.c: 82:             SSPCONbits.CKP = 1;
  7842  13C4  1614               	bsf	20,4	;volatile
  7843  13C5                     i1l2541:	
  7844                           
  7845                           ;main.c: 83:             _delay((unsigned long)((250)*(4000000/4000000.0)));
  7846  13C5  3052               	movlw	82
  7847  13C6  1283               	bcf	3,5	;RP0=0, select bank0
  7848  13C7  1303               	bcf	3,6	;RP1=0, select bank0
  7849  13C8  00A0               	movwf	??_isr
  7850  13C9                     u452_27:	
  7851  13C9  0BA0               	decfsz	??_isr,f
  7852  13CA  2BC9               	goto	u452_27
  7853  13CB  0000               	nop
  7854  13CC                     i1l95:	
  7855                           ;main.c: 84:             while(SSPSTATbits.BF);
  7856                           
  7857  13CC  1683               	bsf	3,5	;RP0=1, select bank1
  7858  13CD  1303               	bcf	3,6	;RP1=0, select bank1
  7859  13CE  1814               	btfsc	20,0	;volatile
  7860  13CF  2BD1               	goto	u352_21
  7861  13D0  2BD2               	goto	u352_20
  7862  13D1                     u352_21:	
  7863  13D1  2BCC               	goto	i1l95
  7864  13D2                     u352_20:	
  7865  13D2                     i1l93:	
  7866                           
  7867                           ;main.c: 88:         PIR1bits.SSPIF = 0;
  7868  13D2  1283               	bcf	3,5	;RP0=0, select bank0
  7869  13D3  1303               	bcf	3,6	;RP1=0, select bank0
  7870  13D4  118C               	bcf	12,3	;volatile
  7871  13D5                     i1l98:	
  7872  13D5  0828               	movf	??_isr+8,w
  7873  13D6  008A               	movwf	10
  7874  13D7  0827               	movf	??_isr+7,w
  7875  13D8  0084               	movwf	4
  7876  13D9  0E26               	swapf	(??_isr+6)^0,w
  7877  13DA  0083               	movwf	3
  7878  13DB  0EFE               	swapf	btemp,f
  7879  13DC  0E7E               	swapf	btemp,w
  7880  13DD  0009               	retfie
  7881  13DE                     __end_of_isr:	
  7882                           
  7883                           	psect	intentry
  7884  0004                     __pintentry:	
  7885                           ;incstack = 0
  7886                           ; Regs used in _isr: [wreg-fsr0h+status,2+status,0+pclath+cstack]
  7887                           
  7888  0004                     interrupt_function:	
  7889  007E                     saved_w	set	btemp
  7890  0004  00FE               	movwf	btemp
  7891  0005  0E03               	swapf	3,w
  7892  0006  1283               	bcf	3,5	;RP0=0, select bank0
  7893  0007  1303               	bcf	3,6	;RP1=0, select bank0
  7894  0008  00A6               	movwf	??_isr+6
  7895  0009  0804               	movf	4,w
  7896  000A  00A7               	movwf	??_isr+7
  7897  000B  080A               	movf	10,w
  7898  000C  00A8               	movwf	??_isr+8
  7899  000D  160A  118A  2B56   	ljmp	_isr
  7900                           
  7901                           	psect	text17
  7902  0804                     __ptext17:	
  7903 ;; *************** function _select *****************
  7904 ;; Defined at:
  7905 ;;		line 153 in file "main.c"
  7906 ;; Parameters:    Size  Location     Type
  7907 ;;  a               1    wreg     unsigned char 
  7908 ;;  b               1    0[COMMON] unsigned char 
  7909 ;;  c               1    1[COMMON] unsigned char 
  7910 ;;  d               1    2[COMMON] unsigned char 
  7911 ;;  e               1    3[COMMON] unsigned char 
  7912 ;;  contador        1    4[COMMON] PTR unsigned char 
  7913 ;;		 -> contador(1), 
  7914 ;; Auto vars:     Size  Location     Type
  7915 ;;  a               1    6[COMMON] unsigned char 
  7916 ;; Return value:  Size  Location     Type
  7917 ;;                  1    wreg      unsigned char 
  7918 ;; Registers used:
  7919 ;;		wreg, fsr0l, fsr0h, status,2, status,0
  7920 ;; Tracked objects:
  7921 ;;		On entry : 0/0
  7922 ;;		On exit  : 0/0
  7923 ;;		Unchanged: 0/0
  7924 ;; Data sizes:     COMMON   BANK0   BANK1   BANK3   BANK2
  7925 ;;      Params:         5       0       0       0       0
  7926 ;;      Locals:         1       0       0       0       0
  7927 ;;      Temps:          1       0       0       0       0
  7928 ;;      Totals:         7       0       0       0       0
  7929 ;;Total ram usage:        7 bytes
  7930 ;; Hardware stack levels used:    1
  7931 ;; This function calls:
  7932 ;;		Nothing
  7933 ;; This function is called by:
  7934 ;;		_isr
  7935 ;; This function uses a non-reentrant model
  7936 ;;
  7937                           
  7938                           
  7939                           ;psect for function _select
  7940  0804                     _select:	
  7941                           
  7942                           ;incstack = 0
  7943                           ; Regs used in _select: [wreg-fsr0h+status,2+status,0]
  7944                           ;select@a stored from wreg
  7945  0804  00FD               	movwf	select@a
  7946  0805                     i1l2431:	
  7947                           
  7948                           ;main.c: 154:     if (*contador==0){
  7949  0805  087B               	movf	select@contador,w
  7950  0806  0084               	movwf	4
  7951  0807  0800               	movf	0,w
  7952  0808  1D03               	btfss	3,2
  7953  0809  280B               	goto	u336_21
  7954  080A  280C               	goto	u336_20
  7955  080B                     u336_21:	
  7956  080B  2817               	goto	i1l2439
  7957  080C                     u336_20:	
  7958  080C                     i1l2433:	
  7959                           
  7960                           ;main.c: 155:         *contador=*contador+1;
  7961  080C  087B               	movf	select@contador,w
  7962  080D  0084               	movwf	4
  7963  080E  0800               	movf	0,w
  7964  080F  3E01               	addlw	1
  7965  0810  00FC               	movwf	??_select
  7966  0811  087B               	movf	select@contador,w
  7967  0812  0084               	movwf	4
  7968  0813  087C               	movf	??_select,w
  7969  0814  0080               	movwf	0
  7970  0815                     i1l2435:	
  7971                           
  7972                           ;main.c: 156:         return a;
  7973  0815  087D               	movf	select@a,w
  7974  0816  285F               	goto	i1l118
  7975  0817                     i1l2439:	
  7976                           
  7977                           ;main.c: 158:     if (*contador==1){
  7978  0817  087B               	movf	select@contador,w
  7979  0818  0084               	movwf	4
  7980  0819  0300               	decf	0,w
  7981  081A  1D03               	btfss	3,2
  7982  081B  281D               	goto	u337_21
  7983  081C  281E               	goto	u337_20
  7984  081D                     u337_21:	
  7985  081D  2829               	goto	i1l2447
  7986  081E                     u337_20:	
  7987  081E                     i1l2441:	
  7988                           
  7989                           ;main.c: 159:         *contador=*contador+1;
  7990  081E  087B               	movf	select@contador,w
  7991  081F  0084               	movwf	4
  7992  0820  0800               	movf	0,w
  7993  0821  3E01               	addlw	1
  7994  0822  00FC               	movwf	??_select
  7995  0823  087B               	movf	select@contador,w
  7996  0824  0084               	movwf	4
  7997  0825  087C               	movf	??_select,w
  7998  0826  0080               	movwf	0
  7999  0827                     i1l2443:	
  8000                           
  8001                           ;main.c: 160:         return b;
  8002  0827  0877               	movf	select@b,w
  8003  0828  285F               	goto	i1l118
  8004  0829                     i1l2447:	
  8005                           
  8006                           ;main.c: 162:     if (*contador==2){
  8007  0829  087B               	movf	select@contador,w
  8008  082A  0084               	movwf	4
  8009  082B  3002               	movlw	2
  8010  082C  0600               	xorwf	0,w
  8011  082D  1D03               	btfss	3,2
  8012  082E  2830               	goto	u338_21
  8013  082F  2831               	goto	u338_20
  8014  0830                     u338_21:	
  8015  0830  283C               	goto	i1l2455
  8016  0831                     u338_20:	
  8017  0831                     i1l2449:	
  8018                           
  8019                           ;main.c: 163:         *contador=*contador+1;
  8020  0831  087B               	movf	select@contador,w
  8021  0832  0084               	movwf	4
  8022  0833  0800               	movf	0,w
  8023  0834  3E01               	addlw	1
  8024  0835  00FC               	movwf	??_select
  8025  0836  087B               	movf	select@contador,w
  8026  0837  0084               	movwf	4
  8027  0838  087C               	movf	??_select,w
  8028  0839  0080               	movwf	0
  8029  083A                     i1l2451:	
  8030                           
  8031                           ;main.c: 164:         return c;
  8032  083A  0878               	movf	select@c,w
  8033  083B  285F               	goto	i1l118
  8034  083C                     i1l2455:	
  8035                           
  8036                           ;main.c: 166:     if (*contador==3){
  8037  083C  087B               	movf	select@contador,w
  8038  083D  0084               	movwf	4
  8039  083E  3003               	movlw	3
  8040  083F  0600               	xorwf	0,w
  8041  0840  1D03               	btfss	3,2
  8042  0841  2843               	goto	u339_21
  8043  0842  2844               	goto	u339_20
  8044  0843                     u339_21:	
  8045  0843  284F               	goto	i1l2463
  8046  0844                     u339_20:	
  8047  0844                     i1l2457:	
  8048                           
  8049                           ;main.c: 167:         *contador=*contador+1;
  8050  0844  087B               	movf	select@contador,w
  8051  0845  0084               	movwf	4
  8052  0846  0800               	movf	0,w
  8053  0847  3E01               	addlw	1
  8054  0848  00FC               	movwf	??_select
  8055  0849  087B               	movf	select@contador,w
  8056  084A  0084               	movwf	4
  8057  084B  087C               	movf	??_select,w
  8058  084C  0080               	movwf	0
  8059  084D                     i1l2459:	
  8060                           
  8061                           ;main.c: 168:         return d;
  8062  084D  0879               	movf	select@d,w
  8063  084E  285F               	goto	i1l118
  8064  084F                     i1l2463:	
  8065                           
  8066                           ;main.c: 170:     if (*contador==4){
  8067  084F  087B               	movf	select@contador,w
  8068  0850  0084               	movwf	4
  8069  0851  3004               	movlw	4
  8070  0852  0600               	xorwf	0,w
  8071  0853  1D03               	btfss	3,2
  8072  0854  2856               	goto	u340_21
  8073  0855  2857               	goto	u340_20
  8074  0856                     u340_21:	
  8075  0856  285C               	goto	i1l2471
  8076  0857                     u340_20:	
  8077  0857                     i1l2465:	
  8078                           
  8079                           ;main.c: 171:         *contador=0;
  8080  0857  087B               	movf	select@contador,w
  8081  0858  0084               	movwf	4
  8082  0859  0180               	clrf	0
  8083  085A                     i1l2467:	
  8084                           
  8085                           ;main.c: 172:         return e;
  8086  085A  087A               	movf	select@e,w
  8087  085B  285F               	goto	i1l118
  8088  085C                     i1l2471:	
  8089                           
  8090                           ;main.c: 174:     return *contador;
  8091  085C  087B               	movf	select@contador,w
  8092  085D  0084               	movwf	4
  8093  085E  0800               	movf	0,w
  8094  085F                     i1l118:	
  8095  085F  0008               	return
  8096  0860                     __end_of_select:	
  8097  007E                     btemp	set	126	;btemp
  8098  007E                     wtemp0	set	126


Data Sizes:
    Strings     0
    Constant    0
    Data        4
    BSS         13
    Persistent  12
    Stack       0

Auto Spaces:
    Space          Size  Autos    Used
    COMMON           14      7      14
    BANK0            80     65      71
    BANK1            80     79      79
    BANK3            96      5      21
    BANK2            96      0       0

Pointer List with Targets:

    select@contador	PTR unsigned char  size(1) Largest target is 1
		 -> contador(COMMON[1]), 

    weight@v3	PTR unsigned char  size(1) Largest target is 1
		 -> u1(COMMON[1]), 

    weight@v2	PTR unsigned char  size(1) Largest target is 1
		 -> d1(COMMON[1]), 

    weight@v1	PTR unsigned char  size(1) Largest target is 1
		 -> c1(COMMON[1]), 

    weight@v0	PTR unsigned char  size(1) Largest target is 1
		 -> m1(COMMON[1]), 

    weight@v4	PTR unsigned char  size(1) Largest target is 1
		 -> b1(COMMON[1]), 


Critical Paths under _main in COMMON

    None.

Critical Paths under _isr in COMMON

    _isr->_select

Critical Paths under _main in BANK0

    _main->___fladd
    ___flsub->___fladd
    _tarar->___fladd
    ___xxtofl->_celdaRead
    ___fltol->___fladd
    ___flmul->___xxtofl
    ___fladd->___flmul

Critical Paths under _isr in BANK0

    None.

Critical Paths under _main in BANK1

    _main->_weight
    _weight->___fltol
    ___flsub->___fladd
    _setup->_celdaSetup
    _celdaSetup->_tarar
    _tarar->___fltol
    ___fltol->___flsub
    ___fladd->___flmul

Critical Paths under _isr in BANK1

    None.

Critical Paths under _main in BANK3

    None.

Critical Paths under _isr in BANK3

    None.

Critical Paths under _main in BANK2

    None.

Critical Paths under _isr in BANK2

    None.

Call Graph Tables:

 ---------------------------------------------------------------------------------
 (Depth) Function   	        Calls       Base Space   Used Autos Params    Refs
 ---------------------------------------------------------------------------------
 (0) _main                                                 5     5      0   35089
                                              0 BANK3      5     5      0
                            ___fladd
                            ___flmul
                            ___fltol
                           ___xxtofl
                          _celdaRead
                              _setup
                             _weight
 ---------------------------------------------------------------------------------
 (1) _weight                                              41    28     13   15926
                                             40 BANK1     39    26     13
                            ___fldiv
                             ___flge
                            ___flmul
                            ___flsub
                            ___fltol
                             ___wmul
                           ___xxtofl
 ---------------------------------------------------------------------------------
 (2) ___wmul                                               6     2      4    1936
                                              9 BANK0      6     2      4
 ---------------------------------------------------------------------------------
 (2) ___flsub                                              8     0      8    4419
                                             21 BANK1      8     0      8
                            ___fladd
                            ___fldiv (ARG)
                             ___wmul (ARG)
                           ___xxtofl (ARG)
 ---------------------------------------------------------------------------------
 (2) ___flge                                              12     4      8     334
                                              9 BANK0     12     4      8
 ---------------------------------------------------------------------------------
 (2) ___fldiv                                             26    18      8    1881
                                              9 BANK0     26    18      8
 ---------------------------------------------------------------------------------
 (1) _setup                                                0     0      0    9699
                     _I2C_Slave_Init
                         _celdaSetup
 ---------------------------------------------------------------------------------
 (2) _celdaSetup                                          11     7      4    9668
                                             54 BANK1     11     7      4
                              _tarar
 ---------------------------------------------------------------------------------
 (3) _tarar                                               18    14      4    9631
                                             40 BANK1     14    10      4
                            ___fladd
                            ___flmul
                            ___fltol
                           ___xxtofl
                          _celdaRead
 ---------------------------------------------------------------------------------
 (4) _celdaRead                                           17    13      4     139
                                              9 BANK0     17    13      4
 ---------------------------------------------------------------------------------
 (2) ___xxtofl                                            14    10      4    1006
                                             26 BANK0     14    10      4
                             ___wmul (ARG)
                          _celdaRead (ARG)
 ---------------------------------------------------------------------------------
 (2) ___fltol                                             11     7      4     761
                                             29 BANK1     11     7      4
                            ___fladd (ARG)
                            ___fldiv (ARG)
                            ___flmul (ARG)
                            ___flsub (ARG)
                             ___wmul (ARG)
                           ___xxtofl (ARG)
                          _celdaRead (ARG)
 ---------------------------------------------------------------------------------
 (2) ___flmul                                             26    18      8    4073
                                             40 BANK0     13     5      8
                                              0 BANK1     13    13      0
                          __Umul8_16
                           ___xxtofl (ARG)
                          _celdaRead (ARG)
 ---------------------------------------------------------------------------------
 (3) __Umul8_16                                            9     7      2     980
                                              9 BANK0      9     7      2
 ---------------------------------------------------------------------------------
 (3) ___fladd                                             20    12      8    3482
                                             53 BANK0     12    12      0
                                             13 BANK1      8     0      8
                            ___flmul (ARG)
                           ___xxtofl (ARG)
                          _celdaRead (ARG)
 ---------------------------------------------------------------------------------
 (2) _I2C_Slave_Init                                       1     1      0      31
                                              9 BANK0      1     1      0
 ---------------------------------------------------------------------------------
 Estimated maximum stack depth 4
 ---------------------------------------------------------------------------------
 (Depth) Function   	        Calls       Base Space   Used Autos Params    Refs
 ---------------------------------------------------------------------------------
 (6) _isr                                                  9     9      0     820
                                              0 BANK0      9     9      0
                             _select
 ---------------------------------------------------------------------------------
 (7) _select                                               7     2      5     820
                                              0 COMMON     7     2      5
 ---------------------------------------------------------------------------------
 Estimated maximum stack depth 7
 ---------------------------------------------------------------------------------

 Call Graph Graphs:

 _main (ROOT)
   ___fladd
     ___flmul (ARG)
       __Umul8_16
       ___xxtofl (ARG)
         ___wmul (ARG)
         _celdaRead (ARG)
       _celdaRead (ARG)
     ___xxtofl (ARG)
       ___wmul (ARG)
       _celdaRead (ARG)
     _celdaRead (ARG)
   ___flmul
     __Umul8_16
     ___xxtofl (ARG)
       ___wmul (ARG)
       _celdaRead (ARG)
     _celdaRead (ARG)
   ___fltol
     ___fladd (ARG)
       ___flmul (ARG)
         __Umul8_16
         ___xxtofl (ARG)
           ___wmul (ARG)
           _celdaRead (ARG)
         _celdaRead (ARG)
       ___xxtofl (ARG)
         ___wmul (ARG)
         _celdaRead (ARG)
       _celdaRead (ARG)
     ___fldiv (ARG)
     ___flmul (ARG)
       __Umul8_16
       ___xxtofl (ARG)
         ___wmul (ARG)
         _celdaRead (ARG)
       _celdaRead (ARG)
     ___flsub (ARG)
       ___fladd
         ___flmul (ARG)
           __Umul8_16
           ___xxtofl (ARG)
             ___wmul (ARG)
             _celdaRead (ARG)
           _celdaRead (ARG)
         ___xxtofl (ARG)
           ___wmul (ARG)
           _celdaRead (ARG)
         _celdaRead (ARG)
       ___fldiv (ARG)
       ___wmul (ARG)
       ___xxtofl (ARG)
         ___wmul (ARG)
         _celdaRead (ARG)
     ___wmul (ARG)
     ___xxtofl (ARG)
       ___wmul (ARG)
       _celdaRead (ARG)
     _celdaRead (ARG)
   ___xxtofl
     ___wmul (ARG)
     _celdaRead (ARG)
   _celdaRead
   _setup
     _I2C_Slave_Init
     _celdaSetup
       _tarar
         ___fladd
           ___flmul (ARG)
             __Umul8_16
             ___xxtofl (ARG)
               ___wmul (ARG)
               _celdaRead (ARG)
             _celdaRead (ARG)
           ___xxtofl (ARG)
             ___wmul (ARG)
             _celdaRead (ARG)
           _celdaRead (ARG)
         ___flmul
           __Umul8_16
           ___xxtofl (ARG)
             ___wmul (ARG)
             _celdaRead (ARG)
           _celdaRead (ARG)
         ___fltol
           ___fladd (ARG)
             ___flmul (ARG)
               __Umul8_16
               ___xxtofl (ARG)
                 ___wmul (ARG)
                 _celdaRead (ARG)
               _celdaRead (ARG)
             ___xxtofl (ARG)
               ___wmul (ARG)
               _celdaRead (ARG)
             _celdaRead (ARG)
           ___fldiv (ARG)
           ___flmul (ARG)
             __Umul8_16
             ___xxtofl (ARG)
               ___wmul (ARG)
               _celdaRead (ARG)
             _celdaRead (ARG)
           ___flsub (ARG)
             ___fladd
               ___flmul (ARG)
                 __Umul8_16
                 ___xxtofl (ARG)
                   ___wmul (ARG)
                   _celdaRead (ARG)
                 _celdaRead (ARG)
               ___xxtofl (ARG)
                 ___wmul (ARG)
                 _celdaRead (ARG)
               _celdaRead (ARG)
             ___fldiv (ARG)
             ___wmul (ARG)
             ___xxtofl (ARG)
               ___wmul (ARG)
               _celdaRead (ARG)
           ___wmul (ARG)
           ___xxtofl (ARG)
             ___wmul (ARG)
             _celdaRead (ARG)
           _celdaRead (ARG)
         ___xxtofl
           ___wmul (ARG)
           _celdaRead (ARG)
         _celdaRead
   _weight
     ___fldiv
     ___flge
     ___flmul
       __Umul8_16
       ___xxtofl (ARG)
         ___wmul (ARG)
         _celdaRead (ARG)
       _celdaRead (ARG)
     ___flsub
       ___fladd
         ___flmul (ARG)
           __Umul8_16
           ___xxtofl (ARG)
             ___wmul (ARG)
             _celdaRead (ARG)
           _celdaRead (ARG)
         ___xxtofl (ARG)
           ___wmul (ARG)
           _celdaRead (ARG)
         _celdaRead (ARG)
       ___fldiv (ARG)
       ___wmul (ARG)
       ___xxtofl (ARG)
         ___wmul (ARG)
         _celdaRead (ARG)
     ___fltol
       ___fladd (ARG)
         ___flmul (ARG)
           __Umul8_16
           ___xxtofl (ARG)
             ___wmul (ARG)
             _celdaRead (ARG)
           _celdaRead (ARG)
         ___xxtofl (ARG)
           ___wmul (ARG)
           _celdaRead (ARG)
         _celdaRead (ARG)
       ___fldiv (ARG)
       ___flmul (ARG)
         __Umul8_16
         ___xxtofl (ARG)
           ___wmul (ARG)
           _celdaRead (ARG)
         _celdaRead (ARG)
       ___flsub (ARG)
         ___fladd
           ___flmul (ARG)
             __Umul8_16
             ___xxtofl (ARG)
               ___wmul (ARG)
               _celdaRead (ARG)
             _celdaRead (ARG)
           ___xxtofl (ARG)
             ___wmul (ARG)
             _celdaRead (ARG)
           _celdaRead (ARG)
         ___fldiv (ARG)
         ___wmul (ARG)
         ___xxtofl (ARG)
           ___wmul (ARG)
           _celdaRead (ARG)
       ___wmul (ARG)
       ___xxtofl (ARG)
         ___wmul (ARG)
         _celdaRead (ARG)
       _celdaRead (ARG)
     ___wmul
     ___xxtofl
       ___wmul (ARG)
       _celdaRead (ARG)

 _isr (ROOT)
   _select

 Address spaces:
Name               Size   Autos  Total    Cost      Usage
BANK3               60      5      15       9       21.9%
BITBANK3            60      0       0       8        0.0%
SFR3                 0      0       0       4        0.0%
BITSFR3              0      0       0       4        0.0%
BANK2               60      0       0      11        0.0%
BITBANK2            60      0       0      10        0.0%
SFR2                 0      0       0       5        0.0%
BITSFR2              0      0       0       5        0.0%
BANK1               50     4F      4F       7       98.8%
BITBANK1            50      0       0       6        0.0%
SFR1                 0      0       0       2        0.0%
BITSFR1              0      0       0       2        0.0%
BANK0               50     41      47       5       88.8%
BITBANK0            50      0       0       4        0.0%
SFR0                 0      0       0       1        0.0%
BITSFR0              0      0       0       1        0.0%
COMMON               E      7       E       1      100.0%
BITCOMMON            E      0       0       0        0.0%
CODE                 0      0       0       0        0.0%
DATA                 0      0      B9      12        0.0%
ABS                  0      0      B9       3        0.0%
NULL                 0      0       0       0        0.0%
STACK                0      0       0       2        0.0%
EEDATA             100      0       0       0        0.0%


Microchip Technology PIC Macro Assembler V2.10 build 88905656 
Symbol Table                                                                                   Sun Mar 15 11:39:07 2020

            ___fldiv@aexp 0042              ___fldiv@bexp 0041                         _z 0065  
            ___fldiv@sign 003A               __CFG_CP$OFF 0000               _SSPSTATbits 0094  
                      l20 07C8                        l21 07F7                        l13 12D9  
                      _BF 04A0                        l16 0786                        l26 0A01  
                      l19 078B                        _b1 0075                        _c1 0073  
                      _d1 0072                        _m1 0074                        _u1 0071  
     ___wmul@multiplicand 002B       __Umul8_16@word_mpld 002F                       l110 12A8  
                     l104 0B48                       l114 0FFF                       l223 1206  
                     l311 1251                       l309 1239                       l502 1340  
                     l505 1355                       l602 1507                       l606 15F2  
                     l710 0580                       l623 1706                       l615 17FF  
                     l608 15C0                       l704 04D2                       l633 175F  
                     l627 1738                       l483 13FC                       l644 17EB  
                     l636 17C0                       l660 077B                       l645 17FF  
                     l750 08F1                       l742 08C9                       l486 1468  
                     l495 1355                       l487 1481                       l736 0884  
                     l680 075F                       l648 122A                       l738 091B  
                     l682 076F                       l674 06ED                       l658 05FB  
                     l755 1268                       l757 127A                       l749 08E5  
                     l698 059E                       _GIE 005F              __CFG_CPD$OFF 0000  
                     _isr 1356                       fsr0 0004                       indf 0000  
            ___flmul@aexp 00A1              ___flmul@bexp 00A6              ___flmul@sign 00A0  
            ___flmul@temp 00AB              ___flmul@prod 00A7              __CFG_LVP$OFF 0000  
            ___fltol@exp1 00C7                      l3001 0A02                      l3011 0B30  
                    l3003 0A07                      l2301 05BB                      l3005 0A11  
                    l2311 05D3                      l2303 05C3                      l3007 0ACE  
                    l2161 087C                      l2401 06F7                      l2321 05E8  
                    l2313 05D9                      l2305 05C4                      l3009 0B2B  
                    l2171 08A7                      l2163 088C                      l2155 0863  
                    l2411 0735                      l2403 0705                      l2331 060F  
                    l2323 05F0                      l2315 05DD                      l2307 05C6  
                    l2181 08DB                      l2173 08AE                      l2157 0868  
                    l2421 0765                      l2413 0743                      l2405 0709  
                    l2333 0613                      l2325 05F1                      l2317 05DE  
                    l2309 05CE                      l2191 090E                      l2183 08DF  
                    l2175 08B2                      l2167 0895                      l2159 086C  
                    l2423 0769                      l2415 0752                      l2407 0722  
                    l2351 0654                      l2343 062A                      l2319 05E3  
                    l2327 05F3                      l2271 141C                      l2263 13DE  
                    l2601 14E3                      l1801 1314                      l2193 0912  
                    l2185 08E9                      l2177 08C0                      l2169 089A  
                    l2425 076B                      l2417 0756                      l2409 0728  
                    l2361 0672                      l2353 0656                      l2345 063C  
                    l2329 0603                      l2337 061C                      l2273 1440  
                    l2265 13F4                      l2603 14E9                      l2611 14FD  
                    l2195 0913                      l2187 08F3                      l2179 08D0  
                    l2419 075E                      l2355 065B                      l2363 067B  
                    l2371 06A0                      l2347 0644                      l2339 0621  
                    l2291 05A6                      l2275 1444                      l2267 1410  
                    l2701 16F8                      l2621 151F                      l2613 150F  
                    l2605 14EE                      l2189 0909                      l2381 06BD  
                    l2373 06A6                      l2365 068D                      l2357 066D  
                    l2349 064C                      l2293 05AC                      l2277 147E  
                    l2269 1418                      l2711 1731                      l2703 1710  
                    l2631 1543                      l2623 1523                      l2615 1513  
                    l2607 14F8                      l1815 1335                      l1807 131C  
                    l2391 06D2                      l2383 06BE                      l2375 06AE  
                    l2367 068E                      l2359 0671                      l2295 05B0  
                    l2279 1480                      l2721 1747                      l2713 1735  
                    l2705 1717                      l2641 156D                      l2633 154D  
                    l2625 152B                      l2617 1517                      l2609 14FB  
                    l2561 1262                      l2801 00C3                      l1817 1345  
                    l1809 132E                      l2393 06D6                      l2385 06C7  
                    l2377 06B0                      l2369 069C                      l2297 05B1  
                    l2289 059F                      l2731 175B                      l2715 173D  
                    l2723 1749                      l2651 159E                      l2643 1573  
                    l2635 1555                      l2627 1535                      l2619 151B  
                    l2571 148B                      l2563 1271                      l2555 1255  
                    l2811 0108                      l2803 00C8                      l1819 134A  
                    l2395 06EA                      l2379 06B9                      l2387 06CD  
                    l2299 05B6                      l2741 1780                      l2717 1740  
                    l2709 1722                      l2725 174F                      l2661 15D8  
                    l2653 15C4                      l2645 157D                      l2637 155B  
                    l2629 153D                      l2581 14A9                      l2573 1495  
                    l2565 1276                      l2557 1257                      l2821 0215  
                    l2813 013D                      l1781 07CD                      l2389 06D1  
                    l2751 17DC                      l2743 17BC                      l2735 1766  
                    l2727 1751                      l2719 1742                      l2663 15E6  
                    l2655 15CD                      l2639 1565                      l2647 1585  
                    l2591 14C9                      l2583 14B3                      l2575 149B  
                    l2559 125E                      l2831 02BC                      l2823 0224  
                    l2815 016D                      l2807 00D3                      l1791 12F0  
                    l1775 0791                      l1767 077C                      l2911 093A  
                    l2903 091C                      l2399 06F2                      l2761 17FC  
                    l2753 17DD                      l2745 17C6                      l2737 176C  
                    l2729 1755                      l2681 1632                      l2673 1606  
                    l2657 15CF                      l2665 15EA                      l2649 1587  
                    l2593 14CF                      l2585 14B6                      l2577 149E  
                    l2569 1482                      l2841 03C8                      l2833 02E1  
                    l2825 023A                      l2817 01B5                      l2809 00EB  
                    l1793 1305                      l1785 12DA                      l1777 07AA  
                    l1769 078A                      l2913 0942                      l2905 0939  
                    l2755 17E1                      l2747 17CB                      l2739 177C  
                    l2683 1634                      l2675 161F                      l2667 15F6  
                    l2691 1650                      l2659 15D5                      l2595 14D0  
                    l2579 14A4                      l2587 14B8                      l2851 0484  
                    l2843 0406                      l2835 0316                      l2827 026F  
                    l2819 01E5                      l2771 005C                      l2763 0040  
                    l1795 1306                      l1787 12E7                      l1779 07BE  
                    l2915 09EF                      l2931 12C2                      l2923 12A9  
                    l2941 11FC                      l2757 17E5                      l2749 17D5  
                    l2693 1668                      l2685 163A                      l2677 1623  
                    l2669 15FB                      l2597 14DA                      l2589 14C2  
                    l2861 04A6                      l2853 048A                      l2845 044E  
                    l2837 0363                      l2829 0287                      l2781 007F  
                    l2773 0063                      l2765 0049                      l1797 130E  
                    l2917 09F3                      l2933 12C2                      l2925 12AD  
                    l2951 1203                      l2943 11FD                      l2759 17F6  
                    l2695 16DA                      l2687 163D                      l2679 1629  
                    l2599 14E0                      l2871 04D9                      l2863 04A7  
                    l2855 048B                      l2847 045D                      l2839 037B  
                    l2791 00A0                      l2783 0086                      l2775 0068  
                    l2767 0053                      l1799 1310                      l2919 09F9  
                    l2935 12D1                      l2927 12B0                      l2945 11FE  
                    l2697 16E2                      l2689 164B                      l2873 04DE  
                    l2881 052B                      l2865 04AB                      l2857 049A  
                    l2849 0475                      l2793 00A5                      l2785 0090  
                    l2777 0072                      l2769 0059                      l2929 12B3  
                    l2961 1247                      l2953 122B                      l2947 11FF  
                    l2939 11EE                      l2699 16E7                      l2891 055E  
                    l2883 0538                      l2875 04EC                      l2867 04CD  
                    l2859 04A2                      l2795 00AF                      l2787 0096  
                    l2779 0075                      l2963 124D                      l2955 122F  
                    l2949 1200                      l2893 0570                      l2885 0543  
                    l2877 04F0                      l2797 00B2                      l2789 0099  
                    l2973 127B                      l2957 1233                      l2895 0574  
                    l2887 0552                      l2879 0525                      l2799 00BC  
                    l2975 1298                      l2967 1207                      l2959 1240  
                    l2991 0FE3                      l2983 0B5A                      l2897 0575  
                    l2889 055C                      l2977 12A0                      l2969 120B  
                    l2993 0FEA                      l2985 0BDF                      l2899 0588  
                    l2979 12A2                      l2995 0FF1                      l2987 0C06  
                    l2997 0FF8                      l2989 0FDA                      ?_isr 0077  
                    u3000 13F4                      u3001 13F3                      u3010 1410  
                    u3011 140F                      u3100 05DD                      u3020 141C  
                    u3101 05DC                      u3021 141B                      u3110 05E3  
                    u3111 05E2                      u3031 142B                      u4000 17DC  
                    u3200 068D                      u3120 05E8                      u3040 1444  
                    u3032 142C                      u4001 17DB                      u3201 068C  
                    u3121 05E7                      u3041 1443                      u3033 1431  
                    u4010 17E1                      u3210 06A6                      u3130 0603  
                    u3034 1432                      u4011 17E0                      u3211 06A5  
                    u3131 0602                      u3051 1453                      u3035 1437  
                    u4020 17FC                      u4100 00C8                      u3300 06F7  
                    u3220 06AE                      u3140 0621                      u3060 147E  
                    u3052 1454                      u3036 1438                      u4021 17FB  
                    u4101 00C7                      u3301 06F6                      u3221 06AD  
                    u3205 0689                      u3141 0620                      u3061 147D  
                    u3053 1459                      u4030 0059                      u3310 0709  
                    u3150 065B                      u3070 05B0                      u3054 145A  
                    u4111 0153                      u4031 0058                      u3311 0708  
                    u3151 065A                      u3071 05AF                      u3055 145F  
                    u4112 015E                      u4040 0063                      u3320 0718  
                    u3240 06BD                      u3080 05B6                      u3056 1460  
                    u4201 0349                      u4121 0183                      u4113 0169  
                    u4041 0062                      u3241 06BC                      u3081 05B5  
                    u3065 147A                      u4202 0354                      u4122 018E  
                    u4050 0068                      u3330 0735                      u3090 05BB  
                    u4211 0396                      u4203 035F                      u4131 01CB  
                    u4123 0199                      u4051 0067                      u3331 0734  
                    u3235 06B2                      u3091 05BA                      u4300 04A6  
                    u4220 03DA                      u4212 03A1                      u4132 01D6  
                    u4060 0096                      u1900 1314                      u3340 0752  
                    u3260 06D1                      u3180 0671                      u4301 04A5  
                    u4213 03AC                      u4141 01FB                      u4133 01E1  
                    u4061 0095                      u1901 1313                      u3341 0751  
                    u3325 0713                      u3261 06D0                      u3181 0670  
                    u3165 065D                      u4310 04AB                      u4142 0206  
                    u4070 00A0                      u1910 131B                      u3350 0769  
                    u3270 06D6                      u4311 04AA                      u4231 03EC  
                    u4143 0211                      u4071 009F                      u1911 131A  
                    u3351 0768                      u3335 0731                      u3271 06D5  
                    u3255 06C0                      u3175 0666                      u3600 14CF  
                    u4320 04CD                      u4240 0422                      u4232 03F7  
                    u4080 00A5                      u1840 078A                      u4400 09F9  
                    u3280 06EA                      u3601 14CE                      u4321 04CC  
                    u4233 0402                      u4225 03D5                      u4161 0255  
                    u4081 00A4                      u1841 0789                      u4401 09F8  
                    u3345 074E                      u3281 06E9                      u3610 14E0  
                    u4330 04D8                      u4162 0260                      u4090 00C3  
                    u1930 132D                      u2810 0868                      u3290 06F1  
                    u4410 1233                      u3611 14DF                      u4331 04D7  
                    u4251 0434                      u4171 02A2                      u4163 026B  
                    u4155 0219                      u4091 00C2                      u1931 132C  
                    u2811 0867                      u3291 06F0                      u3195 0674  
                    u4411 1232                      u3700 15D5                      u3620 14E9  
                    u3540 1262                      u4340 04DE                      u4252 043F  
                    u4172 02AD                      u1940 1334                      u2900 08E5  
                    u2820 086C                      u1860 07C8                      u3701 15D4  
                    u3621 14E8                      u3541 1261                      u4341 04DD  
                    u4253 044A                      u4245 041D                      u4173 02B8  
                    u1941 1333                      u1925 131D                      u2901 08E4  
                    u2821 086B                      u1861 07C7                      u3630 14EE  
                    u4350 04F0                      u2910 08E9                      u2830 088C  
                    u1870 07DC                      u3631 14ED                      u4351 04EF  
                    u4191 02FC                      u2911 08E8                      u2831 088B  
                    u1871 07DD                      u1855 0795                      u3800 1668  
                    u3720 15F2                      u3640 150F                      u3560 1276  
                    u4360 050D                      u4280 048A                      u4192 0307  
                    u1960 1345                      u1880 12E7                      u2920 08FE  
                    u1872 07E2                      u4440 124D                      u3801 1667  
                    u3721 15F1                      u3641 150E                      u3561 1275  
                    u4281 0489                      u4265 0452                      u4193 0312  
                    u4185 02C0                      u1961 1344                      u1881 12E6  
                    u1873 07E3                      u4441 124C                      u4425 123A  
                    u3730 15F6                      u3650 1513                      u3570 149B  
                    u4370 0538                      u1970 134A                      u1890 12FE  
                    u2930 090E                      u2850 08AD                      u3811 1697  
                    u3803 1664                      u3731 15F5                      u3715 15DB  
                    u3651 1512                      u3571 149A                      u3555 1269  
                    u4371 0537                      u4275 0479                      u1971 1349  
                    u1955 1337                      u2931 090D                      u2851 08AC  
                    u4507 12BB                      u4435 1241                      u4451 0B7D  
                    _PEIE 005E                      u3900 174F                      u3820 16B9  
                    u3812 169A                      u3740 15FB                      u3660 159E  
                    u3580 14A4                      u4380 0552                      u2940 0912  
                    u4460 0B91                      u4452 0B7E                      u3901 174E  
                    u3821 16BA                      u3813 16A1                      u3741 15FA  
                    u3661 159D                      u3581 14A3                      u4381 0551  
                    u4365 0508                      u2941 0911                      u2925 08F9  
                    u2845 089F                      u4461 0B92                      u4453 0B83  
                    u3910 1755                      u3830 16E7                      u3822 16BF  
                    u3814 16A4                      u3670 15A9                      u3590 14A9  
                    u4390 0574                      u2870 08CF                      u4470 0C06  
                    u4462 0B97                      u4454 0B84                      u3911 1754  
                    u3831 16E6                      u3823 16C0                      u3815 16AB  
                    u3751 1611                      u3671 15A7                      u3591 14A8  
                    u4391 0573                      u4375 0534                      u4295 048F  
                    u1895 12F9                      u2871 08CE                      u4471 0C05  
                    u4463 0B98                      u4455 0B89                      u3920 175B  
                    u3840 1710                      u3816 16AE                      u3760 1623  
                    u3752 1618                      u3680 15AA                      u4456 0B8A  
                    u4480 0B30                      u3921 175A                      u3841 170F  
                    u3761 1622                      u3753 161F                      u3665 159A  
                    u4385 054E                      u2865 08C1                      u4481 0B2F  
                    u3930 1765                      u3850 1717                      u3770 1629  
                    u3690 15C4                      u2890 08DF                      u3931 1764  
                    u3851 1716                      u3771 1628                      u3691 15C3  
                    u2891 08DE                      u3940 176C                      u3780 163A  
                    u3941 176B                      u3781 1639                      u2885 08D4  
                    u3950 1780                      u3870 1735                      u3951 177F  
                    u3871 1734                      u3960 179D                      u3880 173D  
                    u3881 173C                      u3865 1726                      u4497 0B50  
                    i1l90 137C                      u3970 17BC                      u3890 1747  
                    u3971 17BB                      u3891 1746                      u3795 1640  
                    u3980 17C6                      i1l93 13D2                      u3981 17C5  
                    u3965 1798                      u3990 17CB                      i1l95 13CC  
                    u3991 17CA                      i1l89 1390                      i1l98 13D5  
            __CFG_WRT$OFF 0000                      _main 0A02                      _peso 0198  
                    _tare 0190                      btemp 007E                      start 0010  
           __CFG_IESO$OFF 0000           ___fldiv@new_exp 003B                     ??_isr 0020  
           ___fltol@sign1 00C6           __end_of___fladd 1800                     ?_main 0077  
         __end_of___fldiv 077C             __CFG_WDTE$OFF 0000           __end_of___flmul 059F  
         __end_of___flsub 122B           __end_of___fltol 1356                     _ANSEL 0188  
                   i1l118 085F                     _PORTB 0006                     _TRISB 0086  
                   _TRISD 0088                     _SSPIE 0463                     _SSPIF 0063  
          __CFG_FCMEN$OFF 0000                     _peso1 0061                     _tarar 091C  
                   _setup 127B            __CFG_BOREN$OFF 0000                     pclath 000A  
                   status 0003                     wtemp0 007E            __CFG_MCLRE$OFF 0000  
         __initialization 0013              __end_of_main 0B5A                    ??_main 019C  
                  ?_tarar 00C8                    ?_setup 0077                    _ANSELH 0189  
                  i1l2431 0805                    i1l2511 1367                    i1l2503 1356  
                  i1l2441 081E                    i1l2433 080C                    i1l2521 1374  
                  i1l2513 1368                    i1l2505 135A                    i1l2451 083A  
                  i1l2443 0827                    i1l2435 0815                    i1l2531 1398  
                  i1l2523 137A                    i1l2515 1369                    i1l2507 135F  
                  i1l2541 13C5                    i1l2533 139E                    i1l2525 137B  
                  i1l2517 136A                    i1l2509 1363                    i1l2471 085C  
                  i1l2463 084F                    i1l2455 083C                    i1l2447 0829  
                  i1l2439 0817                    i1l2535 13A1                    i1l2527 1382  
                  i1l2519 1370                    i1l2465 0857                    i1l2457 0844  
                  i1l2449 0831                    i1l2537 13C2                    i1l2529 1394  
                  i1l2467 085A                    i1l2459 084D                    i1l2539 13C4  
                  _INTCON 000B                    u340_20 0857                    u340_21 0856  
                  u350_20 1394                    u350_21 1393                    u351_20 1398  
                  u351_21 1397                    u336_20 080C                    u352_20 13D2  
                  u344_20 135A                    u336_21 080B                    u352_21 13D1  
                  u344_21 1359                    u337_20 081E                    u345_20 135F  
                  u337_21 081D                    u345_21 135E                    u338_20 0831  
                  u346_20 1363                    u338_21 0830                    u346_21 1362  
                  u339_20 0844                    u347_20 1370                    u339_21 0843  
                  u347_21 136F                    u451_27 138C                    u348_20 1374  
                  u348_21 1373                    u452_27 13C9                    u349_20 1382  
                  u349_21 1381                    _SSPADD 0093                    _TRISC3 043B  
                  _TRISC4 043C                    _SSPBUF 0013                    _SSPCON 0014  
        __end_of___xxtofl 091C            __CFG_PWRTE$OFF 0000                    ___flge 13DE  
               ??___fladd 0055                    ___wmul 122B                 ??___fldiv 0031  
               ??___flmul 0050                 ??___flsub 0061                 ??___fltol 00C1  
                  _lambda 01A1                    _borrar 0066                    _mandar 0070  
                  _select 0804                    _weight 0B5A        __size_of__Umul8_16 0029  
                  tarar@i 00D5                    saved_w 007E                ___flge@ff1 0029  
              ___flge@ff2 002D              ___xxtofl@arg 0044              ___xxtofl@exp 0043  
            ___xxtofl@val 003A   __end_of__initialization 003C                ___fltol@f1 00BD  
          __pcstackCOMMON 0077              __pidataBANK3 07F8   __size_of_I2C_Slave_Init 001C  
      __size_of_celdaRead 007C             __end_of_tarar 0A02             __end_of_setup 12A9  
                 ??_tarar 00CC                   ??_setup 0061     I2C_Slave_Init@address 0029  
              _celdaSetup 12A9                __pbssBANK0 0061         __end_of__Umul8_16 127B  
              __pmaintext 0A02                   ?___flge 0029                   ?___wmul 0029  
              __pintentry 0004                   ?_select 0077                   ?_weight 00C8  
          celdaRead@valor 0036                 ?___xxtofl 003A               tarar@pasado 00CD  
                 _SSPCON2 0091         __end_of_celdaRead 07F8                   _SSPSTAT 0094  
              celdaRead@i 0035                celdaRead@v 0031           __size_of___flge 00A4  
                 ___fladd 1482                   ___fldiv 059F                   ___flmul 0040  
                 ___flsub 1207                   ___fltol 12DA           __size_of___wmul 0027  
         __size_of_select 005C                   __ptext1 0B5A                   __ptext2 122B  
                 __ptext3 1207                   __ptext4 13DE                   __ptext5 059F  
                 __ptext6 127B                   __ptext7 12A9                   __ptext8 091C  
                 __ptext9 077C           __size_of_weight 04A6              __size_of_isr 0088  
              ??___xxtofl 003E            celdaSetup@tare 00DD               ?_celdaSetup 00D6  
    end_of_initialization 003C                   select@a 007D                   select@b 0077  
                 select@c 0078                   select@d 0079                   select@e 007A  
                 weight@b 00EA                   weight@c 00E8                   weight@d 00E7  
                 weight@m 00E9                   weight@u 00E6            _I2C_Slave_Init 11EB  
               _PORTAbits 0005                 _PORTDbits 0008               ___fladd@grs 0060  
           ___xxtofl@sign 0042               weight@valor 00C8                 _TRISAbits 0085  
               _TRISCbits 0087               ___fldiv@grs 003D               ___fldiv@rem 0036  
             ___flmul@grs 00A2    __end_of_I2C_Slave_Init 1207            __end_of___flge 1482  
          __end_of___wmul 1252       __size_of_celdaSetup 0031            __end_of_select 0860  
          __end_of_weight 1000       start_initialization 0013               __end_of_isr 13DE  
__CFG_FOSC$INTRC_NOCLKOUT 0000           ?_I2C_Slave_Init 0077                  ??___flge 0031  
                ??___wmul 002D                 __Umul8_16 1252               __pdataBANK3 01A1  
                ??_select 007C                  ??_weight 00D5                 ___fladd@a 00B1  
               ___fladd@b 00AD                 ___fldiv@a 0029                 ___fldiv@b 002D  
               ___flmul@a 004C                 ___flmul@b 0048               __pbssCOMMON 0070  
               ___flsub@a 00B5                 ___flsub@b 00B9                 ___latbits 0002  
           __pcstackBANK0 0020             __pcstackBANK1 00A0             __pcstackBANK3 019C  
       __size_of___xxtofl 00BC                 _celdaRead 077C                 __pnvBANK3 0190  
                ?___fladd 00AD                  ?___fldiv 0029                  ?___flmul 0048  
                ?___flsub 00B5                  ?___fltol 00BD                ?__Umul8_16 0029  
              tarar@total 00D1              ??_celdaSetup 00DA            __size_of_tarar 00E6  
          __size_of_setup 002E         interrupt_function 0004            ___wmul@product 002D  
              ?_celdaRead 0029                  _PIR1bits 000C                weight@conv 00EB  
              weight@tare 00CC        __end_of_celdaSetup 12DA         ___wmul@multiplier 0029  
             ??__Umul8_16 002B          __size_of___fladd 037E          __size_of___fldiv 01DD  
        __size_of___flmul 055F          __size_of___flsub 0024          __size_of___fltol 007C  
                ___xxtofl 0860                  __ptext10 0860                  __ptext11 12DA  
                __ptext12 0040                  __ptext13 1252                  __ptext14 1482  
                __ptext15 11EB                  __ptext16 1356                  __ptext17 0804  
       __CFG_BOR4V$BOR40V 0000                  _contador 0076          ??_I2C_Slave_Init 0029  
             ??_celdaRead 002D             __size_of_main 0158               _peso_pasado 0194  
                intlevel1 0000            select@contador 007B                  weight@v0 00D1  
                weight@v1 00D2                  weight@v2 00D3                  weight@v3 00D4  
                weight@v4 00D0    __Umul8_16@multiplicand 0029               _SSPCON2bits 0091  
           ___fladd@signs 005D              ___fladd@aexp 005E              ___fladd@bexp 005F  
    __Umul8_16@multiplier 0031                _SSPCONbits 0014         __Umul8_16@product 002D  
