

Microchip MPLAB XC8 Assembler V2.10 build 88905656 
                                                                                               Tue Mar 17 13:31:46 2020

Microchip MPLAB XC8 C Compiler v2.10 (Free license) build 20190730164152 Og1 
     1                           	processor	16F887
     2                           	opt	pw 120
     3                           	opt	flic
     4                           	psect	cinit,global,class=CODE,merge=1,delta=2
     5                           	psect	bssCOMMON,global,class=COMMON,space=1,delta=1
     6                           	psect	bssBANK0,global,class=BANK0,space=1,delta=1
     7                           	psect	bssBANK1,global,class=BANK1,space=1,delta=1
     8                           	psect	cstackBANK1,global,class=BANK1,space=1,delta=1
     9                           	psect	cstackCOMMON,global,class=COMMON,space=1,delta=1
    10                           	psect	cstackBANK0,global,class=BANK0,space=1,delta=1
    11                           	psect	maintext,global,class=CODE,split=1,delta=2
    12                           	psect	text1,local,class=CODE,merge=1,delta=2
    13                           	psect	text2,local,class=CODE,merge=1,delta=2
    14                           	psect	text3,local,class=CODE,merge=1,delta=2
    15                           	psect	text4,local,class=CODE,merge=1,delta=2
    16                           	psect	text5,local,class=CODE,merge=1,delta=2
    17                           	psect	text6,local,class=CODE,merge=1,delta=2
    18                           	psect	text7,local,class=CODE,merge=1,delta=2
    19                           	psect	text8,local,class=CODE,merge=1,delta=2,group=1
    20                           	psect	text9,local,class=CODE,merge=1,delta=2,group=1
    21                           	psect	text10,local,class=CODE,merge=1,delta=2,group=1
    22                           	psect	text11,local,class=CODE,merge=1,delta=2,group=1
    23                           	psect	text12,local,class=CODE,merge=1,delta=2,group=1
    24                           	psect	text13,local,class=CODE,merge=1,delta=2,group=1
    25                           	psect	text14,local,class=CODE,merge=1,delta=2
    26                           	psect	intentry,global,class=CODE,delta=2
    27                           	psect	text15,local,class=CODE,merge=1,delta=2
    28                           	dabs	1,0x7E,2
    29  0000                     
    30                           ; Version 2.10
    31                           ; Generated 31/07/2019 GMT
    32                           ; 
    33                           ; Copyright © 2019, Microchip Technology Inc. and its subsidiaries ("Microchip")
    34                           ; All rights reserved.
    35                           ; 
    36                           ; This software is developed by Microchip Technology Inc. and its subsidiaries ("Microch
      +                          ip").
    37                           ; 
    38                           ; Redistribution and use in source and binary forms, with or without modification, are
    39                           ; permitted provided that the following conditions are met:
    40                           ; 
    41                           ;     1. Redistributions of source code must retain the above copyright notice, this lis
      +                          t of
    42                           ;        conditions and the following disclaimer.
    43                           ; 
    44                           ;     2. Redistributions in binary form must reproduce the above copyright notice, this 
      +                          list
    45                           ;        of conditions and the following disclaimer in the documentation and/or other
    46                           ;        materials provided with the distribution.
    47                           ; 
    48                           ;     3. Microchip's name may not be used to endorse or promote products derived from th
      +                          is
    49                           ;        software without specific prior written permission.
    50                           ; 
    51                           ; THIS SOFTWARE IS PROVIDED BY MICROCHIP "AS IS" AND ANY EXPRESS OR IMPLIED WARRANTIES,
    52                           ; INCLUDING, BUT NOT LIMITED TO, THE IMPLIED WARRANTIES OF MERCHANTABILITY AND FITNESS F
      +                          OR
    53                           ; PURPOSE ARE DISCLAIMED.  IN NO EVENT SHALL MICROCHIP BE LIABLE FOR ANY DIRECT, INDIREC
      +                          T,
    54                           ; INCIDENTAL, SPECIAL, EXEMPLARY, OR CONSEQUENTIAL DAMAGES (INCLUDING BUT NOT LIMITED TO
    55                           ; PROCUREMENT OF SUBSTITUTE GOODS OR SERVICES; LOSS OF USE, DATA OR PROFITS; OR BUSINESS
    56                           ; INTERRUPTION) HOWSOEVER CAUSED AND ON ANY THEORY OF LIABILITY, WHETHER IN CONTRACT, ST
      +                          RICT
    57                           ; LIABILITY, OR TORT (INCLUDING NEGLIGENCE OR OTHERWISE) ARISING IN ANY WAY OUT OF THE U
      +                          SE OF
    58                           ; THIS SOFTWARE, EVEN IF ADVISED OF THE POSSIBILITY OF SUCH DAMAGE.
    59                           ; 
    60                           ; 
    61                           ; Code-generator required, PIC16F887 Definitions
    62                           ; 
    63                           ; SFR Addresses
    64  0000                     	;# 
    65  0001                     	;# 
    66  0002                     	;# 
    67  0003                     	;# 
    68  0004                     	;# 
    69  0005                     	;# 
    70  0006                     	;# 
    71  0007                     	;# 
    72  0008                     	;# 
    73  0009                     	;# 
    74  000A                     	;# 
    75  000B                     	;# 
    76  000C                     	;# 
    77  000D                     	;# 
    78  000E                     	;# 
    79  000E                     	;# 
    80  000F                     	;# 
    81  0010                     	;# 
    82  0011                     	;# 
    83  0012                     	;# 
    84  0013                     	;# 
    85  0014                     	;# 
    86  0015                     	;# 
    87  0015                     	;# 
    88  0016                     	;# 
    89  0017                     	;# 
    90  0018                     	;# 
    91  0019                     	;# 
    92  001A                     	;# 
    93  001B                     	;# 
    94  001B                     	;# 
    95  001C                     	;# 
    96  001D                     	;# 
    97  001E                     	;# 
    98  001F                     	;# 
    99  0081                     	;# 
   100  0085                     	;# 
   101  0086                     	;# 
   102  0087                     	;# 
   103  0088                     	;# 
   104  0089                     	;# 
   105  008C                     	;# 
   106  008D                     	;# 
   107  008E                     	;# 
   108  008F                     	;# 
   109  0090                     	;# 
   110  0091                     	;# 
   111  0092                     	;# 
   112  0093                     	;# 
   113  0093                     	;# 
   114  0093                     	;# 
   115  0094                     	;# 
   116  0095                     	;# 
   117  0096                     	;# 
   118  0097                     	;# 
   119  0098                     	;# 
   120  0099                     	;# 
   121  009A                     	;# 
   122  009B                     	;# 
   123  009C                     	;# 
   124  009D                     	;# 
   125  009E                     	;# 
   126  009F                     	;# 
   127  0105                     	;# 
   128  0107                     	;# 
   129  0108                     	;# 
   130  0109                     	;# 
   131  010C                     	;# 
   132  010C                     	;# 
   133  010D                     	;# 
   134  010E                     	;# 
   135  010F                     	;# 
   136  0185                     	;# 
   137  0187                     	;# 
   138  0188                     	;# 
   139  0189                     	;# 
   140  018C                     	;# 
   141  018D                     	;# 
   142  0000                     	;# 
   143  0001                     	;# 
   144  0002                     	;# 
   145  0003                     	;# 
   146  0004                     	;# 
   147  0005                     	;# 
   148  0006                     	;# 
   149  0007                     	;# 
   150  0008                     	;# 
   151  0009                     	;# 
   152  000A                     	;# 
   153  000B                     	;# 
   154  000C                     	;# 
   155  000D                     	;# 
   156  000E                     	;# 
   157  000E                     	;# 
   158  000F                     	;# 
   159  0010                     	;# 
   160  0011                     	;# 
   161  0012                     	;# 
   162  0013                     	;# 
   163  0014                     	;# 
   164  0015                     	;# 
   165  0015                     	;# 
   166  0016                     	;# 
   167  0017                     	;# 
   168  0018                     	;# 
   169  0019                     	;# 
   170  001A                     	;# 
   171  001B                     	;# 
   172  001B                     	;# 
   173  001C                     	;# 
   174  001D                     	;# 
   175  001E                     	;# 
   176  001F                     	;# 
   177  0081                     	;# 
   178  0085                     	;# 
   179  0086                     	;# 
   180  0087                     	;# 
   181  0088                     	;# 
   182  0089                     	;# 
   183  008C                     	;# 
   184  008D                     	;# 
   185  008E                     	;# 
   186  008F                     	;# 
   187  0090                     	;# 
   188  0091                     	;# 
   189  0092                     	;# 
   190  0093                     	;# 
   191  0093                     	;# 
   192  0093                     	;# 
   193  0094                     	;# 
   194  0095                     	;# 
   195  0096                     	;# 
   196  0097                     	;# 
   197  0098                     	;# 
   198  0099                     	;# 
   199  009A                     	;# 
   200  009B                     	;# 
   201  009C                     	;# 
   202  009D                     	;# 
   203  009E                     	;# 
   204  009F                     	;# 
   205  0105                     	;# 
   206  0107                     	;# 
   207  0108                     	;# 
   208  0109                     	;# 
   209  010C                     	;# 
   210  010C                     	;# 
   211  010D                     	;# 
   212  010E                     	;# 
   213  010F                     	;# 
   214  0185                     	;# 
   215  0187                     	;# 
   216  0188                     	;# 
   217  0189                     	;# 
   218  018C                     	;# 
   219  018D                     	;# 
   220  0000                     	;# 
   221  0001                     	;# 
   222  0002                     	;# 
   223  0003                     	;# 
   224  0004                     	;# 
   225  0005                     	;# 
   226  0006                     	;# 
   227  0007                     	;# 
   228  0008                     	;# 
   229  0009                     	;# 
   230  000A                     	;# 
   231  000B                     	;# 
   232  000C                     	;# 
   233  000D                     	;# 
   234  000E                     	;# 
   235  000E                     	;# 
   236  000F                     	;# 
   237  0010                     	;# 
   238  0011                     	;# 
   239  0012                     	;# 
   240  0013                     	;# 
   241  0014                     	;# 
   242  0015                     	;# 
   243  0015                     	;# 
   244  0016                     	;# 
   245  0017                     	;# 
   246  0018                     	;# 
   247  0019                     	;# 
   248  001A                     	;# 
   249  001B                     	;# 
   250  001B                     	;# 
   251  001C                     	;# 
   252  001D                     	;# 
   253  001E                     	;# 
   254  001F                     	;# 
   255  0081                     	;# 
   256  0085                     	;# 
   257  0086                     	;# 
   258  0087                     	;# 
   259  0088                     	;# 
   260  0089                     	;# 
   261  008C                     	;# 
   262  008D                     	;# 
   263  008E                     	;# 
   264  008F                     	;# 
   265  0090                     	;# 
   266  0091                     	;# 
   267  0092                     	;# 
   268  0093                     	;# 
   269  0093                     	;# 
   270  0093                     	;# 
   271  0094                     	;# 
   272  0095                     	;# 
   273  0096                     	;# 
   274  0097                     	;# 
   275  0098                     	;# 
   276  0099                     	;# 
   277  009A                     	;# 
   278  009B                     	;# 
   279  009C                     	;# 
   280  009D                     	;# 
   281  009E                     	;# 
   282  009F                     	;# 
   283  0105                     	;# 
   284  0107                     	;# 
   285  0108                     	;# 
   286  0109                     	;# 
   287  010C                     	;# 
   288  010C                     	;# 
   289  010D                     	;# 
   290  010E                     	;# 
   291  010F                     	;# 
   292  0185                     	;# 
   293  0187                     	;# 
   294  0188                     	;# 
   295  0189                     	;# 
   296  018C                     	;# 
   297  018D                     	;# 
   298  0000                     	;# 
   299  0001                     	;# 
   300  0002                     	;# 
   301  0003                     	;# 
   302  0004                     	;# 
   303  0005                     	;# 
   304  0006                     	;# 
   305  0007                     	;# 
   306  0008                     	;# 
   307  0009                     	;# 
   308  000A                     	;# 
   309  000B                     	;# 
   310  000C                     	;# 
   311  000D                     	;# 
   312  000E                     	;# 
   313  000E                     	;# 
   314  000F                     	;# 
   315  0010                     	;# 
   316  0011                     	;# 
   317  0012                     	;# 
   318  0013                     	;# 
   319  0014                     	;# 
   320  0015                     	;# 
   321  0015                     	;# 
   322  0016                     	;# 
   323  0017                     	;# 
   324  0018                     	;# 
   325  0019                     	;# 
   326  001A                     	;# 
   327  001B                     	;# 
   328  001B                     	;# 
   329  001C                     	;# 
   330  001D                     	;# 
   331  001E                     	;# 
   332  001F                     	;# 
   333  0081                     	;# 
   334  0085                     	;# 
   335  0086                     	;# 
   336  0087                     	;# 
   337  0088                     	;# 
   338  0089                     	;# 
   339  008C                     	;# 
   340  008D                     	;# 
   341  008E                     	;# 
   342  008F                     	;# 
   343  0090                     	;# 
   344  0091                     	;# 
   345  0092                     	;# 
   346  0093                     	;# 
   347  0093                     	;# 
   348  0093                     	;# 
   349  0094                     	;# 
   350  0095                     	;# 
   351  0096                     	;# 
   352  0097                     	;# 
   353  0098                     	;# 
   354  0099                     	;# 
   355  009A                     	;# 
   356  009B                     	;# 
   357  009C                     	;# 
   358  009D                     	;# 
   359  009E                     	;# 
   360  009F                     	;# 
   361  0105                     	;# 
   362  0107                     	;# 
   363  0108                     	;# 
   364  0109                     	;# 
   365  010C                     	;# 
   366  010C                     	;# 
   367  010D                     	;# 
   368  010E                     	;# 
   369  010F                     	;# 
   370  0185                     	;# 
   371  0187                     	;# 
   372  0188                     	;# 
   373  0189                     	;# 
   374  018C                     	;# 
   375  018D                     	;# 
   376  0000                     	;# 
   377  0001                     	;# 
   378  0002                     	;# 
   379  0003                     	;# 
   380  0004                     	;# 
   381  0005                     	;# 
   382  0006                     	;# 
   383  0007                     	;# 
   384  0008                     	;# 
   385  0009                     	;# 
   386  000A                     	;# 
   387  000B                     	;# 
   388  000C                     	;# 
   389  000D                     	;# 
   390  000E                     	;# 
   391  000E                     	;# 
   392  000F                     	;# 
   393  0010                     	;# 
   394  0011                     	;# 
   395  0012                     	;# 
   396  0013                     	;# 
   397  0014                     	;# 
   398  0015                     	;# 
   399  0015                     	;# 
   400  0016                     	;# 
   401  0017                     	;# 
   402  0018                     	;# 
   403  0019                     	;# 
   404  001A                     	;# 
   405  001B                     	;# 
   406  001B                     	;# 
   407  001C                     	;# 
   408  001D                     	;# 
   409  001E                     	;# 
   410  001F                     	;# 
   411  0081                     	;# 
   412  0085                     	;# 
   413  0086                     	;# 
   414  0087                     	;# 
   415  0088                     	;# 
   416  0089                     	;# 
   417  008C                     	;# 
   418  008D                     	;# 
   419  008E                     	;# 
   420  008F                     	;# 
   421  0090                     	;# 
   422  0091                     	;# 
   423  0092                     	;# 
   424  0093                     	;# 
   425  0093                     	;# 
   426  0093                     	;# 
   427  0094                     	;# 
   428  0095                     	;# 
   429  0096                     	;# 
   430  0097                     	;# 
   431  0098                     	;# 
   432  0099                     	;# 
   433  009A                     	;# 
   434  009B                     	;# 
   435  009C                     	;# 
   436  009D                     	;# 
   437  009E                     	;# 
   438  009F                     	;# 
   439  0105                     	;# 
   440  0107                     	;# 
   441  0108                     	;# 
   442  0109                     	;# 
   443  010C                     	;# 
   444  010C                     	;# 
   445  010D                     	;# 
   446  010E                     	;# 
   447  010F                     	;# 
   448  0185                     	;# 
   449  0187                     	;# 
   450  0188                     	;# 
   451  0189                     	;# 
   452  018C                     	;# 
   453  018D                     	;# 
   454  0014                     _SSPCON	set	20
   455  0005                     _PORTAbits	set	5
   456  0006                     _PORTB	set	6
   457  0008                     _PORTDbits	set	8
   458  0013                     _SSPBUF	set	19
   459  0014                     _SSPCONbits	set	20
   460  000C                     _PIR1bits	set	12
   461  0063                     _SSPIF	set	99
   462  005E                     _PEIE	set	94
   463  005F                     _GIE	set	95
   464  0091                     _SSPCON2bits	set	145
   465  0087                     _TRISCbits	set	135
   466  0094                     _SSPSTAT	set	148
   467  0093                     _SSPADD	set	147
   468  0091                     _SSPCON2	set	145
   469  0085                     _TRISAbits	set	133
   470  0088                     _TRISD	set	136
   471  0086                     _TRISB	set	134
   472  0094                     _SSPSTATbits	set	148
   473  0463                     _SSPIE	set	1123
   474  043C                     _TRISC4	set	1084
   475  043B                     _TRISC3	set	1083
   476  04A0                     _BF	set	1184
   477  0188                     _ANSEL	set	392
   478  0189                     _ANSELH	set	393
   479                           
   480                           ; #config settings
   481  0000                     
   482                           	psect	cinit
   483  0013                     start_initialization:	
   484  0013                     __initialization:	
   485                           
   486                           ; Clear objects allocated to COMMON
   487  0013  01FD               	clrf	__pbssCOMMON& (0+127)
   488                           
   489                           ; Clear objects allocated to BANK0
   490  0014  1283               	bcf	3,5	;RP0=0, select bank0
   491  0015  1303               	bcf	3,6	;RP1=0, select bank0
   492  0016  01E3               	clrf	__pbssBANK0& (0+127)
   493  0017  01E4               	clrf	(__pbssBANK0+1)& (0+127)
   494  0018  01E5               	clrf	(__pbssBANK0+2)& (0+127)
   495  0019  01E6               	clrf	(__pbssBANK0+3)& (0+127)
   496  001A  01E7               	clrf	(__pbssBANK0+4)& (0+127)
   497  001B  01E8               	clrf	(__pbssBANK0+5)& (0+127)
   498                           
   499                           ; Clear objects allocated to BANK1
   500  001C  1683               	bsf	3,5	;RP0=1, select bank1
   501  001D  1303               	bcf	3,6	;RP1=0, select bank1
   502  001E  01BF               	clrf	__pbssBANK1& (0+127)
   503  001F  01C0               	clrf	(__pbssBANK1+1)& (0+127)
   504  0020  01C1               	clrf	(__pbssBANK1+2)& (0+127)
   505  0021  01C2               	clrf	(__pbssBANK1+3)& (0+127)
   506  0022  01C3               	clrf	(__pbssBANK1+4)& (0+127)
   507  0023  01C4               	clrf	(__pbssBANK1+5)& (0+127)
   508  0024  01C5               	clrf	(__pbssBANK1+6)& (0+127)
   509  0025  01C6               	clrf	(__pbssBANK1+7)& (0+127)
   510  0026                     end_of_initialization:	
   511                           ;End of C runtime variable initialization code
   512                           
   513  0026                     __end_of__initialization:	
   514  0026  0183               	clrf	3
   515  0027  120A  118A  2F1D   	ljmp	_main	;jump to C main() function
   516                           
   517                           	psect	bssCOMMON
   518  007D                     __pbssCOMMON:	
   519  007D                     _c1:	
   520  007D                     	ds	1
   521                           
   522                           	psect	bssBANK0
   523  0063                     __pbssBANK0:	
   524  0063                     _mandar:	
   525  0063                     	ds	1
   526  0064                     _z:	
   527  0064                     	ds	1
   528  0065                     _borrar:	
   529  0065                     	ds	1
   530  0066                     _contador:	
   531  0066                     	ds	1
   532  0067                     _u1:	
   533  0067                     	ds	1
   534  0068                     _d1:	
   535  0068                     	ds	1
   536                           
   537                           	psect	bssBANK1
   538  00BF                     __pbssBANK1:	
   539  00BF                     _temperatura1:	
   540  00BF                     	ds	4
   541  00C3                     _temperatura:	
   542  00C3                     	ds	4
   543                           
   544                           	psect	cstackBANK1
   545  00A0                     __pcstackBANK1:	
   546  00A0                     ??___fltol:	
   547                           
   548                           ; 1 bytes @ 0x0
   549  00A0                     	ds	5
   550  00A5                     ?_int_distance:	
   551  00A5                     int_distance@valor:	
   552                           ; 1 bytes @ 0x5
   553                           
   554                           
   555                           ; 4 bytes @ 0x5
   556  00A5                     	ds	4
   557  00A9                     int_distance@v1:	
   558                           
   559                           ; 1 bytes @ 0x9
   560  00A9                     	ds	1
   561  00AA                     int_distance@v2:	
   562                           
   563                           ; 1 bytes @ 0xA
   564  00AA                     	ds	1
   565  00AB                     int_distance@v3:	
   566                           
   567                           ; 1 bytes @ 0xB
   568  00AB                     	ds	1
   569  00AC                     ??_int_distance:	
   570                           
   571                           ; 1 bytes @ 0xC
   572  00AC                     	ds	9
   573  00B5                     int_distance@u:	
   574                           
   575                           ; 1 bytes @ 0x15
   576  00B5                     	ds	1
   577  00B6                     int_distance@d:	
   578                           
   579                           ; 1 bytes @ 0x16
   580  00B6                     	ds	1
   581  00B7                     int_distance@conv:	
   582                           
   583                           ; 4 bytes @ 0x17
   584  00B7                     	ds	4
   585  00BB                     int_distance@c:	
   586                           
   587                           ; 1 bytes @ 0x1B
   588  00BB                     	ds	1
   589  00BC                     ??_main:	
   590                           
   591                           ; 1 bytes @ 0x1C
   592  00BC                     	ds	3
   593                           
   594                           	psect	cstackCOMMON
   595  0070                     __pcstackCOMMON:	
   596  0070                     ?_select:	
   597  0070                     ?_setup:	
   598                           ; 1 bytes @ 0x0
   599                           
   600  0070                     ?_lcd_setup:	
   601                           ; 1 bytes @ 0x0
   602                           
   603  0070                     ?_tSetup:	
   604                           ; 1 bytes @ 0x0
   605                           
   606  0070                     ?_I2C_Slave_Init:	
   607                           ; 1 bytes @ 0x0
   608                           
   609  0070                     ?_isr:	
   610                           ; 1 bytes @ 0x0
   611                           
   612  0070                     ?_main:	
   613                           ; 1 bytes @ 0x0
   614                           
   615  0070                     ?_lcd_command:	
   616                           ; 1 bytes @ 0x0
   617                           
   618  0070                     select@a:	
   619                           ; 1 bytes @ 0x0
   620                           
   621  0070                     select@b:	
   622                           ; 1 bytes @ 0x0
   623                           
   624                           
   625                           ; 1 bytes @ 0x0
   626  0070                     	ds	1
   627  0071                     select@c:	
   628                           
   629                           ; 1 bytes @ 0x1
   630  0071                     	ds	1
   631  0072                     select@contador:	
   632                           
   633                           ; 1 bytes @ 0x2
   634  0072                     	ds	1
   635  0073                     select@mandar:	
   636                           
   637                           ; 4 bytes @ 0x3
   638  0073                     	ds	4
   639  0077                     ??_select:	
   640                           
   641                           ; 1 bytes @ 0x7
   642  0077                     	ds	5
   643  007C                     select@z:	
   644                           
   645                           ; 1 bytes @ 0xC
   646  007C                     	ds	1
   647                           
   648                           	psect	cstackBANK0
   649  0020                     __pcstackBANK0:	
   650  0020                     ??_isr:	
   651                           
   652                           ; 1 bytes @ 0x0
   653  0020                     	ds	7
   654  0027                     ??_tSetup:	
   655  0027                     ??_I2C_Slave_Init:	
   656                           ; 1 bytes @ 0x7
   657                           
   658  0027                     ??_lcd_command:	
   659                           ; 1 bytes @ 0x7
   660                           
   661  0027                     ?_tRead:	
   662                           ; 1 bytes @ 0x7
   663                           
   664  0027                     ?___wmul:	
   665                           ; 2 bytes @ 0x7
   666                           
   667  0027                     ?___fladd:	
   668                           ; 2 bytes @ 0x7
   669                           
   670  0027                     I2C_Slave_Init@address:	
   671                           ; 4 bytes @ 0x7
   672                           
   673  0027                     ___wmul@multiplier:	
   674                           ; 1 bytes @ 0x7
   675                           
   676  0027                     ___fladd@b:	
   677                           ; 2 bytes @ 0x7
   678                           
   679                           
   680                           ; 4 bytes @ 0x7
   681  0027                     	ds	2
   682  0029                     ??_tRead:	
   683  0029                     lcd_command@a:	
   684                           ; 1 bytes @ 0x9
   685                           
   686  0029                     ___wmul@multiplicand:	
   687                           ; 1 bytes @ 0x9
   688                           
   689                           
   690                           ; 2 bytes @ 0x9
   691  0029                     	ds	1
   692  002A                     ??_lcd_setup:	
   693                           
   694                           ; 1 bytes @ 0xA
   695  002A                     	ds	1
   696  002B                     ??___wmul:	
   697  002B                     ___wmul@product:	
   698                           ; 1 bytes @ 0xB
   699                           
   700  002B                     ___fladd@a:	
   701                           ; 2 bytes @ 0xB
   702                           
   703                           
   704                           ; 4 bytes @ 0xB
   705  002B                     	ds	1
   706  002C                     ??_setup:	
   707                           
   708                           ; 1 bytes @ 0xC
   709  002C                     	ds	1
   710  002D                     ?___xxtofl:	
   711  002D                     tRead@i:	
   712                           ; 4 bytes @ 0xD
   713                           
   714  002D                     ___xxtofl@val:	
   715                           ; 1 bytes @ 0xD
   716                           
   717                           
   718                           ; 4 bytes @ 0xD
   719  002D                     	ds	1
   720  002E                     tRead@valor:	
   721                           
   722                           ; 2 bytes @ 0xE
   723  002E                     	ds	1
   724  002F                     ??___fladd:	
   725                           
   726                           ; 1 bytes @ 0xF
   727  002F                     	ds	2
   728  0031                     ??___xxtofl:	
   729                           
   730                           ; 1 bytes @ 0x11
   731  0031                     	ds	4
   732  0035                     ___xxtofl@sign:	
   733                           
   734                           ; 1 bytes @ 0x15
   735  0035                     	ds	1
   736  0036                     ___xxtofl@exp:	
   737                           
   738                           ; 1 bytes @ 0x16
   739  0036                     	ds	1
   740  0037                     ___fladd@signs:	
   741  0037                     ___xxtofl@arg:	
   742                           ; 1 bytes @ 0x17
   743                           
   744                           
   745                           ; 4 bytes @ 0x17
   746  0037                     	ds	1
   747  0038                     ___fladd@aexp:	
   748                           
   749                           ; 1 bytes @ 0x18
   750  0038                     	ds	1
   751  0039                     ___fladd@bexp:	
   752                           
   753                           ; 1 bytes @ 0x19
   754  0039                     	ds	1
   755  003A                     ___fladd@grs:	
   756                           
   757                           ; 1 bytes @ 0x1A
   758  003A                     	ds	1
   759  003B                     ?___fldiv:	
   760  003B                     ___fldiv@a:	
   761                           ; 4 bytes @ 0x1B
   762                           
   763                           
   764                           ; 4 bytes @ 0x1B
   765  003B                     	ds	4
   766  003F                     ___fldiv@b:	
   767                           
   768                           ; 4 bytes @ 0x1F
   769  003F                     	ds	4
   770  0043                     ??___fldiv:	
   771                           
   772                           ; 1 bytes @ 0x23
   773  0043                     	ds	5
   774  0048                     ___fldiv@rem:	
   775                           
   776                           ; 4 bytes @ 0x28
   777  0048                     	ds	4
   778  004C                     ___fldiv@sign:	
   779                           
   780                           ; 1 bytes @ 0x2C
   781  004C                     	ds	1
   782  004D                     ___fldiv@new_exp:	
   783                           
   784                           ; 2 bytes @ 0x2D
   785  004D                     	ds	2
   786  004F                     ___fldiv@grs:	
   787                           
   788                           ; 4 bytes @ 0x2F
   789  004F                     	ds	4
   790  0053                     ___fldiv@bexp:	
   791                           
   792                           ; 1 bytes @ 0x33
   793  0053                     	ds	1
   794  0054                     ___fldiv@aexp:	
   795                           
   796                           ; 1 bytes @ 0x34
   797  0054                     	ds	1
   798  0055                     ?___flsub:	
   799  0055                     ___flsub@a:	
   800                           ; 4 bytes @ 0x35
   801                           
   802                           
   803                           ; 4 bytes @ 0x35
   804  0055                     	ds	4
   805  0059                     ___flsub@b:	
   806                           
   807                           ; 4 bytes @ 0x39
   808  0059                     	ds	4
   809  005D                     ??___flsub:	
   810  005D                     ?___fltol:	
   811                           ; 1 bytes @ 0x3D
   812                           
   813  005D                     ___fltol@f1:	
   814                           ; 4 bytes @ 0x3D
   815                           
   816                           
   817                           ; 4 bytes @ 0x3D
   818  005D                     	ds	4
   819  0061                     ___fltol@sign1:	
   820                           
   821                           ; 1 bytes @ 0x41
   822  0061                     	ds	1
   823  0062                     ___fltol@exp1:	
   824                           
   825                           ; 1 bytes @ 0x42
   826  0062                     	ds	1
   827                           
   828                           	psect	maintext
   829  071D                     __pmaintext:	
   830 ;;
   831 ;;Main: autosize = 0, tempsize = 3, incstack = 0, save=0
   832 ;;
   833 ;; *************** function _main *****************
   834 ;; Defined at:
   835 ;;		line 86 in file "main.c"
   836 ;; Parameters:    Size  Location     Type
   837 ;;		None
   838 ;; Auto vars:     Size  Location     Type
   839 ;;		None
   840 ;; Return value:  Size  Location     Type
   841 ;;                  1    wreg      void 
   842 ;; Registers used:
   843 ;;		wreg, fsr0l, fsr0h, status,2, status,0, btemp+1, pclath, cstack
   844 ;; Tracked objects:
   845 ;;		On entry : B00/0
   846 ;;		On exit  : 0/0
   847 ;;		Unchanged: 0/0
   848 ;; Data sizes:     COMMON   BANK0   BANK1   BANK3   BANK2
   849 ;;      Params:         0       0       0       0       0
   850 ;;      Locals:         0       0       0       0       0
   851 ;;      Temps:          0       0       3       0       0
   852 ;;      Totals:         0       0       3       0       0
   853 ;;Total ram usage:        3 bytes
   854 ;; Hardware stack levels required when called:    5
   855 ;; This function calls:
   856 ;;		___fldiv
   857 ;;		___fltol
   858 ;;		___xxtofl
   859 ;;		_int_distance
   860 ;;		_setup
   861 ;;		_tRead
   862 ;; This function is called by:
   863 ;;		Startup code after reset
   864 ;; This function uses a non-reentrant model
   865 ;;
   866                           
   867                           
   868                           ;psect for function _main
   869  071D                     _main:	
   870  071D                     l2223:	
   871                           ;incstack = 0
   872                           ; Regs used in _main: [wreg-fsr0h+status,2+status,0+btemp+1+pclath+cstack]
   873                           
   874                           
   875                           ;main.c: 87:     setup();
   876  071D  120A  158A  251A  120A  118A  	fcall	_setup
   877  0722                     l67:	
   878                           ;main.c: 88:     while(1){
   879                           
   880                           
   881                           ;main.c: 90:         temperatura = tRead();
   882  0722  120A  158A  25E8  120A  118A  	fcall	_tRead
   883  0727  1283               	bcf	3,5	;RP0=0, select bank0
   884  0728  1303               	bcf	3,6	;RP1=0, select bank0
   885  0729  0827               	movf	?_tRead,w
   886  072A  1683               	bsf	3,5	;RP0=1, select bank1
   887  072B  1303               	bcf	3,6	;RP1=0, select bank1
   888  072C  00C3               	movwf	_temperatura^(0+128)
   889  072D  1283               	bcf	3,5	;RP0=0, select bank0
   890  072E  1303               	bcf	3,6	;RP1=0, select bank0
   891  072F  0828               	movf	?_tRead+1,w
   892  0730  1683               	bsf	3,5	;RP0=1, select bank1
   893  0731  1303               	bcf	3,6	;RP1=0, select bank1
   894  0732  00C4               	movwf	(_temperatura^(0+128)+1)
   895  0733  01C5               	clrf	(_temperatura^(0+128)+2)
   896  0734  01C6               	clrf	(_temperatura^(0+128)+3)
   897  0735                     l2225:	
   898                           
   899                           ;main.c: 91:         int_distance(temperatura1, &c1, &d1, &u1);
   900  0735  0842               	movf	(_temperatura1+3)^(0+128),w
   901  0736  00A8               	movwf	(int_distance@valor+3)^(0+128)
   902  0737  0841               	movf	(_temperatura1+2)^(0+128),w
   903  0738  00A7               	movwf	(int_distance@valor+2)^(0+128)
   904  0739  0840               	movf	(_temperatura1+1)^(0+128),w
   905  073A  00A6               	movwf	(int_distance@valor+1)^(0+128)
   906  073B  083F               	movf	_temperatura1^(0+128),w
   907  073C  00A5               	movwf	int_distance@valor^(0+128)
   908  073D  307D               	movlw	(low (_c1| 0))& (0+255)
   909  073E  00BC               	movwf	??_main^(0+128)
   910  073F  083C               	movf	??_main^(0+128),w
   911  0740  00A9               	movwf	int_distance@v1^(0+128)
   912  0741  3068               	movlw	(low (_d1| 0))& (0+255)
   913  0742  00BD               	movwf	(??_main+1)^(0+128)
   914  0743  083D               	movf	(??_main+1)^(0+128),w
   915  0744  00AA               	movwf	int_distance@v2^(0+128)
   916  0745  3067               	movlw	(low (_u1| 0))& (0+255)
   917  0746  00BE               	movwf	(??_main+2)^(0+128)
   918  0747  083E               	movf	(??_main+2)^(0+128),w
   919  0748  00AB               	movwf	int_distance@v3^(0+128)
   920  0749  120A  118A  248F  120A  118A  	fcall	_int_distance
   921  074E                     l2227:	
   922                           
   923                           ;main.c: 92:         if (contador==0){
   924  074E  1283               	bcf	3,5	;RP0=0, select bank0
   925  074F  1303               	bcf	3,6	;RP1=0, select bank0
   926  0750  0866               	movf	_contador,w
   927  0751  1D03               	btfss	3,2
   928  0752  2F54               	goto	u2701
   929  0753  2F55               	goto	u2700
   930  0754                     u2701:	
   931  0754  2FC0               	goto	l2233
   932  0755                     u2700:	
   933  0755                     l2229:	
   934                           
   935                           ;main.c: 93:             if(temperatura != -100){
   936  0755  309C               	movlw	156
   937  0756  1683               	bsf	3,5	;RP0=1, select bank1
   938  0757  1303               	bcf	3,6	;RP1=0, select bank1
   939  0758  0643               	xorwf	_temperatura^(0+128),w
   940  0759  1D03               	skipz
   941  075A  2F66               	goto	u2710
   942  075B  0A44               	incf	(_temperatura+1)^(0+128),w
   943  075C  1D03               	skipz
   944  075D  2F66               	goto	u2710
   945  075E  0A45               	incf	(_temperatura+2)^(0+128),w
   946  075F  1D03               	skipz
   947  0760  2F66               	goto	u2710
   948  0761  0A46               	incf	(_temperatura+3)^(0+128),w
   949  0762  1903               	btfsc	3,2
   950  0763  2F65               	goto	u2711
   951  0764  2F66               	goto	u2710
   952  0765                     u2711:	
   953  0765  2FC0               	goto	l2233
   954  0766                     u2710:	
   955  0766                     l2231:	
   956                           
   957                           ;main.c: 94:                 temperatura1 = temperatura/0.2217506684;
   958  0766  0846               	movf	(_temperatura+3)^(0+128),w
   959  0767  1283               	bcf	3,5	;RP0=0, select bank0
   960  0768  1303               	bcf	3,6	;RP1=0, select bank0
   961  0769  00B0               	movwf	___xxtofl@val+3
   962  076A  1683               	bsf	3,5	;RP0=1, select bank1
   963  076B  1303               	bcf	3,6	;RP1=0, select bank1
   964  076C  0845               	movf	(_temperatura+2)^(0+128),w
   965  076D  1283               	bcf	3,5	;RP0=0, select bank0
   966  076E  1303               	bcf	3,6	;RP1=0, select bank0
   967  076F  00AF               	movwf	___xxtofl@val+2
   968  0770  1683               	bsf	3,5	;RP0=1, select bank1
   969  0771  1303               	bcf	3,6	;RP1=0, select bank1
   970  0772  0844               	movf	(_temperatura+1)^(0+128),w
   971  0773  1283               	bcf	3,5	;RP0=0, select bank0
   972  0774  1303               	bcf	3,6	;RP1=0, select bank0
   973  0775  00AE               	movwf	___xxtofl@val+1
   974  0776  1683               	bsf	3,5	;RP0=1, select bank1
   975  0777  1303               	bcf	3,6	;RP1=0, select bank1
   976  0778  0843               	movf	_temperatura^(0+128),w
   977  0779  1283               	bcf	3,5	;RP0=0, select bank0
   978  077A  1303               	bcf	3,6	;RP1=0, select bank0
   979  077B  00AD               	movwf	___xxtofl@val
   980  077C  3000               	movlw	0
   981  077D  120A  118A  2661  120A  118A  	fcall	___xxtofl
   982  0782  1283               	bcf	3,5	;RP0=0, select bank0
   983  0783  1303               	bcf	3,6	;RP1=0, select bank0
   984  0784  0830               	movf	?___xxtofl+3,w
   985  0785  00C2               	movwf	___fldiv@b+3
   986  0786  082F               	movf	?___xxtofl+2,w
   987  0787  00C1               	movwf	___fldiv@b+2
   988  0788  082E               	movf	?___xxtofl+1,w
   989  0789  00C0               	movwf	___fldiv@b+1
   990  078A  082D               	movf	?___xxtofl,w
   991  078B  00BF               	movwf	___fldiv@b
   992  078C  303E               	movlw	62
   993  078D  00BE               	movwf	___fldiv@a+3
   994  078E  3063               	movlw	99
   995  078F  00BD               	movwf	___fldiv@a+2
   996  0790  3012               	movlw	18
   997  0791  00BC               	movwf	___fldiv@a+1
   998  0792  309B               	movlw	155
   999  0793  00BB               	movwf	___fldiv@a
  1000  0794  120A  118A  22B2  120A  118A  	fcall	___fldiv
  1001  0799  1283               	bcf	3,5	;RP0=0, select bank0
  1002  079A  1303               	bcf	3,6	;RP1=0, select bank0
  1003  079B  083E               	movf	?___fldiv+3,w
  1004  079C  00E0               	movwf	___fltol@f1+3
  1005  079D  083D               	movf	?___fldiv+2,w
  1006  079E  00DF               	movwf	___fltol@f1+2
  1007  079F  083C               	movf	?___fldiv+1,w
  1008  07A0  00DE               	movwf	___fltol@f1+1
  1009  07A1  083B               	movf	?___fldiv,w
  1010  07A2  00DD               	movwf	___fltol@f1
  1011  07A3  120A  158A  2764  120A  118A  	fcall	___fltol
  1012  07A8  1283               	bcf	3,5	;RP0=0, select bank0
  1013  07A9  1303               	bcf	3,6	;RP1=0, select bank0
  1014  07AA  0860               	movf	?___fltol+3,w
  1015  07AB  1683               	bsf	3,5	;RP0=1, select bank1
  1016  07AC  1303               	bcf	3,6	;RP1=0, select bank1
  1017  07AD  00C2               	movwf	(_temperatura1+3)^(0+128)
  1018  07AE  1283               	bcf	3,5	;RP0=0, select bank0
  1019  07AF  1303               	bcf	3,6	;RP1=0, select bank0
  1020  07B0  085F               	movf	?___fltol+2,w
  1021  07B1  1683               	bsf	3,5	;RP0=1, select bank1
  1022  07B2  1303               	bcf	3,6	;RP1=0, select bank1
  1023  07B3  00C1               	movwf	(_temperatura1+2)^(0+128)
  1024  07B4  1283               	bcf	3,5	;RP0=0, select bank0
  1025  07B5  1303               	bcf	3,6	;RP1=0, select bank0
  1026  07B6  085E               	movf	?___fltol+1,w
  1027  07B7  1683               	bsf	3,5	;RP0=1, select bank1
  1028  07B8  1303               	bcf	3,6	;RP1=0, select bank1
  1029  07B9  00C0               	movwf	(_temperatura1+1)^(0+128)
  1030  07BA  1283               	bcf	3,5	;RP0=0, select bank0
  1031  07BB  1303               	bcf	3,6	;RP1=0, select bank0
  1032  07BC  085D               	movf	?___fltol,w
  1033  07BD  1683               	bsf	3,5	;RP0=1, select bank1
  1034  07BE  1303               	bcf	3,6	;RP1=0, select bank1
  1035  07BF  00BF               	movwf	_temperatura1^(0+128)
  1036  07C0                     l2233:	
  1037                           
  1038                           ;main.c: 108:         _delay((unsigned long)((250)*(4000000/4000.0)));
  1039  07C0  3002               	movlw	2
  1040  07C1  1683               	bsf	3,5	;RP0=1, select bank1
  1041  07C2  1303               	bcf	3,6	;RP1=0, select bank1
  1042  07C3  00BE               	movwf	(??_main^(0+128)+2)
  1043  07C4  3045               	movlw	69
  1044  07C5  00BD               	movwf	(??_main^(0+128)+1)
  1045  07C6  30A9               	movlw	169
  1046  07C7  00BC               	movwf	??_main^(0+128)
  1047  07C8                     u2727:	
  1048  07C8  0BBC               	decfsz	??_main^(0+128),f
  1049  07C9  2FC8               	goto	u2727
  1050  07CA  0BBD               	decfsz	(??_main^(0+128)+1),f
  1051  07CB  2FC8               	goto	u2727
  1052  07CC  0BBE               	decfsz	(??_main^(0+128)+2),f
  1053  07CD  2FC8               	goto	u2727
  1054  07CE  2F22               	goto	l67
  1055  07CF  120A  118A  2810   	ljmp	start
  1056  07D2                     __end_of_main:	
  1057                           
  1058                           	psect	text1
  1059  0DE8                     __ptext1:	
  1060 ;; *************** function _tRead *****************
  1061 ;; Defined at:
  1062 ;;		line 26 in file "temperatura.c"
  1063 ;; Parameters:    Size  Location     Type
  1064 ;;		None
  1065 ;; Auto vars:     Size  Location     Type
  1066 ;;  valor           2   14[BANK0 ] unsigned int 
  1067 ;;  i               1   13[BANK0 ] unsigned char 
  1068 ;;  v               1    0        unsigned char 
  1069 ;; Return value:  Size  Location     Type
  1070 ;;                  2    7[BANK0 ] unsigned int 
  1071 ;; Registers used:
  1072 ;;		wreg, status,2, status,0
  1073 ;; Tracked objects:
  1074 ;;		On entry : 0/0
  1075 ;;		On exit  : 0/0
  1076 ;;		Unchanged: 0/0
  1077 ;; Data sizes:     COMMON   BANK0   BANK1   BANK3   BANK2
  1078 ;;      Params:         0       2       0       0       0
  1079 ;;      Locals:         0       3       0       0       0
  1080 ;;      Temps:          0       4       0       0       0
  1081 ;;      Totals:         0       9       0       0       0
  1082 ;;Total ram usage:        9 bytes
  1083 ;; Hardware stack levels used:    1
  1084 ;; Hardware stack levels required when called:    2
  1085 ;; This function calls:
  1086 ;;		Nothing
  1087 ;; This function is called by:
  1088 ;;		_main
  1089 ;; This function uses a non-reentrant model
  1090 ;;
  1091                           
  1092                           
  1093                           ;psect for function _tRead
  1094  0DE8                     _tRead:	
  1095  0DE8                     l2053:	
  1096                           ;incstack = 0
  1097                           ; Regs used in _tRead: [wreg+status,2+status,0]
  1098                           
  1099                           
  1100                           ;temperatura.c: 27:     uint8_t i;;temperatura.c: 28:     uint8_t v;;temperatura.c: 29: 
      +                              uint16_t valor=0;
  1101  0DE8  1283               	bcf	3,5	;RP0=0, select bank0
  1102  0DE9  1303               	bcf	3,6	;RP1=0, select bank0
  1103  0DEA  01AE               	clrf	tRead@valor
  1104  0DEB  01AF               	clrf	tRead@valor+1
  1105  0DEC                     l2055:	
  1106                           
  1107                           ;temperatura.c: 30:     PORTAbits.RA1 = 0;
  1108  0DEC  1085               	bcf	5,1	;volatile
  1109  0DED                     l2057:	
  1110                           
  1111                           ;temperatura.c: 31:     _delay((unsigned long)((1)*(4000000/4000.0)));
  1112  0DED  30C7               	movlw	199
  1113  0DEE  1283               	bcf	3,5	;RP0=0, select bank0
  1114  0DEF  1303               	bcf	3,6	;RP1=0, select bank0
  1115  0DF0  00A9               	movwf	??_tRead
  1116  0DF1                     u2737:	
  1117  0DF1  2DF2               	nop2
  1118  0DF2  0BA9               	decfsz	??_tRead,f
  1119  0DF3  2DF1               	goto	u2737
  1120  0DF4  2DF5               	nop2
  1121  0DF5                     l2059:	
  1122                           
  1123                           ;temperatura.c: 33:     for (i=0;i<16;i++){
  1124  0DF5  1283               	bcf	3,5	;RP0=0, select bank0
  1125  0DF6  1303               	bcf	3,6	;RP1=0, select bank0
  1126  0DF7  01AD               	clrf	tRead@i
  1127  0DF8                     l145:	
  1128                           
  1129                           ;temperatura.c: 34:         PORTAbits.RA0 = 1;
  1130  0DF8  1405               	bsf	5,0	;volatile
  1131  0DF9                     l2063:	
  1132                           
  1133                           ;temperatura.c: 35:         _delay((unsigned long)((1)*(4000000/4000.0)));
  1134  0DF9  30C7               	movlw	199
  1135  0DFA  1283               	bcf	3,5	;RP0=0, select bank0
  1136  0DFB  1303               	bcf	3,6	;RP1=0, select bank0
  1137  0DFC  00A9               	movwf	??_tRead
  1138  0DFD                     u2747:	
  1139  0DFD  2DFE               	nop2
  1140  0DFE  0BA9               	decfsz	??_tRead,f
  1141  0DFF  2DFD               	goto	u2747
  1142  0E00  2E01               	nop2
  1143  0E01                     l2065:	
  1144                           
  1145                           ;temperatura.c: 37:         valor = valor|PORTAbits.RA2;
  1146  0E01  1283               	bcf	3,5	;RP0=0, select bank0
  1147  0E02  1303               	bcf	3,6	;RP1=0, select bank0
  1148  0E03  0C05               	rrf	5,w	;volatile
  1149  0E04  00A9               	movwf	??_tRead
  1150  0E05  0C29               	rrf	??_tRead,w
  1151  0E06  3901               	andlw	1
  1152  0E07  00AA               	movwf	??_tRead+1
  1153  0E08  082E               	movf	tRead@valor,w
  1154  0E09  042A               	iorwf	??_tRead+1,w
  1155  0E0A  00AB               	movwf	??_tRead+2
  1156  0E0B  082F               	movf	tRead@valor+1,w
  1157  0E0C  00AC               	movwf	??_tRead+3
  1158  0E0D  082B               	movf	??_tRead+2,w
  1159  0E0E  00AE               	movwf	tRead@valor
  1160  0E0F  082C               	movf	??_tRead+3,w
  1161  0E10  00AF               	movwf	tRead@valor+1
  1162  0E11                     l2067:	
  1163                           
  1164                           ;temperatura.c: 38:         valor <<= 1;
  1165  0E11  3001               	movlw	1
  1166  0E12                     u2435:	
  1167  0E12  1003               	clrc
  1168  0E13  0DAE               	rlf	tRead@valor,f
  1169  0E14  0DAF               	rlf	tRead@valor+1,f
  1170  0E15  3EFF               	addlw	-1
  1171  0E16  1D03               	skipz
  1172  0E17  2E12               	goto	u2435
  1173  0E18                     l2069:	
  1174                           
  1175                           ;temperatura.c: 39:         PORTAbits.RA0 = 0;
  1176  0E18  1005               	bcf	5,0	;volatile
  1177  0E19                     l2071:	
  1178                           
  1179                           ;temperatura.c: 40:         _delay((unsigned long)((1)*(4000000/4000.0)));
  1180  0E19  30C7               	movlw	199
  1181  0E1A  1283               	bcf	3,5	;RP0=0, select bank0
  1182  0E1B  1303               	bcf	3,6	;RP1=0, select bank0
  1183  0E1C  00A9               	movwf	??_tRead
  1184  0E1D                     u2757:	
  1185  0E1D  2E1E               	nop2
  1186  0E1E  0BA9               	decfsz	??_tRead,f
  1187  0E1F  2E1D               	goto	u2757
  1188  0E20  2E21               	nop2
  1189  0E21                     l2073:	
  1190                           
  1191                           ;temperatura.c: 41:     }
  1192  0E21  3001               	movlw	1
  1193  0E22  1283               	bcf	3,5	;RP0=0, select bank0
  1194  0E23  1303               	bcf	3,6	;RP1=0, select bank0
  1195  0E24  00A9               	movwf	??_tRead
  1196  0E25  0829               	movf	??_tRead,w
  1197  0E26  07AD               	addwf	tRead@i,f
  1198  0E27  3010               	movlw	16
  1199  0E28  022D               	subwf	tRead@i,w
  1200  0E29  1C03               	skipc
  1201  0E2A  2E2C               	goto	u2441
  1202  0E2B  2E2D               	goto	u2440
  1203  0E2C                     u2441:	
  1204  0E2C  2DF8               	goto	l145
  1205  0E2D                     u2440:	
  1206  0E2D                     l146:	
  1207                           
  1208                           ;temperatura.c: 43:     PORTAbits.RA1 = 1;
  1209  0E2D  1485               	bsf	5,1	;volatile
  1210                           
  1211                           ;temperatura.c: 44:     if (valor & 0x4) {
  1212  0E2E  1D2E               	btfss	tRead@valor,2
  1213  0E2F  2E31               	goto	u2451
  1214  0E30  2E32               	goto	u2450
  1215  0E31                     u2451:	
  1216  0E31  2E37               	goto	l2079
  1217  0E32                     u2450:	
  1218  0E32                     l2075:	
  1219                           
  1220                           ;temperatura.c: 47:         return -100;
  1221  0E32  309C               	movlw	156
  1222  0E33  00A7               	movwf	?_tRead
  1223  0E34  30FF               	movlw	255
  1224  0E35  00A8               	movwf	?_tRead+1
  1225  0E36  2E50               	goto	l148
  1226  0E37                     l2079:	
  1227                           
  1228                           ;temperatura.c: 50:     valor >>= 3;
  1229  0E37  3003               	movlw	3
  1230  0E38                     u2465:	
  1231  0E38  1003               	clrc
  1232  0E39  0CAF               	rrf	tRead@valor+1,f
  1233  0E3A  0CAE               	rrf	tRead@valor,f
  1234  0E3B  3EFF               	addlw	-1
  1235  0E3C  1D03               	skipz
  1236  0E3D  2E38               	goto	u2465
  1237                           
  1238                           ;temperatura.c: 51:     valor = valor/4;
  1239  0E3E  082F               	movf	tRead@valor+1,w
  1240  0E3F  00AA               	movwf	??_tRead+1
  1241  0E40  082E               	movf	tRead@valor,w
  1242  0E41  00A9               	movwf	??_tRead
  1243  0E42  1003               	clrc
  1244  0E43  0CAA               	rrf	??_tRead+1,f
  1245  0E44  0CA9               	rrf	??_tRead,f
  1246  0E45  1003               	clrc
  1247  0E46  0CAA               	rrf	??_tRead+1,f
  1248  0E47  0CA9               	rrf	??_tRead,f
  1249  0E48  0829               	movf	??_tRead,w
  1250  0E49  00AE               	movwf	tRead@valor
  1251  0E4A  082A               	movf	??_tRead+1,w
  1252  0E4B  00AF               	movwf	tRead@valor+1
  1253  0E4C                     l2081:	
  1254                           
  1255                           ;temperatura.c: 52:     return valor;
  1256  0E4C  082F               	movf	tRead@valor+1,w
  1257  0E4D  00A8               	movwf	?_tRead+1
  1258  0E4E  082E               	movf	tRead@valor,w
  1259  0E4F  00A7               	movwf	?_tRead
  1260  0E50                     l148:	
  1261  0E50  0008               	return
  1262  0E51                     __end_of_tRead:	
  1263                           
  1264                           	psect	text2
  1265  0D1A                     __ptext2:	
  1266 ;; *************** function _setup *****************
  1267 ;; Defined at:
  1268 ;;		line 113 in file "main.c"
  1269 ;; Parameters:    Size  Location     Type
  1270 ;;		None
  1271 ;; Auto vars:     Size  Location     Type
  1272 ;;		None
  1273 ;; Return value:  Size  Location     Type
  1274 ;;                  1    wreg      void 
  1275 ;; Registers used:
  1276 ;;		wreg, status,2, status,0, pclath, cstack
  1277 ;; Tracked objects:
  1278 ;;		On entry : 0/0
  1279 ;;		On exit  : 0/0
  1280 ;;		Unchanged: 0/0
  1281 ;; Data sizes:     COMMON   BANK0   BANK1   BANK3   BANK2
  1282 ;;      Params:         0       0       0       0       0
  1283 ;;      Locals:         0       0       0       0       0
  1284 ;;      Temps:          0       0       0       0       0
  1285 ;;      Totals:         0       0       0       0       0
  1286 ;;Total ram usage:        0 bytes
  1287 ;; Hardware stack levels used:    1
  1288 ;; Hardware stack levels required when called:    4
  1289 ;; This function calls:
  1290 ;;		_I2C_Slave_Init
  1291 ;;		_lcd_setup
  1292 ;;		_tSetup
  1293 ;; This function is called by:
  1294 ;;		_main
  1295 ;; This function uses a non-reentrant model
  1296 ;;
  1297                           
  1298                           
  1299                           ;psect for function _setup
  1300  0D1A                     _setup:	
  1301  0D1A                     l2049:	
  1302                           ;incstack = 0
  1303                           ; Regs used in _setup: [wreg+status,2+status,0+pclath+cstack]
  1304                           
  1305                           
  1306                           ;main.c: 114:     lcd_setup();
  1307  0D1A  120A  158A  259C  120A  158A  	fcall	_lcd_setup
  1308                           
  1309                           ;main.c: 115:     tSetup();
  1310  0D1F  120A  158A  2542  120A  158A  	fcall	_tSetup
  1311                           
  1312                           ;main.c: 117:     I2C_Slave_Init(0x30);
  1313  0D24  3030               	movlw	48
  1314  0D25  120A  158A  255C  120A  158A  	fcall	_I2C_Slave_Init
  1315  0D2A                     l75:	
  1316  0D2A  0008               	return
  1317  0D2B                     __end_of_setup:	
  1318                           
  1319                           	psect	text3
  1320  0D42                     __ptext3:	
  1321 ;; *************** function _tSetup *****************
  1322 ;; Defined at:
  1323 ;;		line 15 in file "temperatura.c"
  1324 ;; Parameters:    Size  Location     Type
  1325 ;;		None
  1326 ;; Auto vars:     Size  Location     Type
  1327 ;;		None
  1328 ;; Return value:  Size  Location     Type
  1329 ;;                  1    wreg      void 
  1330 ;; Registers used:
  1331 ;;		wreg, status,2
  1332 ;; Tracked objects:
  1333 ;;		On entry : 0/0
  1334 ;;		On exit  : 0/0
  1335 ;;		Unchanged: 0/0
  1336 ;; Data sizes:     COMMON   BANK0   BANK1   BANK3   BANK2
  1337 ;;      Params:         0       0       0       0       0
  1338 ;;      Locals:         0       0       0       0       0
  1339 ;;      Temps:          0       3       0       0       0
  1340 ;;      Totals:         0       3       0       0       0
  1341 ;;Total ram usage:        3 bytes
  1342 ;; Hardware stack levels used:    1
  1343 ;; Hardware stack levels required when called:    2
  1344 ;; This function calls:
  1345 ;;		Nothing
  1346 ;; This function is called by:
  1347 ;;		_setup
  1348 ;; This function uses a non-reentrant model
  1349 ;;
  1350                           
  1351                           
  1352                           ;psect for function _tSetup
  1353  0D42                     _tSetup:	
  1354  0D42                     l1739:	
  1355                           ;incstack = 0
  1356                           ; Regs used in _tSetup: [wreg+status,2]
  1357                           
  1358                           
  1359                           ;temperatura.c: 16:     TRISAbits.TRISA0 = 0;
  1360  0D42  1683               	bsf	3,5	;RP0=1, select bank1
  1361  0D43  1303               	bcf	3,6	;RP1=0, select bank1
  1362  0D44  1005               	bcf	5,0	;volatile
  1363                           
  1364                           ;temperatura.c: 17:     TRISAbits.TRISA1 = 0;
  1365  0D45  1085               	bcf	5,1	;volatile
  1366                           
  1367                           ;temperatura.c: 18:     TRISAbits.TRISA2 = 1;
  1368  0D46  1505               	bsf	5,2	;volatile
  1369  0D47                     l1741:	
  1370                           
  1371                           ;temperatura.c: 19:     ANSEL = 0;
  1372  0D47  1683               	bsf	3,5	;RP0=1, select bank3
  1373  0D48  1703               	bsf	3,6	;RP1=1, select bank3
  1374  0D49  0188               	clrf	8	;volatile
  1375  0D4A                     l1743:	
  1376                           
  1377                           ;temperatura.c: 20:     PORTAbits.RA1 = 1;
  1378  0D4A  1283               	bcf	3,5	;RP0=0, select bank0
  1379  0D4B  1303               	bcf	3,6	;RP1=0, select bank0
  1380  0D4C  1485               	bsf	5,1	;volatile
  1381  0D4D                     l1745:	
  1382                           
  1383                           ;temperatura.c: 21:     _delay((unsigned long)((1000)*(4000000/4000.0)));
  1384  0D4D  3006               	movlw	6
  1385  0D4E  1283               	bcf	3,5	;RP0=0, select bank0
  1386  0D4F  1303               	bcf	3,6	;RP1=0, select bank0
  1387  0D50  00A9               	movwf	??_tSetup+2
  1388  0D51  3013               	movlw	19
  1389  0D52  00A8               	movwf	??_tSetup+1
  1390  0D53  30AD               	movlw	173
  1391  0D54  00A7               	movwf	??_tSetup
  1392  0D55                     u2767:	
  1393  0D55  0BA7               	decfsz	??_tSetup,f
  1394  0D56  2D55               	goto	u2767
  1395  0D57  0BA8               	decfsz	??_tSetup+1,f
  1396  0D58  2D55               	goto	u2767
  1397  0D59  0BA9               	decfsz	??_tSetup+2,f
  1398  0D5A  2D55               	goto	u2767
  1399  0D5B                     l142:	
  1400  0D5B  0008               	return
  1401  0D5C                     __end_of_tSetup:	
  1402                           
  1403                           	psect	text4
  1404  0D9C                     __ptext4:	
  1405 ;; *************** function _lcd_setup *****************
  1406 ;; Defined at:
  1407 ;;		line 66 in file "LCD.c"
  1408 ;; Parameters:    Size  Location     Type
  1409 ;;		None
  1410 ;; Auto vars:     Size  Location     Type
  1411 ;;		None
  1412 ;; Return value:  Size  Location     Type
  1413 ;;                  1    wreg      void 
  1414 ;; Registers used:
  1415 ;;		wreg, status,2, status,0, pclath, cstack
  1416 ;; Tracked objects:
  1417 ;;		On entry : 0/0
  1418 ;;		On exit  : 0/0
  1419 ;;		Unchanged: 0/0
  1420 ;; Data sizes:     COMMON   BANK0   BANK1   BANK3   BANK2
  1421 ;;      Params:         0       0       0       0       0
  1422 ;;      Locals:         0       0       0       0       0
  1423 ;;      Temps:          0       2       0       0       0
  1424 ;;      Totals:         0       2       0       0       0
  1425 ;;Total ram usage:        2 bytes
  1426 ;; Hardware stack levels used:    1
  1427 ;; Hardware stack levels required when called:    3
  1428 ;; This function calls:
  1429 ;;		_lcd_command
  1430 ;; This function is called by:
  1431 ;;		_setup
  1432 ;; This function uses a non-reentrant model
  1433 ;;
  1434                           
  1435                           
  1436                           ;psect for function _lcd_setup
  1437  0D9C                     _lcd_setup:	
  1438  0D9C                     l1719:	
  1439                           ;incstack = 0
  1440                           ; Regs used in _lcd_setup: [wreg+status,2+status,0+pclath+cstack]
  1441                           
  1442                           
  1443                           ;LCD.c: 67:     TRISB = 0x00;
  1444  0D9C  1683               	bsf	3,5	;RP0=1, select bank1
  1445  0D9D  1303               	bcf	3,6	;RP1=0, select bank1
  1446  0D9E  0186               	clrf	6	;volatile
  1447                           
  1448                           ;LCD.c: 68:     ANSELH = 0x00;
  1449  0D9F  1683               	bsf	3,5	;RP0=1, select bank3
  1450  0DA0  1703               	bsf	3,6	;RP1=1, select bank3
  1451  0DA1  0189               	clrf	9	;volatile
  1452                           
  1453                           ;LCD.c: 69:     TRISD = 0x00;
  1454  0DA2  1683               	bsf	3,5	;RP0=1, select bank1
  1455  0DA3  1303               	bcf	3,6	;RP1=0, select bank1
  1456  0DA4  0188               	clrf	8	;volatile
  1457  0DA5                     l1721:	
  1458                           
  1459                           ;LCD.c: 70:     _delay((unsigned long)((16)*(4000000/4000.0)));
  1460  0DA5  3015               	movlw	21
  1461  0DA6  1283               	bcf	3,5	;RP0=0, select bank0
  1462  0DA7  1303               	bcf	3,6	;RP1=0, select bank0
  1463  0DA8  00AB               	movwf	??_lcd_setup+1
  1464  0DA9  30C5               	movlw	197
  1465  0DAA  00AA               	movwf	??_lcd_setup
  1466  0DAB                     u2777:	
  1467  0DAB  0BAA               	decfsz	??_lcd_setup,f
  1468  0DAC  2DAB               	goto	u2777
  1469  0DAD  0BAB               	decfsz	??_lcd_setup+1,f
  1470  0DAE  2DAB               	goto	u2777
  1471  0DAF  2DB0               	nop2
  1472  0DB0                     l1723:	
  1473                           
  1474                           ;LCD.c: 71:     lcd_command(0x03);
  1475  0DB0  3003               	movlw	3
  1476  0DB1  120A  158A  252B  120A  158A  	fcall	_lcd_command
  1477  0DB6                     l1725:	
  1478                           
  1479                           ;LCD.c: 72:     _delay((unsigned long)((4.2)*(4000000/4000.0)));
  1480  0DB6  3006               	movlw	6
  1481  0DB7  1283               	bcf	3,5	;RP0=0, select bank0
  1482  0DB8  1303               	bcf	3,6	;RP1=0, select bank0
  1483  0DB9  00AB               	movwf	??_lcd_setup+1
  1484  0DBA  3072               	movlw	114
  1485  0DBB  00AA               	movwf	??_lcd_setup
  1486  0DBC                     u2787:	
  1487  0DBC  0BAA               	decfsz	??_lcd_setup,f
  1488  0DBD  2DBC               	goto	u2787
  1489  0DBE  0BAB               	decfsz	??_lcd_setup+1,f
  1490  0DBF  2DBC               	goto	u2787
  1491  0DC0  0000               	nop
  1492  0DC1                     l1727:	
  1493                           
  1494                           ;LCD.c: 73:     lcd_command(0x03);
  1495  0DC1  3003               	movlw	3
  1496  0DC2  120A  158A  252B  120A  158A  	fcall	_lcd_command
  1497  0DC7                     l1729:	
  1498                           
  1499                           ;LCD.c: 74:     _delay((unsigned long)((1)*(4000000/4000.0)));
  1500  0DC7  30C7               	movlw	199
  1501  0DC8  1283               	bcf	3,5	;RP0=0, select bank0
  1502  0DC9  1303               	bcf	3,6	;RP1=0, select bank0
  1503  0DCA  00AA               	movwf	??_lcd_setup
  1504  0DCB                     u2797:	
  1505  0DCB  2DCC               	nop2
  1506  0DCC  0BAA               	decfsz	??_lcd_setup,f
  1507  0DCD  2DCB               	goto	u2797
  1508  0DCE  2DCF               	nop2
  1509  0DCF                     l1731:	
  1510                           
  1511                           ;LCD.c: 75:     lcd_command(0x03);
  1512  0DCF  3003               	movlw	3
  1513  0DD0  120A  158A  252B  120A  158A  	fcall	_lcd_command
  1514  0DD5                     l1733:	
  1515                           
  1516                           ;LCD.c: 76:     lcd_command(0x38);
  1517  0DD5  3038               	movlw	56
  1518  0DD6  120A  158A  252B  120A  158A  	fcall	_lcd_command
  1519  0DDB                     l1735:	
  1520                           
  1521                           ;LCD.c: 77:     lcd_command(0x0C);
  1522  0DDB  300C               	movlw	12
  1523  0DDC  120A  158A  252B  120A  158A  	fcall	_lcd_command
  1524  0DE1                     l1737:	
  1525                           
  1526                           ;LCD.c: 78:     lcd_command(0x06);
  1527  0DE1  3006               	movlw	6
  1528  0DE2  120A  158A  252B  120A  158A  	fcall	_lcd_command
  1529  0DE7                     l131:	
  1530  0DE7  0008               	return
  1531  0DE8                     __end_of_lcd_setup:	
  1532                           
  1533                           	psect	text5
  1534  0D2B                     __ptext5:	
  1535 ;; *************** function _lcd_command *****************
  1536 ;; Defined at:
  1537 ;;		line 16 in file "LCD.c"
  1538 ;; Parameters:    Size  Location     Type
  1539 ;;  a               1    wreg     unsigned char 
  1540 ;; Auto vars:     Size  Location     Type
  1541 ;;  a               1    9[BANK0 ] unsigned char 
  1542 ;; Return value:  Size  Location     Type
  1543 ;;                  1    wreg      void 
  1544 ;; Registers used:
  1545 ;;		wreg
  1546 ;; Tracked objects:
  1547 ;;		On entry : 0/0
  1548 ;;		On exit  : 0/0
  1549 ;;		Unchanged: 0/0
  1550 ;; Data sizes:     COMMON   BANK0   BANK1   BANK3   BANK2
  1551 ;;      Params:         0       0       0       0       0
  1552 ;;      Locals:         0       1       0       0       0
  1553 ;;      Temps:          0       2       0       0       0
  1554 ;;      Totals:         0       3       0       0       0
  1555 ;;Total ram usage:        3 bytes
  1556 ;; Hardware stack levels used:    1
  1557 ;; Hardware stack levels required when called:    2
  1558 ;; This function calls:
  1559 ;;		Nothing
  1560 ;; This function is called by:
  1561 ;;		_lcd_setup
  1562 ;;		_lcd_cursor
  1563 ;;		_r_shift
  1564 ;;		_l_shift
  1565 ;; This function uses a non-reentrant model
  1566 ;;
  1567                           
  1568                           
  1569                           ;psect for function _lcd_command
  1570  0D2B                     _lcd_command:	
  1571                           
  1572                           ;incstack = 0
  1573                           ; Regs used in _lcd_command: [wreg]
  1574                           ;lcd_command@a stored from wreg
  1575  0D2B  1283               	bcf	3,5	;RP0=0, select bank0
  1576  0D2C  1303               	bcf	3,6	;RP1=0, select bank0
  1577  0D2D  00A9               	movwf	lcd_command@a
  1578  0D2E                     l1517:	
  1579                           
  1580                           ;LCD.c: 17:     PORTDbits.RD7 = PORTDbits.RD6 = 0;
  1581  0D2E  1308               	bcf	8,6	;volatile
  1582  0D2F  1388               	bcf	8,7	;volatile
  1583  0D30                     l1519:	
  1584                           
  1585                           ;LCD.c: 18:     PORTB = a;
  1586  0D30  0829               	movf	lcd_command@a,w
  1587  0D31  0086               	movwf	6	;volatile
  1588  0D32                     l1521:	
  1589                           
  1590                           ;LCD.c: 19:     PORTDbits.RD5=1;
  1591  0D32  1688               	bsf	8,5	;volatile
  1592                           
  1593                           ;LCD.c: 20:     _delay((unsigned long)((4)*(4000000/4000.0)));
  1594  0D33  3006               	movlw	6
  1595  0D34  1283               	bcf	3,5	;RP0=0, select bank0
  1596  0D35  1303               	bcf	3,6	;RP1=0, select bank0
  1597  0D36  00A8               	movwf	??_lcd_command+1
  1598  0D37  302F               	movlw	47
  1599  0D38  00A7               	movwf	??_lcd_command
  1600  0D39                     u2807:	
  1601  0D39  0BA7               	decfsz	??_lcd_command,f
  1602  0D3A  2D39               	goto	u2807
  1603  0D3B  0BA8               	decfsz	??_lcd_command+1,f
  1604  0D3C  2D39               	goto	u2807
  1605  0D3D  2D3E               	nop2
  1606  0D3E                     l1523:	
  1607                           
  1608                           ;LCD.c: 21:     PORTDbits.RD5=0;
  1609  0D3E  1283               	bcf	3,5	;RP0=0, select bank0
  1610  0D3F  1303               	bcf	3,6	;RP1=0, select bank0
  1611  0D40  1288               	bcf	8,5	;volatile
  1612  0D41                     l100:	
  1613  0D41  0008               	return
  1614  0D42                     __end_of_lcd_command:	
  1615                           
  1616                           	psect	text6
  1617  0D5C                     __ptext6:	
  1618 ;; *************** function _I2C_Slave_Init *****************
  1619 ;; Defined at:
  1620 ;;		line 93 in file "I2C.c"
  1621 ;; Parameters:    Size  Location     Type
  1622 ;;  address         1    wreg     unsigned char 
  1623 ;; Auto vars:     Size  Location     Type
  1624 ;;  address         1    7[BANK0 ] unsigned char 
  1625 ;; Return value:  Size  Location     Type
  1626 ;;                  1    wreg      void 
  1627 ;; Registers used:
  1628 ;;		wreg
  1629 ;; Tracked objects:
  1630 ;;		On entry : 0/0
  1631 ;;		On exit  : 0/0
  1632 ;;		Unchanged: 0/0
  1633 ;; Data sizes:     COMMON   BANK0   BANK1   BANK3   BANK2
  1634 ;;      Params:         0       0       0       0       0
  1635 ;;      Locals:         0       1       0       0       0
  1636 ;;      Temps:          0       0       0       0       0
  1637 ;;      Totals:         0       1       0       0       0
  1638 ;;Total ram usage:        1 bytes
  1639 ;; Hardware stack levels used:    1
  1640 ;; Hardware stack levels required when called:    2
  1641 ;; This function calls:
  1642 ;;		Nothing
  1643 ;; This function is called by:
  1644 ;;		_setup
  1645 ;; This function uses a non-reentrant model
  1646 ;;
  1647                           
  1648                           
  1649                           ;psect for function _I2C_Slave_Init
  1650  0D5C                     _I2C_Slave_Init:	
  1651                           
  1652                           ;incstack = 0
  1653                           ; Regs used in _I2C_Slave_Init: [wreg]
  1654                           ;I2C_Slave_Init@address stored from wreg
  1655  0D5C  1283               	bcf	3,5	;RP0=0, select bank0
  1656  0D5D  1303               	bcf	3,6	;RP1=0, select bank0
  1657  0D5E  00A7               	movwf	I2C_Slave_Init@address
  1658  0D5F                     l1749:	
  1659                           
  1660                           ;I2C.c: 93: void I2C_Slave_Init(uint8_t address);I2C.c: 94: {;I2C.c: 95:     SSPADD = ad
      +                          dress;
  1661  0D5F  0827               	movf	I2C_Slave_Init@address,w
  1662  0D60  1683               	bsf	3,5	;RP0=1, select bank1
  1663  0D61  1303               	bcf	3,6	;RP1=0, select bank1
  1664  0D62  0093               	movwf	19	;volatile
  1665                           
  1666                           ;I2C.c: 96:     SSPCON = 0x36;
  1667  0D63  3036               	movlw	54
  1668  0D64  1283               	bcf	3,5	;RP0=0, select bank0
  1669  0D65  1303               	bcf	3,6	;RP1=0, select bank0
  1670  0D66  0094               	movwf	20	;volatile
  1671                           
  1672                           ;I2C.c: 97:     SSPSTAT = 0x80;
  1673  0D67  3080               	movlw	128
  1674  0D68  1683               	bsf	3,5	;RP0=1, select bank1
  1675  0D69  1303               	bcf	3,6	;RP1=0, select bank1
  1676  0D6A  0094               	movwf	20	;volatile
  1677                           
  1678                           ;I2C.c: 98:     SSPCON2 = 0x01;
  1679  0D6B  3001               	movlw	1
  1680  0D6C  0091               	movwf	17	;volatile
  1681  0D6D                     l1751:	
  1682                           
  1683                           ;I2C.c: 99:     TRISC3 = 1;
  1684  0D6D  1587               	bsf	7,3	;volatile
  1685  0D6E                     l1753:	
  1686                           
  1687                           ;I2C.c: 100:     TRISC4 = 1;
  1688  0D6E  1607               	bsf	7,4	;volatile
  1689  0D6F                     l1755:	
  1690                           
  1691                           ;I2C.c: 101:     GIE = 1;
  1692  0D6F  178B               	bsf	11,7	;volatile
  1693  0D70                     l1757:	
  1694                           
  1695                           ;I2C.c: 102:     PEIE = 1;
  1696  0D70  170B               	bsf	11,6	;volatile
  1697  0D71                     l1759:	
  1698                           
  1699                           ;I2C.c: 103:     SSPIF = 0;
  1700  0D71  1283               	bcf	3,5	;RP0=0, select bank0
  1701  0D72  1303               	bcf	3,6	;RP1=0, select bank0
  1702  0D73  118C               	bcf	12,3	;volatile
  1703  0D74                     l1761:	
  1704                           
  1705                           ;I2C.c: 104:     SSPIE = 1;
  1706  0D74  1683               	bsf	3,5	;RP0=1, select bank1
  1707  0D75  1303               	bcf	3,6	;RP1=0, select bank1
  1708  0D76  158C               	bsf	12,3	;volatile
  1709  0D77                     l203:	
  1710  0D77  0008               	return
  1711  0D78                     __end_of_I2C_Slave_Init:	
  1712                           
  1713                           	psect	text7
  1714  048F                     __ptext7:	
  1715 ;; *************** function _int_distance *****************
  1716 ;; Defined at:
  1717 ;;		line 121 in file "main.c"
  1718 ;; Parameters:    Size  Location     Type
  1719 ;;  valor           4    5[BANK1 ] unsigned long 
  1720 ;;  v1              1    9[BANK1 ] PTR unsigned char 
  1721 ;;		 -> c1(1), 
  1722 ;;  v2              1   10[BANK1 ] PTR unsigned char 
  1723 ;;		 -> d1(1), 
  1724 ;;  v3              1   11[BANK1 ] PTR unsigned char 
  1725 ;;		 -> u1(1), 
  1726 ;; Auto vars:     Size  Location     Type
  1727 ;;  conv            4   23[BANK1 ] float 
  1728 ;;  c               1   27[BANK1 ] unsigned char 
  1729 ;;  d               1   22[BANK1 ] unsigned char 
  1730 ;;  u               1   21[BANK1 ] unsigned char 
  1731 ;; Return value:  Size  Location     Type
  1732 ;;                  1    wreg      void 
  1733 ;; Registers used:
  1734 ;;		wreg, fsr0l, fsr0h, status,2, status,0, btemp+1, pclath, cstack
  1735 ;; Tracked objects:
  1736 ;;		On entry : 0/0
  1737 ;;		On exit  : 0/0
  1738 ;;		Unchanged: 0/0
  1739 ;; Data sizes:     COMMON   BANK0   BANK1   BANK3   BANK2
  1740 ;;      Params:         0       0       7       0       0
  1741 ;;      Locals:         0       0       7       0       0
  1742 ;;      Temps:          0       0       9       0       0
  1743 ;;      Totals:         0       0      23       0       0
  1744 ;;Total ram usage:       23 bytes
  1745 ;; Hardware stack levels used:    1
  1746 ;; Hardware stack levels required when called:    4
  1747 ;; This function calls:
  1748 ;;		___fldiv
  1749 ;;		___flsub
  1750 ;;		___fltol
  1751 ;;		___wmul
  1752 ;;		___xxtofl
  1753 ;; This function is called by:
  1754 ;;		_main
  1755 ;; This function uses a non-reentrant model
  1756 ;;
  1757                           
  1758                           
  1759                           ;psect for function _int_distance
  1760  048F                     _int_distance:	
  1761  048F                     l2213:	
  1762                           ;incstack = 0
  1763                           ; Regs used in _int_distance: [wreg-fsr0h+status,2+status,0+btemp+1+pclath+cstack]
  1764                           
  1765                           
  1766                           ;main.c: 122:     uint8_t c;;main.c: 123:     uint8_t d;;main.c: 124:     uint8_t u;;mai
      +                          n.c: 125:     float conv = ((float)valor/0.2217506684);
  1767  048F  303E               	movlw	62
  1768  0490  1283               	bcf	3,5	;RP0=0, select bank0
  1769  0491  1303               	bcf	3,6	;RP1=0, select bank0
  1770  0492  00BE               	movwf	___fldiv@a+3
  1771  0493  3063               	movlw	99
  1772  0494  00BD               	movwf	___fldiv@a+2
  1773  0495  3012               	movlw	18
  1774  0496  00BC               	movwf	___fldiv@a+1
  1775  0497  309B               	movlw	155
  1776  0498  00BB               	movwf	___fldiv@a
  1777  0499  1683               	bsf	3,5	;RP0=1, select bank1
  1778  049A  1303               	bcf	3,6	;RP1=0, select bank1
  1779  049B  0828               	movf	(int_distance@valor+3)^(0+128),w
  1780  049C  1283               	bcf	3,5	;RP0=0, select bank0
  1781  049D  1303               	bcf	3,6	;RP1=0, select bank0
  1782  049E  00B0               	movwf	___xxtofl@val+3
  1783  049F  1683               	bsf	3,5	;RP0=1, select bank1
  1784  04A0  1303               	bcf	3,6	;RP1=0, select bank1
  1785  04A1  0827               	movf	(int_distance@valor+2)^(0+128),w
  1786  04A2  1283               	bcf	3,5	;RP0=0, select bank0
  1787  04A3  1303               	bcf	3,6	;RP1=0, select bank0
  1788  04A4  00AF               	movwf	___xxtofl@val+2
  1789  04A5  1683               	bsf	3,5	;RP0=1, select bank1
  1790  04A6  1303               	bcf	3,6	;RP1=0, select bank1
  1791  04A7  0826               	movf	(int_distance@valor+1)^(0+128),w
  1792  04A8  1283               	bcf	3,5	;RP0=0, select bank0
  1793  04A9  1303               	bcf	3,6	;RP1=0, select bank0
  1794  04AA  00AE               	movwf	___xxtofl@val+1
  1795  04AB  1683               	bsf	3,5	;RP0=1, select bank1
  1796  04AC  1303               	bcf	3,6	;RP1=0, select bank1
  1797  04AD  0825               	movf	int_distance@valor^(0+128),w
  1798  04AE  1283               	bcf	3,5	;RP0=0, select bank0
  1799  04AF  1303               	bcf	3,6	;RP1=0, select bank0
  1800  04B0  00AD               	movwf	___xxtofl@val
  1801  04B1  3000               	movlw	0
  1802  04B2  120A  118A  2661  120A  118A  	fcall	___xxtofl
  1803  04B7  1283               	bcf	3,5	;RP0=0, select bank0
  1804  04B8  1303               	bcf	3,6	;RP1=0, select bank0
  1805  04B9  0830               	movf	?___xxtofl+3,w
  1806  04BA  00C2               	movwf	___fldiv@b+3
  1807  04BB  082F               	movf	?___xxtofl+2,w
  1808  04BC  00C1               	movwf	___fldiv@b+2
  1809  04BD  082E               	movf	?___xxtofl+1,w
  1810  04BE  00C0               	movwf	___fldiv@b+1
  1811  04BF  082D               	movf	?___xxtofl,w
  1812  04C0  00BF               	movwf	___fldiv@b
  1813  04C1  120A  118A  22B2  120A  118A  	fcall	___fldiv
  1814  04C6  1283               	bcf	3,5	;RP0=0, select bank0
  1815  04C7  1303               	bcf	3,6	;RP1=0, select bank0
  1816  04C8  083E               	movf	?___fldiv+3,w
  1817  04C9  1683               	bsf	3,5	;RP0=1, select bank1
  1818  04CA  1303               	bcf	3,6	;RP1=0, select bank1
  1819  04CB  00BA               	movwf	(int_distance@conv+3)^(0+128)
  1820  04CC  1283               	bcf	3,5	;RP0=0, select bank0
  1821  04CD  1303               	bcf	3,6	;RP1=0, select bank0
  1822  04CE  083D               	movf	?___fldiv+2,w
  1823  04CF  1683               	bsf	3,5	;RP0=1, select bank1
  1824  04D0  1303               	bcf	3,6	;RP1=0, select bank1
  1825  04D1  00B9               	movwf	(int_distance@conv+2)^(0+128)
  1826  04D2  1283               	bcf	3,5	;RP0=0, select bank0
  1827  04D3  1303               	bcf	3,6	;RP1=0, select bank0
  1828  04D4  083C               	movf	?___fldiv+1,w
  1829  04D5  1683               	bsf	3,5	;RP0=1, select bank1
  1830  04D6  1303               	bcf	3,6	;RP1=0, select bank1
  1831  04D7  00B8               	movwf	(int_distance@conv+1)^(0+128)
  1832  04D8  1283               	bcf	3,5	;RP0=0, select bank0
  1833  04D9  1303               	bcf	3,6	;RP1=0, select bank0
  1834  04DA  083B               	movf	?___fldiv,w
  1835  04DB  1683               	bsf	3,5	;RP0=1, select bank1
  1836  04DC  1303               	bcf	3,6	;RP1=0, select bank1
  1837  04DD  00B7               	movwf	int_distance@conv^(0+128)
  1838                           
  1839                           ;main.c: 126:     c = (uint8_t)(conv/100);
  1840  04DE  083A               	movf	(int_distance@conv+3)^(0+128),w
  1841  04DF  1283               	bcf	3,5	;RP0=0, select bank0
  1842  04E0  1303               	bcf	3,6	;RP1=0, select bank0
  1843  04E1  00C2               	movwf	___fldiv@b+3
  1844  04E2  1683               	bsf	3,5	;RP0=1, select bank1
  1845  04E3  1303               	bcf	3,6	;RP1=0, select bank1
  1846  04E4  0839               	movf	(int_distance@conv+2)^(0+128),w
  1847  04E5  1283               	bcf	3,5	;RP0=0, select bank0
  1848  04E6  1303               	bcf	3,6	;RP1=0, select bank0
  1849  04E7  00C1               	movwf	___fldiv@b+2
  1850  04E8  1683               	bsf	3,5	;RP0=1, select bank1
  1851  04E9  1303               	bcf	3,6	;RP1=0, select bank1
  1852  04EA  0838               	movf	(int_distance@conv+1)^(0+128),w
  1853  04EB  1283               	bcf	3,5	;RP0=0, select bank0
  1854  04EC  1303               	bcf	3,6	;RP1=0, select bank0
  1855  04ED  00C0               	movwf	___fldiv@b+1
  1856  04EE  1683               	bsf	3,5	;RP0=1, select bank1
  1857  04EF  1303               	bcf	3,6	;RP1=0, select bank1
  1858  04F0  0837               	movf	int_distance@conv^(0+128),w
  1859  04F1  1283               	bcf	3,5	;RP0=0, select bank0
  1860  04F2  1303               	bcf	3,6	;RP1=0, select bank0
  1861  04F3  00BF               	movwf	___fldiv@b
  1862  04F4  3042               	movlw	66
  1863  04F5  00BE               	movwf	___fldiv@a+3
  1864  04F6  30C8               	movlw	200
  1865  04F7  00BD               	movwf	___fldiv@a+2
  1866  04F8  3000               	movlw	0
  1867  04F9  00BC               	movwf	___fldiv@a+1
  1868  04FA  3000               	movlw	0
  1869  04FB  00BB               	movwf	___fldiv@a
  1870  04FC  120A  118A  22B2  120A  118A  	fcall	___fldiv
  1871  0501  1283               	bcf	3,5	;RP0=0, select bank0
  1872  0502  1303               	bcf	3,6	;RP1=0, select bank0
  1873  0503  083E               	movf	?___fldiv+3,w
  1874  0504  00E0               	movwf	___fltol@f1+3
  1875  0505  083D               	movf	?___fldiv+2,w
  1876  0506  00DF               	movwf	___fltol@f1+2
  1877  0507  083C               	movf	?___fldiv+1,w
  1878  0508  00DE               	movwf	___fltol@f1+1
  1879  0509  083B               	movf	?___fldiv,w
  1880  050A  00DD               	movwf	___fltol@f1
  1881  050B  120A  158A  2764  120A  118A  	fcall	___fltol
  1882  0510  1283               	bcf	3,5	;RP0=0, select bank0
  1883  0511  1303               	bcf	3,6	;RP1=0, select bank0
  1884  0512  085D               	movf	?___fltol,w
  1885  0513  1683               	bsf	3,5	;RP0=1, select bank1
  1886  0514  1303               	bcf	3,6	;RP1=0, select bank1
  1887  0515  00AC               	movwf	??_int_distance^(0+128)
  1888  0516  082C               	movf	??_int_distance^(0+128),w
  1889  0517  00BB               	movwf	int_distance@c^(0+128)
  1890                           
  1891                           ;main.c: 127:     d = (uint8_t)((((conv)/10)-(c*10)));
  1892  0518  083A               	movf	(int_distance@conv+3)^(0+128),w
  1893  0519  1283               	bcf	3,5	;RP0=0, select bank0
  1894  051A  1303               	bcf	3,6	;RP1=0, select bank0
  1895  051B  00C2               	movwf	___fldiv@b+3
  1896  051C  1683               	bsf	3,5	;RP0=1, select bank1
  1897  051D  1303               	bcf	3,6	;RP1=0, select bank1
  1898  051E  0839               	movf	(int_distance@conv+2)^(0+128),w
  1899  051F  1283               	bcf	3,5	;RP0=0, select bank0
  1900  0520  1303               	bcf	3,6	;RP1=0, select bank0
  1901  0521  00C1               	movwf	___fldiv@b+2
  1902  0522  1683               	bsf	3,5	;RP0=1, select bank1
  1903  0523  1303               	bcf	3,6	;RP1=0, select bank1
  1904  0524  0838               	movf	(int_distance@conv+1)^(0+128),w
  1905  0525  1283               	bcf	3,5	;RP0=0, select bank0
  1906  0526  1303               	bcf	3,6	;RP1=0, select bank0
  1907  0527  00C0               	movwf	___fldiv@b+1
  1908  0528  1683               	bsf	3,5	;RP0=1, select bank1
  1909  0529  1303               	bcf	3,6	;RP1=0, select bank1
  1910  052A  0837               	movf	int_distance@conv^(0+128),w
  1911  052B  1283               	bcf	3,5	;RP0=0, select bank0
  1912  052C  1303               	bcf	3,6	;RP1=0, select bank0
  1913  052D  00BF               	movwf	___fldiv@b
  1914  052E  3041               	movlw	65
  1915  052F  00BE               	movwf	___fldiv@a+3
  1916  0530  3020               	movlw	32
  1917  0531  00BD               	movwf	___fldiv@a+2
  1918  0532  3000               	movlw	0
  1919  0533  00BC               	movwf	___fldiv@a+1
  1920  0534  3000               	movlw	0
  1921  0535  00BB               	movwf	___fldiv@a
  1922  0536  120A  118A  22B2  120A  118A  	fcall	___fldiv
  1923  053B  1283               	bcf	3,5	;RP0=0, select bank0
  1924  053C  1303               	bcf	3,6	;RP1=0, select bank0
  1925  053D  083E               	movf	?___fldiv+3,w
  1926  053E  00DC               	movwf	___flsub@b+3
  1927  053F  083D               	movf	?___fldiv+2,w
  1928  0540  00DB               	movwf	___flsub@b+2
  1929  0541  083C               	movf	?___fldiv+1,w
  1930  0542  00DA               	movwf	___flsub@b+1
  1931  0543  083B               	movf	?___fldiv,w
  1932  0544  00D9               	movwf	___flsub@b
  1933  0545  300A               	movlw	10
  1934  0546  00A9               	movwf	___wmul@multiplicand
  1935  0547  3000               	movlw	0
  1936  0548  00AA               	movwf	___wmul@multiplicand+1
  1937  0549  1683               	bsf	3,5	;RP0=1, select bank1
  1938  054A  1303               	bcf	3,6	;RP1=0, select bank1
  1939  054B  083B               	movf	int_distance@c^(0+128),w
  1940  054C  00AC               	movwf	??_int_distance^(0+128)
  1941  054D  01AD               	clrf	(??_int_distance^(0+128)+1)
  1942  054E  082C               	movf	??_int_distance^(0+128),w
  1943  054F  1283               	bcf	3,5	;RP0=0, select bank0
  1944  0550  1303               	bcf	3,6	;RP1=0, select bank0
  1945  0551  00A7               	movwf	___wmul@multiplier
  1946  0552  1683               	bsf	3,5	;RP0=1, select bank1
  1947  0553  1303               	bcf	3,6	;RP1=0, select bank1
  1948  0554  082D               	movf	(??_int_distance+1)^(0+128),w
  1949  0555  1283               	bcf	3,5	;RP0=0, select bank0
  1950  0556  1303               	bcf	3,6	;RP1=0, select bank0
  1951  0557  00A8               	movwf	___wmul@multiplier+1
  1952  0558  120A  118A  27D2  120A  118A  	fcall	___wmul
  1953  055D  1283               	bcf	3,5	;RP0=0, select bank0
  1954  055E  1303               	bcf	3,6	;RP1=0, select bank0
  1955  055F  0827               	movf	?___wmul,w
  1956  0560  00AD               	movwf	___xxtofl@val
  1957  0561  0828               	movf	?___wmul+1,w
  1958  0562  00AE               	movwf	___xxtofl@val+1
  1959  0563  3000               	movlw	0
  1960  0564  1BAE               	btfsc	___xxtofl@val+1,7
  1961  0565  30FF               	movlw	255
  1962  0566  00AF               	movwf	___xxtofl@val+2
  1963  0567  00B0               	movwf	___xxtofl@val+3
  1964  0568  3001               	movlw	1
  1965  0569  120A  118A  2661  120A  118A  	fcall	___xxtofl
  1966  056E  1283               	bcf	3,5	;RP0=0, select bank0
  1967  056F  1303               	bcf	3,6	;RP1=0, select bank0
  1968  0570  0830               	movf	?___xxtofl+3,w
  1969  0571  00D8               	movwf	___flsub@a+3
  1970  0572  082F               	movf	?___xxtofl+2,w
  1971  0573  00D7               	movwf	___flsub@a+2
  1972  0574  082E               	movf	?___xxtofl+1,w
  1973  0575  00D6               	movwf	___flsub@a+1
  1974  0576  082D               	movf	?___xxtofl,w
  1975  0577  00D5               	movwf	___flsub@a
  1976  0578  120A  158A  2578  120A  118A  	fcall	___flsub
  1977  057D  1283               	bcf	3,5	;RP0=0, select bank0
  1978  057E  1303               	bcf	3,6	;RP1=0, select bank0
  1979  057F  0858               	movf	?___flsub+3,w
  1980  0580  00E0               	movwf	___fltol@f1+3
  1981  0581  0857               	movf	?___flsub+2,w
  1982  0582  00DF               	movwf	___fltol@f1+2
  1983  0583  0856               	movf	?___flsub+1,w
  1984  0584  00DE               	movwf	___fltol@f1+1
  1985  0585  0855               	movf	?___flsub,w
  1986  0586  00DD               	movwf	___fltol@f1
  1987  0587  120A  158A  2764  120A  118A  	fcall	___fltol
  1988  058C  1283               	bcf	3,5	;RP0=0, select bank0
  1989  058D  1303               	bcf	3,6	;RP1=0, select bank0
  1990  058E  085D               	movf	?___fltol,w
  1991  058F  1683               	bsf	3,5	;RP0=1, select bank1
  1992  0590  1303               	bcf	3,6	;RP1=0, select bank1
  1993  0591  00AE               	movwf	(??_int_distance+2)^(0+128)
  1994  0592  082E               	movf	(??_int_distance+2)^(0+128),w
  1995  0593  00B6               	movwf	int_distance@d^(0+128)
  1996                           
  1997                           ;main.c: 128:     u = (uint8_t)((conv)/1-(c*100+d*10));
  1998  0594  083A               	movf	(int_distance@conv+3)^(0+128),w
  1999  0595  1283               	bcf	3,5	;RP0=0, select bank0
  2000  0596  1303               	bcf	3,6	;RP1=0, select bank0
  2001  0597  00C2               	movwf	___fldiv@b+3
  2002  0598  1683               	bsf	3,5	;RP0=1, select bank1
  2003  0599  1303               	bcf	3,6	;RP1=0, select bank1
  2004  059A  0839               	movf	(int_distance@conv+2)^(0+128),w
  2005  059B  1283               	bcf	3,5	;RP0=0, select bank0
  2006  059C  1303               	bcf	3,6	;RP1=0, select bank0
  2007  059D  00C1               	movwf	___fldiv@b+2
  2008  059E  1683               	bsf	3,5	;RP0=1, select bank1
  2009  059F  1303               	bcf	3,6	;RP1=0, select bank1
  2010  05A0  0838               	movf	(int_distance@conv+1)^(0+128),w
  2011  05A1  1283               	bcf	3,5	;RP0=0, select bank0
  2012  05A2  1303               	bcf	3,6	;RP1=0, select bank0
  2013  05A3  00C0               	movwf	___fldiv@b+1
  2014  05A4  1683               	bsf	3,5	;RP0=1, select bank1
  2015  05A5  1303               	bcf	3,6	;RP1=0, select bank1
  2016  05A6  0837               	movf	int_distance@conv^(0+128),w
  2017  05A7  1283               	bcf	3,5	;RP0=0, select bank0
  2018  05A8  1303               	bcf	3,6	;RP1=0, select bank0
  2019  05A9  00BF               	movwf	___fldiv@b
  2020  05AA  303F               	movlw	63
  2021  05AB  00BE               	movwf	___fldiv@a+3
  2022  05AC  3080               	movlw	128
  2023  05AD  00BD               	movwf	___fldiv@a+2
  2024  05AE  3000               	movlw	0
  2025  05AF  00BC               	movwf	___fldiv@a+1
  2026  05B0  3000               	movlw	0
  2027  05B1  00BB               	movwf	___fldiv@a
  2028  05B2  120A  118A  22B2  120A  118A  	fcall	___fldiv
  2029  05B7  1283               	bcf	3,5	;RP0=0, select bank0
  2030  05B8  1303               	bcf	3,6	;RP1=0, select bank0
  2031  05B9  083E               	movf	?___fldiv+3,w
  2032  05BA  00DC               	movwf	___flsub@b+3
  2033  05BB  083D               	movf	?___fldiv+2,w
  2034  05BC  00DB               	movwf	___flsub@b+2
  2035  05BD  083C               	movf	?___fldiv+1,w
  2036  05BE  00DA               	movwf	___flsub@b+1
  2037  05BF  083B               	movf	?___fldiv,w
  2038  05C0  00D9               	movwf	___flsub@b
  2039  05C1  3064               	movlw	100
  2040  05C2  00A9               	movwf	___wmul@multiplicand
  2041  05C3  3000               	movlw	0
  2042  05C4  00AA               	movwf	___wmul@multiplicand+1
  2043  05C5  1683               	bsf	3,5	;RP0=1, select bank1
  2044  05C6  1303               	bcf	3,6	;RP1=0, select bank1
  2045  05C7  083B               	movf	int_distance@c^(0+128),w
  2046  05C8  00AC               	movwf	??_int_distance^(0+128)
  2047  05C9  01AD               	clrf	(??_int_distance^(0+128)+1)
  2048  05CA  082C               	movf	??_int_distance^(0+128),w
  2049  05CB  1283               	bcf	3,5	;RP0=0, select bank0
  2050  05CC  1303               	bcf	3,6	;RP1=0, select bank0
  2051  05CD  00A7               	movwf	___wmul@multiplier
  2052  05CE  1683               	bsf	3,5	;RP0=1, select bank1
  2053  05CF  1303               	bcf	3,6	;RP1=0, select bank1
  2054  05D0  082D               	movf	(??_int_distance+1)^(0+128),w
  2055  05D1  1283               	bcf	3,5	;RP0=0, select bank0
  2056  05D2  1303               	bcf	3,6	;RP1=0, select bank0
  2057  05D3  00A8               	movwf	___wmul@multiplier+1
  2058  05D4  120A  118A  27D2  120A  118A  	fcall	___wmul
  2059  05D9  1283               	bcf	3,5	;RP0=0, select bank0
  2060  05DA  1303               	bcf	3,6	;RP1=0, select bank0
  2061  05DB  0827               	movf	?___wmul,w
  2062  05DC  1683               	bsf	3,5	;RP0=1, select bank1
  2063  05DD  1303               	bcf	3,6	;RP1=0, select bank1
  2064  05DE  00AE               	movwf	(??_int_distance+2)^(0+128)
  2065  05DF  1283               	bcf	3,5	;RP0=0, select bank0
  2066  05E0  1303               	bcf	3,6	;RP1=0, select bank0
  2067  05E1  0828               	movf	?___wmul+1,w
  2068  05E2  1683               	bsf	3,5	;RP0=1, select bank1
  2069  05E3  1303               	bcf	3,6	;RP1=0, select bank1
  2070  05E4  00AF               	movwf	((??_int_distance+2)^(0+128)+1)
  2071  05E5  300A               	movlw	10
  2072  05E6  1283               	bcf	3,5	;RP0=0, select bank0
  2073  05E7  1303               	bcf	3,6	;RP1=0, select bank0
  2074  05E8  00A9               	movwf	___wmul@multiplicand
  2075  05E9  3000               	movlw	0
  2076  05EA  00AA               	movwf	___wmul@multiplicand+1
  2077  05EB  1683               	bsf	3,5	;RP0=1, select bank1
  2078  05EC  1303               	bcf	3,6	;RP1=0, select bank1
  2079  05ED  0836               	movf	int_distance@d^(0+128),w
  2080  05EE  00B0               	movwf	(??_int_distance+4)^(0+128)
  2081  05EF  01B1               	clrf	((??_int_distance+4)^(0+128)+1)
  2082  05F0  0830               	movf	(??_int_distance+4)^(0+128),w
  2083  05F1  1283               	bcf	3,5	;RP0=0, select bank0
  2084  05F2  1303               	bcf	3,6	;RP1=0, select bank0
  2085  05F3  00A7               	movwf	___wmul@multiplier
  2086  05F4  1683               	bsf	3,5	;RP0=1, select bank1
  2087  05F5  1303               	bcf	3,6	;RP1=0, select bank1
  2088  05F6  0831               	movf	(??_int_distance+5)^(0+128),w
  2089  05F7  1283               	bcf	3,5	;RP0=0, select bank0
  2090  05F8  1303               	bcf	3,6	;RP1=0, select bank0
  2091  05F9  00A8               	movwf	___wmul@multiplier+1
  2092  05FA  120A  118A  27D2  120A  118A  	fcall	___wmul
  2093  05FF  1283               	bcf	3,5	;RP0=0, select bank0
  2094  0600  1303               	bcf	3,6	;RP1=0, select bank0
  2095  0601  0827               	movf	?___wmul,w
  2096  0602  1683               	bsf	3,5	;RP0=1, select bank1
  2097  0603  1303               	bcf	3,6	;RP1=0, select bank1
  2098  0604  072E               	addwf	(??_int_distance+2)^(0+128),w
  2099  0605  00B2               	movwf	(??_int_distance+6)^(0+128)
  2100  0606  1283               	bcf	3,5	;RP0=0, select bank0
  2101  0607  1303               	bcf	3,6	;RP1=0, select bank0
  2102  0608  0828               	movf	?___wmul+1,w
  2103  0609  1803               	skipnc
  2104  060A  0A28               	incf	?___wmul+1,w
  2105  060B  1683               	bsf	3,5	;RP0=1, select bank1
  2106  060C  1303               	bcf	3,6	;RP1=0, select bank1
  2107  060D  072F               	addwf	(??_int_distance+3)^(0+128),w
  2108  060E  00B3               	movwf	(??_int_distance+7)^(0+128)
  2109  060F  0832               	movf	(??_int_distance+6)^(0+128),w
  2110  0610  1283               	bcf	3,5	;RP0=0, select bank0
  2111  0611  1303               	bcf	3,6	;RP1=0, select bank0
  2112  0612  00AD               	movwf	___xxtofl@val
  2113  0613  1683               	bsf	3,5	;RP0=1, select bank1
  2114  0614  1303               	bcf	3,6	;RP1=0, select bank1
  2115  0615  0833               	movf	(??_int_distance+7)^(0+128),w
  2116  0616  1283               	bcf	3,5	;RP0=0, select bank0
  2117  0617  1303               	bcf	3,6	;RP1=0, select bank0
  2118  0618  00AE               	movwf	___xxtofl@val+1
  2119  0619  3000               	movlw	0
  2120  061A  1BAE               	btfsc	___xxtofl@val+1,7
  2121  061B  30FF               	movlw	255
  2122  061C  00AF               	movwf	___xxtofl@val+2
  2123  061D  00B0               	movwf	___xxtofl@val+3
  2124  061E  3001               	movlw	1
  2125  061F  120A  118A  2661  120A  118A  	fcall	___xxtofl
  2126  0624  1283               	bcf	3,5	;RP0=0, select bank0
  2127  0625  1303               	bcf	3,6	;RP1=0, select bank0
  2128  0626  0830               	movf	?___xxtofl+3,w
  2129  0627  00D8               	movwf	___flsub@a+3
  2130  0628  082F               	movf	?___xxtofl+2,w
  2131  0629  00D7               	movwf	___flsub@a+2
  2132  062A  082E               	movf	?___xxtofl+1,w
  2133  062B  00D6               	movwf	___flsub@a+1
  2134  062C  082D               	movf	?___xxtofl,w
  2135  062D  00D5               	movwf	___flsub@a
  2136  062E  120A  158A  2578  120A  118A  	fcall	___flsub
  2137  0633  1283               	bcf	3,5	;RP0=0, select bank0
  2138  0634  1303               	bcf	3,6	;RP1=0, select bank0
  2139  0635  0858               	movf	?___flsub+3,w
  2140  0636  00E0               	movwf	___fltol@f1+3
  2141  0637  0857               	movf	?___flsub+2,w
  2142  0638  00DF               	movwf	___fltol@f1+2
  2143  0639  0856               	movf	?___flsub+1,w
  2144  063A  00DE               	movwf	___fltol@f1+1
  2145  063B  0855               	movf	?___flsub,w
  2146  063C  00DD               	movwf	___fltol@f1
  2147  063D  120A  158A  2764  120A  118A  	fcall	___fltol
  2148  0642  1283               	bcf	3,5	;RP0=0, select bank0
  2149  0643  1303               	bcf	3,6	;RP1=0, select bank0
  2150  0644  085D               	movf	?___fltol,w
  2151  0645  1683               	bsf	3,5	;RP0=1, select bank1
  2152  0646  1303               	bcf	3,6	;RP1=0, select bank1
  2153  0647  00B4               	movwf	(??_int_distance+8)^(0+128)
  2154  0648  0834               	movf	(??_int_distance+8)^(0+128),w
  2155  0649  00B5               	movwf	int_distance@u^(0+128)
  2156  064A                     l2215:	
  2157                           
  2158                           ;main.c: 129:     *v1=c+48;
  2159  064A  083B               	movf	int_distance@c^(0+128),w
  2160  064B  3E30               	addlw	48
  2161  064C  00AC               	movwf	??_int_distance^(0+128)
  2162  064D  0829               	movf	int_distance@v1^(0+128),w
  2163  064E  0084               	movwf	4
  2164  064F  082C               	movf	??_int_distance^(0+128),w
  2165  0650  0080               	movwf	0
  2166  0651                     l2217:	
  2167                           
  2168                           ;main.c: 130:     *v2=d+48;
  2169  0651  0836               	movf	int_distance@d^(0+128),w
  2170  0652  3E30               	addlw	48
  2171  0653  00AC               	movwf	??_int_distance^(0+128)
  2172  0654  082A               	movf	int_distance@v2^(0+128),w
  2173  0655  0084               	movwf	4
  2174  0656  082C               	movf	??_int_distance^(0+128),w
  2175  0657  1383               	bcf	3,7	;select IRP bank0
  2176  0658  0080               	movwf	0
  2177  0659                     l2219:	
  2178                           
  2179                           ;main.c: 131:     *v3=u+48;
  2180  0659  0835               	movf	int_distance@u^(0+128),w
  2181  065A  3E30               	addlw	48
  2182  065B  00AC               	movwf	??_int_distance^(0+128)
  2183  065C  082B               	movf	int_distance@v3^(0+128),w
  2184  065D  0084               	movwf	4
  2185  065E  082C               	movf	??_int_distance^(0+128),w
  2186  065F  0080               	movwf	0
  2187  0660                     l78:	
  2188  0660  0008               	return
  2189  0661                     __end_of_int_distance:	
  2190                           
  2191                           	psect	text8
  2192  0661                     __ptext8:	
  2193 ;; *************** function ___xxtofl *****************
  2194 ;; Defined at:
  2195 ;;		line 10 in file "D:\Program Files (x86)\Microchip\xc8\v2.10\pic\sources\c90\common\xxtofl.c"
  2196 ;; Parameters:    Size  Location     Type
  2197 ;;  sign            1    wreg     unsigned char 
  2198 ;;  val             4   13[BANK0 ] long 
  2199 ;; Auto vars:     Size  Location     Type
  2200 ;;  sign            1   21[BANK0 ] unsigned char 
  2201 ;;  arg             4   23[BANK0 ] unsigned long 
  2202 ;;  exp             1   22[BANK0 ] unsigned char 
  2203 ;; Return value:  Size  Location     Type
  2204 ;;                  4   13[BANK0 ] unsigned char 
  2205 ;; Registers used:
  2206 ;;		wreg, status,2, status,0
  2207 ;; Tracked objects:
  2208 ;;		On entry : 0/0
  2209 ;;		On exit  : 0/0
  2210 ;;		Unchanged: 0/0
  2211 ;; Data sizes:     COMMON   BANK0   BANK1   BANK3   BANK2
  2212 ;;      Params:         0       4       0       0       0
  2213 ;;      Locals:         0       6       0       0       0
  2214 ;;      Temps:          0       4       0       0       0
  2215 ;;      Totals:         0      14       0       0       0
  2216 ;;Total ram usage:       14 bytes
  2217 ;; Hardware stack levels used:    1
  2218 ;; Hardware stack levels required when called:    2
  2219 ;; This function calls:
  2220 ;;		Nothing
  2221 ;; This function is called by:
  2222 ;;		_main
  2223 ;;		_int_distance
  2224 ;; This function uses a non-reentrant model
  2225 ;;
  2226                           
  2227                           
  2228                           ;psect for function ___xxtofl
  2229  0661                     ___xxtofl:	
  2230                           
  2231                           ;incstack = 0
  2232                           ; Regs used in ___xxtofl: [wreg+status,2+status,0]
  2233                           ;___xxtofl@sign stored from wreg
  2234  0661  1283               	bcf	3,5	;RP0=0, select bank0
  2235  0662  1303               	bcf	3,6	;RP1=0, select bank0
  2236  0663  00B5               	movwf	___xxtofl@sign
  2237  0664                     l1961:	
  2238  0664  0835               	movf	___xxtofl@sign,w
  2239  0665  1903               	btfsc	3,2
  2240  0666  2E68               	goto	u2221
  2241  0667  2E69               	goto	u2220
  2242  0668                     u2221:	
  2243  0668  2E7D               	goto	l1967
  2244  0669                     u2220:	
  2245  0669                     l1963:	
  2246  0669  1FB0               	btfss	___xxtofl@val+3,7
  2247  066A  2E6C               	goto	u2231
  2248  066B  2E6D               	goto	u2230
  2249  066C                     u2231:	
  2250  066C  2E7D               	goto	l1967
  2251  066D                     u2230:	
  2252  066D                     l1965:	
  2253  066D  092D               	comf	___xxtofl@val,w
  2254  066E  00B7               	movwf	___xxtofl@arg
  2255  066F  092E               	comf	___xxtofl@val+1,w
  2256  0670  00B8               	movwf	___xxtofl@arg+1
  2257  0671  092F               	comf	___xxtofl@val+2,w
  2258  0672  00B9               	movwf	___xxtofl@arg+2
  2259  0673  0930               	comf	___xxtofl@val+3,w
  2260  0674  00BA               	movwf	___xxtofl@arg+3
  2261  0675  0AB7               	incf	___xxtofl@arg,f
  2262  0676  1903               	skipnz
  2263  0677  0AB8               	incf	___xxtofl@arg+1,f
  2264  0678  1903               	skipnz
  2265  0679  0AB9               	incf	___xxtofl@arg+2,f
  2266  067A  1903               	skipnz
  2267  067B  0ABA               	incf	___xxtofl@arg+3,f
  2268  067C  2E85               	goto	l716
  2269  067D                     l1967:	
  2270  067D  0830               	movf	___xxtofl@val+3,w
  2271  067E  00BA               	movwf	___xxtofl@arg+3
  2272  067F  082F               	movf	___xxtofl@val+2,w
  2273  0680  00B9               	movwf	___xxtofl@arg+2
  2274  0681  082E               	movf	___xxtofl@val+1,w
  2275  0682  00B8               	movwf	___xxtofl@arg+1
  2276  0683  082D               	movf	___xxtofl@val,w
  2277  0684  00B7               	movwf	___xxtofl@arg
  2278  0685                     l716:	
  2279  0685  0830               	movf	___xxtofl@val+3,w
  2280  0686  042F               	iorwf	___xxtofl@val+2,w
  2281  0687  042E               	iorwf	___xxtofl@val+1,w
  2282  0688  042D               	iorwf	___xxtofl@val,w
  2283  0689  1D03               	skipz
  2284  068A  2E8C               	goto	u2241
  2285  068B  2E8D               	goto	u2240
  2286  068C                     u2241:	
  2287  068C  2E96               	goto	l1973
  2288  068D                     u2240:	
  2289  068D                     l1969:	
  2290  068D  3000               	movlw	0
  2291  068E  00B0               	movwf	?___xxtofl+3
  2292  068F  3000               	movlw	0
  2293  0690  00AF               	movwf	?___xxtofl+2
  2294  0691  3000               	movlw	0
  2295  0692  00AE               	movwf	?___xxtofl+1
  2296  0693  3000               	movlw	0
  2297  0694  00AD               	movwf	?___xxtofl
  2298  0695  2F1C               	goto	l718
  2299  0696                     l1973:	
  2300  0696  3096               	movlw	150
  2301  0697  00B1               	movwf	??___xxtofl
  2302  0698  0831               	movf	??___xxtofl,w
  2303  0699  00B6               	movwf	___xxtofl@exp
  2304  069A  2EA8               	goto	l1977
  2305  069B                     l1975:	
  2306  069B  3001               	movlw	1
  2307  069C  00B1               	movwf	??___xxtofl
  2308  069D  0831               	movf	??___xxtofl,w
  2309  069E  07B6               	addwf	___xxtofl@exp,f
  2310  069F  3001               	movlw	1
  2311  06A0                     u2255:	
  2312  06A0  1003               	clrc
  2313  06A1  0CBA               	rrf	___xxtofl@arg+3,f
  2314  06A2  0CB9               	rrf	___xxtofl@arg+2,f
  2315  06A3  0CB8               	rrf	___xxtofl@arg+1,f
  2316  06A4  0CB7               	rrf	___xxtofl@arg,f
  2317  06A5  3EFF               	addlw	-1
  2318  06A6  1D03               	skipz
  2319  06A7  2EA0               	goto	u2255
  2320  06A8                     l1977:	
  2321  06A8  30FE               	movlw	254
  2322  06A9  053A               	andwf	___xxtofl@arg+3,w
  2323  06AA  1D03               	btfss	3,2
  2324  06AB  2EAD               	goto	u2261
  2325  06AC  2EAE               	goto	u2260
  2326  06AD                     u2261:	
  2327  06AD  2E9B               	goto	l1975
  2328  06AE                     u2260:	
  2329  06AE  2ECA               	goto	l722
  2330  06AF                     l1979:	
  2331  06AF  3001               	movlw	1
  2332  06B0  00B1               	movwf	??___xxtofl
  2333  06B1  0831               	movf	??___xxtofl,w
  2334  06B2  07B6               	addwf	___xxtofl@exp,f
  2335  06B3                     l1981:	
  2336  06B3  3001               	movlw	1
  2337  06B4  07B7               	addwf	___xxtofl@arg,f
  2338  06B5  3000               	movlw	0
  2339  06B6  1803               	skipnc
  2340  06B7  3001               	movlw	1
  2341  06B8  07B8               	addwf	___xxtofl@arg+1,f
  2342  06B9  3000               	movlw	0
  2343  06BA  1803               	skipnc
  2344  06BB  3001               	movlw	1
  2345  06BC  07B9               	addwf	___xxtofl@arg+2,f
  2346  06BD  3000               	movlw	0
  2347  06BE  1803               	skipnc
  2348  06BF  3001               	movlw	1
  2349  06C0  07BA               	addwf	___xxtofl@arg+3,f
  2350  06C1                     l1983:	
  2351  06C1  3001               	movlw	1
  2352  06C2                     u2275:	
  2353  06C2  1003               	clrc
  2354  06C3  0CBA               	rrf	___xxtofl@arg+3,f
  2355  06C4  0CB9               	rrf	___xxtofl@arg+2,f
  2356  06C5  0CB8               	rrf	___xxtofl@arg+1,f
  2357  06C6  0CB7               	rrf	___xxtofl@arg,f
  2358  06C7  3EFF               	addlw	-1
  2359  06C8  1D03               	skipz
  2360  06C9  2EC2               	goto	u2275
  2361  06CA                     l722:	
  2362  06CA  30FF               	movlw	255
  2363  06CB  053A               	andwf	___xxtofl@arg+3,w
  2364  06CC  1D03               	btfss	3,2
  2365  06CD  2ECF               	goto	u2281
  2366  06CE  2ED0               	goto	u2280
  2367  06CF                     u2281:	
  2368  06CF  2EAF               	goto	l1979
  2369  06D0                     u2280:	
  2370  06D0  2EDC               	goto	l1987
  2371  06D1                     l1985:	
  2372  06D1  3001               	movlw	1
  2373  06D2  02B6               	subwf	___xxtofl@exp,f
  2374  06D3  3001               	movlw	1
  2375  06D4  00B1               	movwf	??___xxtofl
  2376  06D5                     u2295:	
  2377  06D5  1003               	clrc
  2378  06D6  0DB7               	rlf	___xxtofl@arg,f
  2379  06D7  0DB8               	rlf	___xxtofl@arg+1,f
  2380  06D8  0DB9               	rlf	___xxtofl@arg+2,f
  2381  06D9  0DBA               	rlf	___xxtofl@arg+3,f
  2382  06DA  0BB1               	decfsz	??___xxtofl,f
  2383  06DB  2ED5               	goto	u2295
  2384  06DC                     l1987:	
  2385  06DC  1BB9               	btfsc	___xxtofl@arg+2,7
  2386  06DD  2EDF               	goto	u2301
  2387  06DE  2EE0               	goto	u2300
  2388  06DF                     u2301:	
  2389  06DF  2EE6               	goto	l729
  2390  06E0                     u2300:	
  2391  06E0                     l1989:	
  2392  06E0  3002               	movlw	2
  2393  06E1  0236               	subwf	___xxtofl@exp,w
  2394  06E2  1803               	skipnc
  2395  06E3  2EE5               	goto	u2311
  2396  06E4  2EE6               	goto	u2310
  2397  06E5                     u2311:	
  2398  06E5  2ED1               	goto	l1985
  2399  06E6                     u2310:	
  2400  06E6                     l729:	
  2401  06E6  1836               	btfsc	___xxtofl@exp,0
  2402  06E7  2EE9               	goto	u2321
  2403  06E8  2EEA               	goto	u2320
  2404  06E9                     u2321:	
  2405  06E9  2EF2               	goto	l730
  2406  06EA                     u2320:	
  2407  06EA                     l1991:	
  2408  06EA  30FF               	movlw	255
  2409  06EB  05B7               	andwf	___xxtofl@arg,f
  2410  06EC  30FF               	movlw	255
  2411  06ED  05B8               	andwf	___xxtofl@arg+1,f
  2412  06EE  307F               	movlw	127
  2413  06EF  05B9               	andwf	___xxtofl@arg+2,f
  2414  06F0  30FF               	movlw	255
  2415  06F1  05BA               	andwf	___xxtofl@arg+3,f
  2416  06F2                     l730:	
  2417  06F2  1003               	clrc
  2418  06F3  0CB6               	rrf	___xxtofl@exp,f
  2419  06F4                     l1993:	
  2420  06F4  0836               	movf	___xxtofl@exp,w
  2421  06F5  00B1               	movwf	??___xxtofl
  2422  06F6  01B2               	clrf	??___xxtofl+1
  2423  06F7  01B3               	clrf	??___xxtofl+2
  2424  06F8  01B4               	clrf	??___xxtofl+3
  2425  06F9  3018               	movlw	24
  2426  06FA                     u2335:	
  2427  06FA  1003               	clrc
  2428  06FB  0DB1               	rlf	??___xxtofl,f
  2429  06FC  0DB2               	rlf	??___xxtofl+1,f
  2430  06FD  0DB3               	rlf	??___xxtofl+2,f
  2431  06FE  0DB4               	rlf	??___xxtofl+3,f
  2432  06FF                     u2330:	
  2433  06FF  3EFF               	addlw	-1
  2434  0700  1D03               	skipz
  2435  0701  2EFA               	goto	u2335
  2436  0702  0831               	movf	??___xxtofl,w
  2437  0703  04B7               	iorwf	___xxtofl@arg,f
  2438  0704  0832               	movf	??___xxtofl+1,w
  2439  0705  04B8               	iorwf	___xxtofl@arg+1,f
  2440  0706  0833               	movf	??___xxtofl+2,w
  2441  0707  04B9               	iorwf	___xxtofl@arg+2,f
  2442  0708  0834               	movf	??___xxtofl+3,w
  2443  0709  04BA               	iorwf	___xxtofl@arg+3,f
  2444  070A                     l1995:	
  2445  070A  0835               	movf	___xxtofl@sign,w
  2446  070B  1903               	btfsc	3,2
  2447  070C  2F0E               	goto	u2341
  2448  070D  2F0F               	goto	u2340
  2449  070E                     u2341:	
  2450  070E  2F14               	goto	l2001
  2451  070F                     u2340:	
  2452  070F                     l1997:	
  2453  070F  1FB0               	btfss	___xxtofl@val+3,7
  2454  0710  2F12               	goto	u2351
  2455  0711  2F13               	goto	u2350
  2456  0712                     u2351:	
  2457  0712  2F14               	goto	l2001
  2458  0713                     u2350:	
  2459  0713                     l1999:	
  2460  0713  17BA               	bsf	___xxtofl@arg+3,7
  2461  0714                     l2001:	
  2462  0714  083A               	movf	___xxtofl@arg+3,w
  2463  0715  00B0               	movwf	?___xxtofl+3
  2464  0716  0839               	movf	___xxtofl@arg+2,w
  2465  0717  00AF               	movwf	?___xxtofl+2
  2466  0718  0838               	movf	___xxtofl@arg+1,w
  2467  0719  00AE               	movwf	?___xxtofl+1
  2468  071A  0837               	movf	___xxtofl@arg,w
  2469  071B  00AD               	movwf	?___xxtofl
  2470  071C                     l718:	
  2471  071C  0008               	return
  2472  071D                     __end_of___xxtofl:	
  2473                           
  2474                           	psect	text9
  2475  07D2                     __ptext9:	
  2476 ;; *************** function ___wmul *****************
  2477 ;; Defined at:
  2478 ;;		line 15 in file "D:\Program Files (x86)\Microchip\xc8\v2.10\pic\sources\c90\common\Umul16.c"
  2479 ;; Parameters:    Size  Location     Type
  2480 ;;  multiplier      2    7[BANK0 ] unsigned int 
  2481 ;;  multiplicand    2    9[BANK0 ] unsigned int 
  2482 ;; Auto vars:     Size  Location     Type
  2483 ;;  product         2   11[BANK0 ] unsigned int 
  2484 ;; Return value:  Size  Location     Type
  2485 ;;                  2    7[BANK0 ] unsigned int 
  2486 ;; Registers used:
  2487 ;;		wreg, status,2, status,0
  2488 ;; Tracked objects:
  2489 ;;		On entry : 0/0
  2490 ;;		On exit  : 0/0
  2491 ;;		Unchanged: 0/0
  2492 ;; Data sizes:     COMMON   BANK0   BANK1   BANK3   BANK2
  2493 ;;      Params:         0       4       0       0       0
  2494 ;;      Locals:         0       2       0       0       0
  2495 ;;      Temps:          0       0       0       0       0
  2496 ;;      Totals:         0       6       0       0       0
  2497 ;;Total ram usage:        6 bytes
  2498 ;; Hardware stack levels used:    1
  2499 ;; Hardware stack levels required when called:    2
  2500 ;; This function calls:
  2501 ;;		Nothing
  2502 ;; This function is called by:
  2503 ;;		_int_distance
  2504 ;; This function uses a non-reentrant model
  2505 ;;
  2506                           
  2507                           
  2508                           ;psect for function ___wmul
  2509  07D2                     ___wmul:	
  2510  07D2                     l1763:	
  2511                           ;incstack = 0
  2512                           ; Regs used in ___wmul: [wreg+status,2+status,0]
  2513                           
  2514  07D2  1283               	bcf	3,5	;RP0=0, select bank0
  2515  07D3  1303               	bcf	3,6	;RP1=0, select bank0
  2516  07D4  01AB               	clrf	___wmul@product
  2517  07D5  01AC               	clrf	___wmul@product+1
  2518  07D6                     l1765:	
  2519  07D6  1C27               	btfss	___wmul@multiplier,0
  2520  07D7  2FD9               	goto	u1791
  2521  07D8  2FDA               	goto	u1790
  2522  07D9                     u1791:	
  2523  07D9  2FE0               	goto	l289
  2524  07DA                     u1790:	
  2525  07DA                     l1767:	
  2526  07DA  0829               	movf	___wmul@multiplicand,w
  2527  07DB  07AB               	addwf	___wmul@product,f
  2528  07DC  1803               	skipnc
  2529  07DD  0AAC               	incf	___wmul@product+1,f
  2530  07DE  082A               	movf	___wmul@multiplicand+1,w
  2531  07DF  07AC               	addwf	___wmul@product+1,f
  2532  07E0                     l289:	
  2533  07E0  3001               	movlw	1
  2534  07E1                     u1805:	
  2535  07E1  1003               	clrc
  2536  07E2  0DA9               	rlf	___wmul@multiplicand,f
  2537  07E3  0DAA               	rlf	___wmul@multiplicand+1,f
  2538  07E4  3EFF               	addlw	-1
  2539  07E5  1D03               	skipz
  2540  07E6  2FE1               	goto	u1805
  2541  07E7                     l1769:	
  2542  07E7  3001               	movlw	1
  2543  07E8                     u1815:	
  2544  07E8  1003               	clrc
  2545  07E9  0CA8               	rrf	___wmul@multiplier+1,f
  2546  07EA  0CA7               	rrf	___wmul@multiplier,f
  2547  07EB  3EFF               	addlw	-1
  2548  07EC  1D03               	skipz
  2549  07ED  2FE8               	goto	u1815
  2550  07EE                     l1771:	
  2551  07EE  0827               	movf	___wmul@multiplier,w
  2552  07EF  0428               	iorwf	___wmul@multiplier+1,w
  2553  07F0  1D03               	btfss	3,2
  2554  07F1  2FF3               	goto	u1821
  2555  07F2  2FF4               	goto	u1820
  2556  07F3                     u1821:	
  2557  07F3  2FD6               	goto	l1765
  2558  07F4                     u1820:	
  2559  07F4                     l1773:	
  2560  07F4  082C               	movf	___wmul@product+1,w
  2561  07F5  00A8               	movwf	?___wmul+1
  2562  07F6  082B               	movf	___wmul@product,w
  2563  07F7  00A7               	movwf	?___wmul
  2564  07F8                     l291:	
  2565  07F8  0008               	return
  2566  07F9                     __end_of___wmul:	
  2567                           
  2568                           	psect	text10
  2569  0F64                     __ptext10:	
  2570 ;; *************** function ___fltol *****************
  2571 ;; Defined at:
  2572 ;;		line 43 in file "D:\Program Files (x86)\Microchip\xc8\v2.10\pic\sources\c90\common\fltol.c"
  2573 ;; Parameters:    Size  Location     Type
  2574 ;;  f1              4   61[BANK0 ] unsigned int 
  2575 ;; Auto vars:     Size  Location     Type
  2576 ;;  exp1            1   66[BANK0 ] unsigned char 
  2577 ;;  sign1           1   65[BANK0 ] unsigned char 
  2578 ;; Return value:  Size  Location     Type
  2579 ;;                  4   61[BANK0 ] long 
  2580 ;; Registers used:
  2581 ;;		wreg, status,2, status,0
  2582 ;; Tracked objects:
  2583 ;;		On entry : 0/0
  2584 ;;		On exit  : 0/0
  2585 ;;		Unchanged: 0/0
  2586 ;; Data sizes:     COMMON   BANK0   BANK1   BANK3   BANK2
  2587 ;;      Params:         0       4       0       0       0
  2588 ;;      Locals:         0       2       0       0       0
  2589 ;;      Temps:          0       0       5       0       0
  2590 ;;      Totals:         0       6       5       0       0
  2591 ;;Total ram usage:       11 bytes
  2592 ;; Hardware stack levels used:    1
  2593 ;; Hardware stack levels required when called:    2
  2594 ;; This function calls:
  2595 ;;		Nothing
  2596 ;; This function is called by:
  2597 ;;		_main
  2598 ;;		_int_distance
  2599 ;; This function uses a non-reentrant model
  2600 ;;
  2601                           
  2602                           
  2603                           ;psect for function ___fltol
  2604  0F64                     ___fltol:	
  2605  0F64                     l2177:	
  2606                           ;incstack = 0
  2607                           ; Regs used in ___fltol: [wreg+status,2+status,0]
  2608                           
  2609  0F64  1003               	clrc
  2610  0F65  1283               	bcf	3,5	;RP0=0, select bank0
  2611  0F66  1303               	bcf	3,6	;RP1=0, select bank0
  2612  0F67  0D5F               	rlf	___fltol@f1+2,w
  2613  0F68  0D60               	rlf	___fltol@f1+3,w
  2614  0F69  1683               	bsf	3,5	;RP0=1, select bank1
  2615  0F6A  1303               	bcf	3,6	;RP1=0, select bank1
  2616  0F6B  00A0               	movwf	??___fltol^(0+128)
  2617  0F6C  0820               	movf	??___fltol^(0+128),w
  2618  0F6D  1283               	bcf	3,5	;RP0=0, select bank0
  2619  0F6E  1303               	bcf	3,6	;RP1=0, select bank0
  2620  0F6F  00E2               	movwf	___fltol@exp1
  2621  0F70  0862               	movf	___fltol@exp1,w
  2622  0F71  1D03               	btfss	3,2
  2623  0F72  2F74               	goto	u2601
  2624  0F73  2F75               	goto	u2600
  2625  0F74                     u2601:	
  2626  0F74  2F7E               	goto	l2183
  2627  0F75                     u2600:	
  2628  0F75                     l2179:	
  2629  0F75  3000               	movlw	0
  2630  0F76  00E0               	movwf	?___fltol+3
  2631  0F77  3000               	movlw	0
  2632  0F78  00DF               	movwf	?___fltol+2
  2633  0F79  3000               	movlw	0
  2634  0F7A  00DE               	movwf	?___fltol+1
  2635  0F7B  3000               	movlw	0
  2636  0F7C  00DD               	movwf	?___fltol
  2637  0F7D  2FFF               	goto	l475
  2638  0F7E                     l2183:	
  2639  0F7E  085D               	movf	___fltol@f1,w
  2640  0F7F  1683               	bsf	3,5	;RP0=1, select bank1
  2641  0F80  1303               	bcf	3,6	;RP1=0, select bank1
  2642  0F81  00A0               	movwf	??___fltol^(0+128)
  2643  0F82  1283               	bcf	3,5	;RP0=0, select bank0
  2644  0F83  1303               	bcf	3,6	;RP1=0, select bank0
  2645  0F84  085E               	movf	___fltol@f1+1,w
  2646  0F85  1683               	bsf	3,5	;RP0=1, select bank1
  2647  0F86  1303               	bcf	3,6	;RP1=0, select bank1
  2648  0F87  00A1               	movwf	(??___fltol^(0+128)+1)
  2649  0F88  1283               	bcf	3,5	;RP0=0, select bank0
  2650  0F89  1303               	bcf	3,6	;RP1=0, select bank0
  2651  0F8A  085F               	movf	___fltol@f1+2,w
  2652  0F8B  1683               	bsf	3,5	;RP0=1, select bank1
  2653  0F8C  1303               	bcf	3,6	;RP1=0, select bank1
  2654  0F8D  00A2               	movwf	(??___fltol^(0+128)+2)
  2655  0F8E  1283               	bcf	3,5	;RP0=0, select bank0
  2656  0F8F  1303               	bcf	3,6	;RP1=0, select bank0
  2657  0F90  0860               	movf	___fltol@f1+3,w
  2658  0F91  1683               	bsf	3,5	;RP0=1, select bank1
  2659  0F92  1303               	bcf	3,6	;RP1=0, select bank1
  2660  0F93  00A3               	movwf	(??___fltol^(0+128)+3)
  2661  0F94  301F               	movlw	31
  2662  0F95                     u2615:	
  2663  0F95  1003               	clrc
  2664  0F96  0CA3               	rrf	(??___fltol^(0+128)+3),f
  2665  0F97  0CA2               	rrf	(??___fltol^(0+128)+2),f
  2666  0F98  0CA1               	rrf	(??___fltol^(0+128)+1),f
  2667  0F99  0CA0               	rrf	??___fltol^(0+128),f
  2668  0F9A                     u2610:	
  2669  0F9A  3EFF               	addlw	-1
  2670  0F9B  1D03               	skipz
  2671  0F9C  2F95               	goto	u2615
  2672  0F9D  0820               	movf	??___fltol^(0+128),w
  2673  0F9E  00A4               	movwf	(??___fltol+4)^(0+128)
  2674  0F9F  0824               	movf	(??___fltol+4)^(0+128),w
  2675  0FA0  1283               	bcf	3,5	;RP0=0, select bank0
  2676  0FA1  1303               	bcf	3,6	;RP1=0, select bank0
  2677  0FA2  00E1               	movwf	___fltol@sign1
  2678  0FA3                     l2185:	
  2679  0FA3  17DF               	bsf	___fltol@f1+2,7
  2680  0FA4                     l2187:	
  2681  0FA4  30FF               	movlw	255
  2682  0FA5  05DD               	andwf	___fltol@f1,f
  2683  0FA6  30FF               	movlw	255
  2684  0FA7  05DE               	andwf	___fltol@f1+1,f
  2685  0FA8  30FF               	movlw	255
  2686  0FA9  05DF               	andwf	___fltol@f1+2,f
  2687  0FAA  3000               	movlw	0
  2688  0FAB  05E0               	andwf	___fltol@f1+3,f
  2689  0FAC                     l2189:	
  2690  0FAC  3096               	movlw	150
  2691  0FAD  02E2               	subwf	___fltol@exp1,f
  2692  0FAE                     l2191:	
  2693  0FAE  1FE2               	btfss	___fltol@exp1,7
  2694  0FAF  2FB1               	goto	u2621
  2695  0FB0  2FB2               	goto	u2620
  2696  0FB1                     u2621:	
  2697  0FB1  2FD0               	goto	l2201
  2698  0FB2                     u2620:	
  2699  0FB2                     l2193:	
  2700  0FB2  0862               	movf	___fltol@exp1,w
  2701  0FB3  3A80               	xorlw	128
  2702  0FB4  3E97               	addlw	151
  2703  0FB5  1803               	skipnc
  2704  0FB6  2FB8               	goto	u2631
  2705  0FB7  2FB9               	goto	u2630
  2706  0FB8                     u2631:	
  2707  0FB8  2FBA               	goto	l2199
  2708  0FB9                     u2630:	
  2709  0FB9  2F75               	goto	l2179
  2710  0FBA                     l2199:	
  2711  0FBA  3001               	movlw	1
  2712  0FBB                     u2645:	
  2713  0FBB  1003               	clrc
  2714  0FBC  0CE0               	rrf	___fltol@f1+3,f
  2715  0FBD  0CDF               	rrf	___fltol@f1+2,f
  2716  0FBE  0CDE               	rrf	___fltol@f1+1,f
  2717  0FBF  0CDD               	rrf	___fltol@f1,f
  2718  0FC0  3EFF               	addlw	-1
  2719  0FC1  1D03               	skipz
  2720  0FC2  2FBB               	goto	u2645
  2721  0FC3  3001               	movlw	1
  2722  0FC4  1683               	bsf	3,5	;RP0=1, select bank1
  2723  0FC5  1303               	bcf	3,6	;RP1=0, select bank1
  2724  0FC6  00A0               	movwf	??___fltol^(0+128)
  2725  0FC7  0820               	movf	??___fltol^(0+128),w
  2726  0FC8  1283               	bcf	3,5	;RP0=0, select bank0
  2727  0FC9  1303               	bcf	3,6	;RP1=0, select bank0
  2728  0FCA  07E2               	addwf	___fltol@exp1,f
  2729  0FCB  1D03               	btfss	3,2
  2730  0FCC  2FCE               	goto	u2651
  2731  0FCD  2FCF               	goto	u2650
  2732  0FCE                     u2651:	
  2733  0FCE  2FBA               	goto	l2199
  2734  0FCF                     u2650:	
  2735  0FCF  2FEF               	goto	l2209
  2736  0FD0                     l2201:	
  2737  0FD0  3020               	movlw	32
  2738  0FD1  0262               	subwf	___fltol@exp1,w
  2739  0FD2  1C03               	skipc
  2740  0FD3  2FD5               	goto	u2661
  2741  0FD4  2FD6               	goto	u2660
  2742  0FD5                     u2661:	
  2743  0FD5  2FEA               	goto	l482
  2744  0FD6                     u2660:	
  2745  0FD6  2F75               	goto	l2179
  2746  0FD7                     l2207:	
  2747  0FD7  3001               	movlw	1
  2748  0FD8  1683               	bsf	3,5	;RP0=1, select bank1
  2749  0FD9  1303               	bcf	3,6	;RP1=0, select bank1
  2750  0FDA  00A0               	movwf	??___fltol^(0+128)
  2751  0FDB                     u2675:	
  2752  0FDB  1003               	clrc
  2753  0FDC  1283               	bcf	3,5	;RP0=0, select bank0
  2754  0FDD  1303               	bcf	3,6	;RP1=0, select bank0
  2755  0FDE  0DDD               	rlf	___fltol@f1,f
  2756  0FDF  0DDE               	rlf	___fltol@f1+1,f
  2757  0FE0  0DDF               	rlf	___fltol@f1+2,f
  2758  0FE1  0DE0               	rlf	___fltol@f1+3,f
  2759  0FE2  1683               	bsf	3,5	;RP0=1, select bank1
  2760  0FE3  1303               	bcf	3,6	;RP1=0, select bank1
  2761  0FE4  0BA0               	decfsz	??___fltol^(0+128),f
  2762  0FE5  2FDB               	goto	u2675
  2763  0FE6  3001               	movlw	1
  2764  0FE7  1283               	bcf	3,5	;RP0=0, select bank0
  2765  0FE8  1303               	bcf	3,6	;RP1=0, select bank0
  2766  0FE9  02E2               	subwf	___fltol@exp1,f
  2767  0FEA                     l482:	
  2768  0FEA  0862               	movf	___fltol@exp1,w
  2769  0FEB  1D03               	btfss	3,2
  2770  0FEC  2FEE               	goto	u2681
  2771  0FED  2FEF               	goto	u2680
  2772  0FEE                     u2681:	
  2773  0FEE  2FD7               	goto	l2207
  2774  0FEF                     u2680:	
  2775  0FEF                     l2209:	
  2776  0FEF  0861               	movf	___fltol@sign1,w
  2777  0FF0  1903               	btfsc	3,2
  2778  0FF1  2FF3               	goto	u2691
  2779  0FF2  2FF4               	goto	u2690
  2780  0FF3                     u2691:	
  2781  0FF3  2FFF               	goto	l485
  2782  0FF4                     u2690:	
  2783  0FF4                     l2211:	
  2784  0FF4  09DD               	comf	___fltol@f1,f
  2785  0FF5  09DE               	comf	___fltol@f1+1,f
  2786  0FF6  09DF               	comf	___fltol@f1+2,f
  2787  0FF7  09E0               	comf	___fltol@f1+3,f
  2788  0FF8  0ADD               	incf	___fltol@f1,f
  2789  0FF9  1903               	skipnz
  2790  0FFA  0ADE               	incf	___fltol@f1+1,f
  2791  0FFB  1903               	skipnz
  2792  0FFC  0ADF               	incf	___fltol@f1+2,f
  2793  0FFD  1903               	skipnz
  2794  0FFE  0AE0               	incf	___fltol@f1+3,f
  2795  0FFF                     l485:	
  2796  0FFF                     l475:	
  2797  0FFF  0008               	return
  2798  1000                     __end_of___fltol:	
  2799                           
  2800                           	psect	text11
  2801  0D78                     __ptext11:	
  2802 ;; *************** function ___flsub *****************
  2803 ;; Defined at:
  2804 ;;		line 242 in file "D:\Program Files (x86)\Microchip\xc8\v2.10\pic\sources\c90\common\sprcadd.c"
  2805 ;; Parameters:    Size  Location     Type
  2806 ;;  a               4   53[BANK0 ] long 
  2807 ;;  b               4   57[BANK0 ] long 
  2808 ;; Auto vars:     Size  Location     Type
  2809 ;;		None
  2810 ;; Return value:  Size  Location     Type
  2811 ;;                  4   53[BANK0 ] long 
  2812 ;; Registers used:
  2813 ;;		wreg, status,2, status,0, btemp+1, pclath, cstack
  2814 ;; Tracked objects:
  2815 ;;		On entry : 0/0
  2816 ;;		On exit  : 0/0
  2817 ;;		Unchanged: 0/0
  2818 ;; Data sizes:     COMMON   BANK0   BANK1   BANK3   BANK2
  2819 ;;      Params:         0       8       0       0       0
  2820 ;;      Locals:         0       0       0       0       0
  2821 ;;      Temps:          0       0       0       0       0
  2822 ;;      Totals:         0       8       0       0       0
  2823 ;;Total ram usage:        8 bytes
  2824 ;; Hardware stack levels used:    1
  2825 ;; Hardware stack levels required when called:    3
  2826 ;; This function calls:
  2827 ;;		___fladd
  2828 ;; This function is called by:
  2829 ;;		_int_distance
  2830 ;; This function uses a non-reentrant model
  2831 ;;
  2832                           
  2833                           
  2834                           ;psect for function ___flsub
  2835  0D78                     ___flsub:	
  2836  0D78                     l1813:	
  2837                           ;incstack = 0
  2838                           ; Regs used in ___flsub: [wreg+status,2+status,0+btemp+1+pclath+cstack]
  2839                           
  2840  0D78  3080               	movlw	128
  2841  0D79  1283               	bcf	3,5	;RP0=0, select bank0
  2842  0D7A  1303               	bcf	3,6	;RP1=0, select bank0
  2843  0D7B  06D8               	xorwf	___flsub@a+3,f
  2844  0D7C                     l1815:	
  2845  0D7C  085C               	movf	___flsub@b+3,w
  2846  0D7D  00AA               	movwf	___fladd@b+3
  2847  0D7E  085B               	movf	___flsub@b+2,w
  2848  0D7F  00A9               	movwf	___fladd@b+2
  2849  0D80  085A               	movf	___flsub@b+1,w
  2850  0D81  00A8               	movwf	___fladd@b+1
  2851  0D82  0859               	movf	___flsub@b,w
  2852  0D83  00A7               	movwf	___fladd@b
  2853  0D84  0858               	movf	___flsub@a+3,w
  2854  0D85  00AE               	movwf	___fladd@a+3
  2855  0D86  0857               	movf	___flsub@a+2,w
  2856  0D87  00AD               	movwf	___fladd@a+2
  2857  0D88  0856               	movf	___flsub@a+1,w
  2858  0D89  00AC               	movwf	___fladd@a+1
  2859  0D8A  0855               	movf	___flsub@a,w
  2860  0D8B  00AB               	movwf	___fladd@a
  2861  0D8C  120A  118A  202A  120A  158A  	fcall	___fladd
  2862  0D91  1283               	bcf	3,5	;RP0=0, select bank0
  2863  0D92  1303               	bcf	3,6	;RP1=0, select bank0
  2864  0D93  082A               	movf	?___fladd+3,w
  2865  0D94  00D8               	movwf	?___flsub+3
  2866  0D95  0829               	movf	?___fladd+2,w
  2867  0D96  00D7               	movwf	?___flsub+2
  2868  0D97  0828               	movf	?___fladd+1,w
  2869  0D98  00D6               	movwf	?___flsub+1
  2870  0D99  0827               	movf	?___fladd,w
  2871  0D9A  00D5               	movwf	?___flsub
  2872  0D9B                     l628:	
  2873  0D9B  0008               	return
  2874  0D9C                     __end_of___flsub:	
  2875                           
  2876                           	psect	text12
  2877  002A                     __ptext12:	
  2878 ;; *************** function ___fladd *****************
  2879 ;; Defined at:
  2880 ;;		line 10 in file "D:\Program Files (x86)\Microchip\xc8\v2.10\pic\sources\c90\common\sprcadd.c"
  2881 ;; Parameters:    Size  Location     Type
  2882 ;;  b               4    7[BANK0 ] long 
  2883 ;;  a               4   11[BANK0 ] long 
  2884 ;; Auto vars:     Size  Location     Type
  2885 ;;  grs             1   26[BANK0 ] unsigned char 
  2886 ;;  bexp            1   25[BANK0 ] unsigned char 
  2887 ;;  aexp            1   24[BANK0 ] unsigned char 
  2888 ;;  signs           1   23[BANK0 ] unsigned char 
  2889 ;; Return value:  Size  Location     Type
  2890 ;;                  4    7[BANK0 ] unsigned char 
  2891 ;; Registers used:
  2892 ;;		wreg, status,2, status,0, btemp+1
  2893 ;; Tracked objects:
  2894 ;;		On entry : 0/0
  2895 ;;		On exit  : 0/0
  2896 ;;		Unchanged: 0/0
  2897 ;; Data sizes:     COMMON   BANK0   BANK1   BANK3   BANK2
  2898 ;;      Params:         0       8       0       0       0
  2899 ;;      Locals:         0       4       0       0       0
  2900 ;;      Temps:          0       8       0       0       0
  2901 ;;      Totals:         0      20       0       0       0
  2902 ;;Total ram usage:       20 bytes
  2903 ;; Hardware stack levels used:    1
  2904 ;; Hardware stack levels required when called:    2
  2905 ;; This function calls:
  2906 ;;		Nothing
  2907 ;; This function is called by:
  2908 ;;		___flsub
  2909 ;; This function uses a non-reentrant model
  2910 ;;
  2911                           
  2912                           
  2913                           ;psect for function ___fladd
  2914  002A                     ___fladd:	
  2915  002A                     l1525:	
  2916                           ;incstack = 0
  2917                           ; Regs used in ___fladd: [wreg+status,2+status,0+btemp+1]
  2918                           
  2919  002A  1283               	bcf	3,5	;RP0=0, select bank0
  2920  002B  1303               	bcf	3,6	;RP1=0, select bank0
  2921  002C  082A               	movf	___fladd@b+3,w
  2922  002D  3980               	andlw	128
  2923  002E  00AF               	movwf	??___fladd
  2924  002F  082F               	movf	??___fladd,w
  2925  0030  00B7               	movwf	___fladd@signs
  2926  0031                     l1527:	
  2927  0031  082A               	movf	___fladd@b+3,w
  2928  0032  00AF               	movwf	??___fladd
  2929  0033  072F               	addwf	??___fladd,w
  2930  0034  00B0               	movwf	??___fladd+1
  2931  0035  0830               	movf	??___fladd+1,w
  2932  0036  00B9               	movwf	___fladd@bexp
  2933  0037                     l1529:	
  2934  0037  1FA9               	btfss	___fladd@b+2,7
  2935  0038  283A               	goto	u1331
  2936  0039  283B               	goto	u1330
  2937  003A                     u1331:	
  2938  003A  283C               	goto	l1533
  2939  003B                     u1330:	
  2940  003B                     l1531:	
  2941  003B  1439               	bsf	___fladd@bexp,0
  2942  003C                     l1533:	
  2943  003C  0839               	movf	___fladd@bexp,w
  2944  003D  1903               	btfsc	3,2
  2945  003E  2840               	goto	u1341
  2946  003F  2841               	goto	u1340
  2947  0040                     u1341:	
  2948  0040  2851               	goto	l1543
  2949  0041                     u1340:	
  2950  0041                     l1535:	
  2951  0041  0A39               	incf	___fladd@bexp,w
  2952  0042  1D03               	btfss	3,2
  2953  0043  2845               	goto	u1351
  2954  0044  2846               	goto	u1350
  2955  0045                     u1351:	
  2956  0045  284E               	goto	l1539
  2957  0046                     u1350:	
  2958  0046                     l1537:	
  2959  0046  3000               	movlw	0
  2960  0047  00AA               	movwf	___fladd@b+3
  2961  0048  3000               	movlw	0
  2962  0049  00A9               	movwf	___fladd@b+2
  2963  004A  3000               	movlw	0
  2964  004B  00A8               	movwf	___fladd@b+1
  2965  004C  3000               	movlw	0
  2966  004D  00A7               	movwf	___fladd@b
  2967  004E                     l1539:	
  2968  004E  17A9               	bsf	___fladd@b+2,7
  2969  004F                     l1541:	
  2970  004F  01AA               	clrf	___fladd@b+3
  2971  0050  2859               	goto	l1545
  2972  0051                     l1543:	
  2973  0051  3000               	movlw	0
  2974  0052  00AA               	movwf	___fladd@b+3
  2975  0053  3000               	movlw	0
  2976  0054  00A9               	movwf	___fladd@b+2
  2977  0055  3000               	movlw	0
  2978  0056  00A8               	movwf	___fladd@b+1
  2979  0057  3000               	movlw	0
  2980  0058  00A7               	movwf	___fladd@b
  2981  0059                     l1545:	
  2982  0059  082E               	movf	___fladd@a+3,w
  2983  005A  3980               	andlw	128
  2984  005B  00AF               	movwf	??___fladd
  2985  005C  082F               	movf	??___fladd,w
  2986  005D  00B8               	movwf	___fladd@aexp
  2987  005E                     l1547:	
  2988  005E  0838               	movf	___fladd@aexp,w
  2989  005F  0637               	xorwf	___fladd@signs,w
  2990  0060  1903               	skipnz
  2991  0061  2863               	goto	u1361
  2992  0062  2864               	goto	u1360
  2993  0063                     u1361:	
  2994  0063  2865               	goto	l1551
  2995  0064                     u1360:	
  2996  0064                     l1549:	
  2997  0064  1737               	bsf	___fladd@signs,6
  2998  0065                     l1551:	
  2999  0065  082E               	movf	___fladd@a+3,w
  3000  0066  00AF               	movwf	??___fladd
  3001  0067  072F               	addwf	??___fladd,w
  3002  0068  00B0               	movwf	??___fladd+1
  3003  0069  0830               	movf	??___fladd+1,w
  3004  006A  00B8               	movwf	___fladd@aexp
  3005  006B                     l1553:	
  3006  006B  1FAD               	btfss	___fladd@a+2,7
  3007  006C  286E               	goto	u1371
  3008  006D  286F               	goto	u1370
  3009  006E                     u1371:	
  3010  006E  2870               	goto	l1557
  3011  006F                     u1370:	
  3012  006F                     l1555:	
  3013  006F  1438               	bsf	___fladd@aexp,0
  3014  0070                     l1557:	
  3015  0070  0838               	movf	___fladd@aexp,w
  3016  0071  1903               	btfsc	3,2
  3017  0072  2874               	goto	u1381
  3018  0073  2875               	goto	u1380
  3019  0074                     u1381:	
  3020  0074  2885               	goto	l1567
  3021  0075                     u1380:	
  3022  0075                     l1559:	
  3023  0075  0A38               	incf	___fladd@aexp,w
  3024  0076  1D03               	btfss	3,2
  3025  0077  2879               	goto	u1391
  3026  0078  287A               	goto	u1390
  3027  0079                     u1391:	
  3028  0079  2882               	goto	l1563
  3029  007A                     u1390:	
  3030  007A                     l1561:	
  3031  007A  3000               	movlw	0
  3032  007B  00AE               	movwf	___fladd@a+3
  3033  007C  3000               	movlw	0
  3034  007D  00AD               	movwf	___fladd@a+2
  3035  007E  3000               	movlw	0
  3036  007F  00AC               	movwf	___fladd@a+1
  3037  0080  3000               	movlw	0
  3038  0081  00AB               	movwf	___fladd@a
  3039  0082                     l1563:	
  3040  0082  17AD               	bsf	___fladd@a+2,7
  3041  0083                     l1565:	
  3042  0083  01AE               	clrf	___fladd@a+3
  3043  0084  288D               	goto	l582
  3044  0085                     l1567:	
  3045  0085  3000               	movlw	0
  3046  0086  00AE               	movwf	___fladd@a+3
  3047  0087  3000               	movlw	0
  3048  0088  00AD               	movwf	___fladd@a+2
  3049  0089  3000               	movlw	0
  3050  008A  00AC               	movwf	___fladd@a+1
  3051  008B  3000               	movlw	0
  3052  008C  00AB               	movwf	___fladd@a
  3053  008D                     l582:	
  3054  008D  0839               	movf	___fladd@bexp,w
  3055  008E  0238               	subwf	___fladd@aexp,w
  3056  008F  1803               	skipnc
  3057  0090  2892               	goto	u1401
  3058  0091  2893               	goto	u1400
  3059  0092                     u1401:	
  3060  0092  28D7               	goto	l1603
  3061  0093                     u1400:	
  3062  0093                     l1569:	
  3063  0093  1F37               	btfss	___fladd@signs,6
  3064  0094  2896               	goto	u1411
  3065  0095  2897               	goto	u1410
  3066  0096                     u1411:	
  3067  0096  289B               	goto	l1573
  3068  0097                     u1410:	
  3069  0097                     l1571:	
  3070  0097  3080               	movlw	128
  3071  0098  00AF               	movwf	??___fladd
  3072  0099  082F               	movf	??___fladd,w
  3073  009A  06B7               	xorwf	___fladd@signs,f
  3074  009B                     l1573:	
  3075  009B  0839               	movf	___fladd@bexp,w
  3076  009C  00AF               	movwf	??___fladd
  3077  009D  082F               	movf	??___fladd,w
  3078  009E  00BA               	movwf	___fladd@grs
  3079  009F                     l1575:	
  3080  009F  0838               	movf	___fladd@aexp,w
  3081  00A0  00AF               	movwf	??___fladd
  3082  00A1  082F               	movf	??___fladd,w
  3083  00A2  00B9               	movwf	___fladd@bexp
  3084  00A3                     l1577:	
  3085  00A3  083A               	movf	___fladd@grs,w
  3086  00A4  00AF               	movwf	??___fladd
  3087  00A5  082F               	movf	??___fladd,w
  3088  00A6  00B8               	movwf	___fladd@aexp
  3089  00A7                     l1579:	
  3090  00A7  0827               	movf	___fladd@b,w
  3091  00A8  00AF               	movwf	??___fladd
  3092  00A9  082F               	movf	??___fladd,w
  3093  00AA  00BA               	movwf	___fladd@grs
  3094  00AB                     l1581:	
  3095  00AB  082B               	movf	___fladd@a,w
  3096  00AC  00AF               	movwf	??___fladd
  3097  00AD  082F               	movf	??___fladd,w
  3098  00AE  00A7               	movwf	___fladd@b
  3099  00AF                     l1583:	
  3100  00AF  083A               	movf	___fladd@grs,w
  3101  00B0  00AF               	movwf	??___fladd
  3102  00B1  082F               	movf	??___fladd,w
  3103  00B2  00AB               	movwf	___fladd@a
  3104  00B3                     l1585:	
  3105  00B3  0828               	movf	___fladd@b+1,w
  3106  00B4  00AF               	movwf	??___fladd
  3107  00B5  082F               	movf	??___fladd,w
  3108  00B6  00BA               	movwf	___fladd@grs
  3109  00B7                     l1587:	
  3110  00B7  082C               	movf	___fladd@a+1,w
  3111  00B8  00AF               	movwf	??___fladd
  3112  00B9  082F               	movf	??___fladd,w
  3113  00BA  00A8               	movwf	___fladd@b+1
  3114  00BB                     l1589:	
  3115  00BB  083A               	movf	___fladd@grs,w
  3116  00BC  00AF               	movwf	??___fladd
  3117  00BD  082F               	movf	??___fladd,w
  3118  00BE  00AC               	movwf	___fladd@a+1
  3119  00BF                     l1591:	
  3120  00BF  0829               	movf	___fladd@b+2,w
  3121  00C0  00AF               	movwf	??___fladd
  3122  00C1  082F               	movf	??___fladd,w
  3123  00C2  00BA               	movwf	___fladd@grs
  3124  00C3                     l1593:	
  3125  00C3  082D               	movf	___fladd@a+2,w
  3126  00C4  00AF               	movwf	??___fladd
  3127  00C5  082F               	movf	??___fladd,w
  3128  00C6  00A9               	movwf	___fladd@b+2
  3129  00C7                     l1595:	
  3130  00C7  083A               	movf	___fladd@grs,w
  3131  00C8  00AF               	movwf	??___fladd
  3132  00C9  082F               	movf	??___fladd,w
  3133  00CA  00AD               	movwf	___fladd@a+2
  3134  00CB                     l1597:	
  3135  00CB  082A               	movf	___fladd@b+3,w
  3136  00CC  00AF               	movwf	??___fladd
  3137  00CD  082F               	movf	??___fladd,w
  3138  00CE  00BA               	movwf	___fladd@grs
  3139  00CF                     l1599:	
  3140  00CF  082E               	movf	___fladd@a+3,w
  3141  00D0  00AF               	movwf	??___fladd
  3142  00D1  082F               	movf	??___fladd,w
  3143  00D2  00AA               	movwf	___fladd@b+3
  3144  00D3                     l1601:	
  3145  00D3  083A               	movf	___fladd@grs,w
  3146  00D4  00AF               	movwf	??___fladd
  3147  00D5  082F               	movf	??___fladd,w
  3148  00D6  00AE               	movwf	___fladd@a+3
  3149  00D7                     l1603:	
  3150  00D7  01BA               	clrf	___fladd@grs
  3151  00D8                     l1605:	
  3152  00D8  0838               	movf	___fladd@aexp,w
  3153  00D9  00AF               	movwf	??___fladd
  3154  00DA  01B0               	clrf	??___fladd+1
  3155  00DB  0830               	movf	??___fladd+1,w
  3156  00DC  00B2               	movwf	??___fladd+3
  3157  00DD  0839               	movf	___fladd@bexp,w
  3158  00DE  022F               	subwf	??___fladd,w
  3159  00DF  00B1               	movwf	??___fladd+2
  3160  00E0  1C03               	skipc
  3161  00E1  03B2               	decf	??___fladd+3,f
  3162  00E2  0832               	movf	??___fladd+3,w
  3163  00E3  3A80               	xorlw	128
  3164  00E4  00FF               	movwf	btemp+1
  3165  00E5  3080               	movlw	128
  3166  00E6  027F               	subwf	btemp+1,w
  3167  00E7  1D03               	skipz
  3168  00E8  28EB               	goto	u1425
  3169  00E9  301A               	movlw	26
  3170  00EA  0231               	subwf	??___fladd+2,w
  3171  00EB                     u1425:	
  3172  00EB  1C03               	skipc
  3173  00EC  28EE               	goto	u1421
  3174  00ED  28EF               	goto	u1420
  3175  00EE                     u1421:	
  3176  00EE  292C               	goto	l1621
  3177  00EF                     u1420:	
  3178  00EF                     l1607:	
  3179  00EF  1283               	bcf	3,5	;RP0=0, select bank0
  3180  00F0  1303               	bcf	3,6	;RP1=0, select bank0
  3181  00F1  082A               	movf	___fladd@b+3,w
  3182  00F2  0429               	iorwf	___fladd@b+2,w
  3183  00F3  0428               	iorwf	___fladd@b+1,w
  3184  00F4  0427               	iorwf	___fladd@b,w
  3185  00F5  1D03               	skipz
  3186  00F6  28F8               	goto	u1431
  3187  00F7  28FA               	goto	u1430
  3188  00F8                     u1431:	
  3189  00F8  3001               	movlw	1
  3190  00F9  28FB               	goto	u1440
  3191  00FA                     u1430:	
  3192  00FA  3000               	movlw	0
  3193  00FB                     u1440:	
  3194  00FB  00AF               	movwf	??___fladd
  3195  00FC  082F               	movf	??___fladd,w
  3196  00FD  00BA               	movwf	___fladd@grs
  3197  00FE  3000               	movlw	0
  3198  00FF  00AA               	movwf	___fladd@b+3
  3199  0100  3000               	movlw	0
  3200  0101  00A9               	movwf	___fladd@b+2
  3201  0102  3000               	movlw	0
  3202  0103  00A8               	movwf	___fladd@b+1
  3203  0104  3000               	movlw	0
  3204  0105  00A7               	movwf	___fladd@b
  3205  0106  0838               	movf	___fladd@aexp,w
  3206  0107  00AF               	movwf	??___fladd
  3207  0108  082F               	movf	??___fladd,w
  3208  0109  00B9               	movwf	___fladd@bexp
  3209  010A  2934               	goto	l586
  3210  010B                     l588:	
  3211  010B  1C3A               	btfss	___fladd@grs,0
  3212  010C  290E               	goto	u1451
  3213  010D  290F               	goto	u1450
  3214  010E                     u1451:	
  3215  010E  2918               	goto	l1611
  3216  010F                     u1450:	
  3217  010F                     l1609:	
  3218  010F  083A               	movf	___fladd@grs,w
  3219  0110  00AF               	movwf	??___fladd
  3220  0111  1003               	clrc
  3221  0112  0C2F               	rrf	??___fladd,w
  3222  0113  3801               	iorlw	1
  3223  0114  00B0               	movwf	??___fladd+1
  3224  0115  0830               	movf	??___fladd+1,w
  3225  0116  00BA               	movwf	___fladd@grs
  3226  0117  291A               	goto	l1613
  3227  0118                     l1611:	
  3228  0118  1003               	clrc
  3229  0119  0CBA               	rrf	___fladd@grs,f
  3230  011A                     l1613:	
  3231  011A  1C27               	btfss	___fladd@b,0
  3232  011B  291D               	goto	u1461
  3233  011C  291E               	goto	u1460
  3234  011D                     u1461:	
  3235  011D  291F               	goto	l1617
  3236  011E                     u1460:	
  3237  011E                     l1615:	
  3238  011E  17BA               	bsf	___fladd@grs,7
  3239  011F                     l1617:	
  3240  011F  3001               	movlw	1
  3241  0120  00AF               	movwf	??___fladd
  3242  0121                     u1475:	
  3243  0121  0D2A               	rlf	___fladd@b+3,w
  3244  0122  0CAA               	rrf	___fladd@b+3,f
  3245  0123  0CA9               	rrf	___fladd@b+2,f
  3246  0124  0CA8               	rrf	___fladd@b+1,f
  3247  0125  0CA7               	rrf	___fladd@b,f
  3248  0126  0BAF               	decfsz	??___fladd& (0+127),f
  3249  0127  2921               	goto	u1475
  3250  0128                     l1619:	
  3251  0128  3001               	movlw	1
  3252  0129  00AF               	movwf	??___fladd
  3253  012A  082F               	movf	??___fladd,w
  3254  012B  07B9               	addwf	___fladd@bexp,f
  3255  012C                     l1621:	
  3256  012C  1283               	bcf	3,5	;RP0=0, select bank0
  3257  012D  1303               	bcf	3,6	;RP1=0, select bank0
  3258  012E  0838               	movf	___fladd@aexp,w
  3259  012F  0239               	subwf	___fladd@bexp,w
  3260  0130  1C03               	skipc
  3261  0131  2933               	goto	u1481
  3262  0132  2934               	goto	u1480
  3263  0133                     u1481:	
  3264  0133  290B               	goto	l588
  3265  0134                     u1480:	
  3266  0134                     l586:	
  3267  0134  1B37               	btfsc	___fladd@signs,6
  3268  0135  2937               	goto	u1491
  3269  0136  2938               	goto	u1490
  3270  0137                     u1491:	
  3271  0137  2983               	goto	l1647
  3272  0138                     u1490:	
  3273  0138                     l1623:	
  3274  0138  0839               	movf	___fladd@bexp,w
  3275  0139  1D03               	btfss	3,2
  3276  013A  293C               	goto	u1501
  3277  013B  293D               	goto	u1500
  3278  013C                     u1501:	
  3279  013C  2946               	goto	l1629
  3280  013D                     u1500:	
  3281  013D                     l1625:	
  3282  013D  3000               	movlw	0
  3283  013E  00AA               	movwf	?___fladd+3
  3284  013F  3000               	movlw	0
  3285  0140  00A9               	movwf	?___fladd+2
  3286  0141  3000               	movlw	0
  3287  0142  00A8               	movwf	?___fladd+1
  3288  0143  3000               	movlw	0
  3289  0144  00A7               	movwf	?___fladd
  3290  0145  2AB1               	goto	l595
  3291  0146                     l1629:	
  3292  0146  082B               	movf	___fladd@a,w
  3293  0147  07A7               	addwf	___fladd@b,f
  3294  0148  082C               	movf	___fladd@a+1,w
  3295  0149  1103               	clrz
  3296  014A  1803               	skipnc
  3297  014B  3E01               	addlw	1
  3298  014C  1903               	skipnz
  3299  014D  294F               	goto	u1511
  3300  014E  07A8               	addwf	___fladd@b+1,f
  3301  014F                     u1511:	
  3302  014F  082D               	movf	___fladd@a+2,w
  3303  0150  1103               	clrz
  3304  0151  1803               	skipnc
  3305  0152  3E01               	addlw	1
  3306  0153  1903               	skipnz
  3307  0154  2956               	goto	u1512
  3308  0155  07A9               	addwf	___fladd@b+2,f
  3309  0156                     u1512:	
  3310  0156  082E               	movf	___fladd@a+3,w
  3311  0157  1103               	clrz
  3312  0158  1803               	skipnc
  3313  0159  3E01               	addlw	1
  3314  015A  1903               	skipnz
  3315  015B  295D               	goto	u1513
  3316  015C  07AA               	addwf	___fladd@b+3,f
  3317  015D                     u1513:	
  3318  015D                     l1631:	
  3319  015D  1C2A               	btfss	___fladd@b+3,0
  3320  015E  2960               	goto	u1521
  3321  015F  2961               	goto	u1520
  3322  0160                     u1521:	
  3323  0160  2A37               	goto	l1681
  3324  0161                     u1520:	
  3325  0161                     l1633:	
  3326  0161  1C3A               	btfss	___fladd@grs,0
  3327  0162  2964               	goto	u1531
  3328  0163  2965               	goto	u1530
  3329  0164                     u1531:	
  3330  0164  296E               	goto	l1637
  3331  0165                     u1530:	
  3332  0165                     l1635:	
  3333  0165  083A               	movf	___fladd@grs,w
  3334  0166  00AF               	movwf	??___fladd
  3335  0167  1003               	clrc
  3336  0168  0C2F               	rrf	??___fladd,w
  3337  0169  3801               	iorlw	1
  3338  016A  00B0               	movwf	??___fladd+1
  3339  016B  0830               	movf	??___fladd+1,w
  3340  016C  00BA               	movwf	___fladd@grs
  3341  016D  2970               	goto	l1639
  3342  016E                     l1637:	
  3343  016E  1003               	clrc
  3344  016F  0CBA               	rrf	___fladd@grs,f
  3345  0170                     l1639:	
  3346  0170  1C27               	btfss	___fladd@b,0
  3347  0171  2973               	goto	u1541
  3348  0172  2974               	goto	u1540
  3349  0173                     u1541:	
  3350  0173  2975               	goto	l1643
  3351  0174                     u1540:	
  3352  0174                     l1641:	
  3353  0174  17BA               	bsf	___fladd@grs,7
  3354  0175                     l1643:	
  3355  0175  3001               	movlw	1
  3356  0176  00AF               	movwf	??___fladd
  3357  0177                     u1555:	
  3358  0177  0D2A               	rlf	___fladd@b+3,w
  3359  0178  0CAA               	rrf	___fladd@b+3,f
  3360  0179  0CA9               	rrf	___fladd@b+2,f
  3361  017A  0CA8               	rrf	___fladd@b+1,f
  3362  017B  0CA7               	rrf	___fladd@b,f
  3363  017C  0BAF               	decfsz	??___fladd& (0+127),f
  3364  017D  2977               	goto	u1555
  3365  017E                     l1645:	
  3366  017E  3001               	movlw	1
  3367  017F  00AF               	movwf	??___fladd
  3368  0180  082F               	movf	??___fladd,w
  3369  0181  07B9               	addwf	___fladd@bexp,f
  3370  0182  2A37               	goto	l1681
  3371  0183                     l1647:	
  3372  0183  082A               	movf	___fladd@b+3,w
  3373  0184  3A80               	xorlw	128
  3374  0185  00FF               	movwf	btemp+1
  3375  0186  082E               	movf	___fladd@a+3,w
  3376  0187  3A80               	xorlw	128
  3377  0188  027F               	subwf	btemp+1,w
  3378  0189  1D03               	skipz
  3379  018A  2995               	goto	u1563
  3380  018B  082D               	movf	___fladd@a+2,w
  3381  018C  0229               	subwf	___fladd@b+2,w
  3382  018D  1D03               	skipz
  3383  018E  2995               	goto	u1563
  3384  018F  082C               	movf	___fladd@a+1,w
  3385  0190  0228               	subwf	___fladd@b+1,w
  3386  0191  1D03               	skipz
  3387  0192  2995               	goto	u1563
  3388  0193  082B               	movf	___fladd@a,w
  3389  0194  0227               	subwf	___fladd@b,w
  3390  0195                     u1563:	
  3391  0195  1803               	skipnc
  3392  0196  2998               	goto	u1561
  3393  0197  2999               	goto	u1560
  3394  0198                     u1561:	
  3395  0198  29F1               	goto	l1657
  3396  0199                     u1560:	
  3397  0199                     l1649:	
  3398  0199  30FF               	movlw	255
  3399  019A  00AF               	movwf	??___fladd
  3400  019B  30FF               	movlw	255
  3401  019C  00B0               	movwf	??___fladd+1
  3402  019D  30FF               	movlw	255
  3403  019E  00B1               	movwf	??___fladd+2
  3404  019F  30FF               	movlw	255
  3405  01A0  00B2               	movwf	??___fladd+3
  3406  01A1  082B               	movf	___fladd@a,w
  3407  01A2  00B3               	movwf	??___fladd+4
  3408  01A3  082C               	movf	___fladd@a+1,w
  3409  01A4  00B4               	movwf	??___fladd+5
  3410  01A5  082D               	movf	___fladd@a+2,w
  3411  01A6  00B5               	movwf	??___fladd+6
  3412  01A7  082E               	movf	___fladd@a+3,w
  3413  01A8  00B6               	movwf	??___fladd+7
  3414  01A9  0827               	movf	___fladd@b,w
  3415  01AA  02B3               	subwf	??___fladd+4,f
  3416  01AB  0828               	movf	___fladd@b+1,w
  3417  01AC  1C03               	skipc
  3418  01AD  0F28               	incfsz	___fladd@b+1,w
  3419  01AE  29B0               	goto	u1571
  3420  01AF  29B1               	goto	u1572
  3421  01B0                     u1571:	
  3422  01B0  02B4               	subwf	??___fladd+5,f
  3423  01B1                     u1572:	
  3424  01B1  0829               	movf	___fladd@b+2,w
  3425  01B2  1C03               	skipc
  3426  01B3  0F29               	incfsz	___fladd@b+2,w
  3427  01B4  29B6               	goto	u1573
  3428  01B5  29B7               	goto	u1574
  3429  01B6                     u1573:	
  3430  01B6  02B5               	subwf	??___fladd+6,f
  3431  01B7                     u1574:	
  3432  01B7  082A               	movf	___fladd@b+3,w
  3433  01B8  1C03               	skipc
  3434  01B9  0F2A               	incfsz	___fladd@b+3,w
  3435  01BA  29BC               	goto	u1575
  3436  01BB  29BD               	goto	u1576
  3437  01BC                     u1575:	
  3438  01BC  02B6               	subwf	??___fladd+7,f
  3439  01BD                     u1576:	
  3440  01BD  0833               	movf	??___fladd+4,w
  3441  01BE  07AF               	addwf	??___fladd,f
  3442  01BF  0834               	movf	??___fladd+5,w
  3443  01C0  1803               	skipnc
  3444  01C1  0F34               	incfsz	??___fladd+5,w
  3445  01C2  29C4               	goto	u1580
  3446  01C3  29C5               	goto	u1581
  3447  01C4                     u1580:	
  3448  01C4  07B0               	addwf	??___fladd+1,f
  3449  01C5                     u1581:	
  3450  01C5  0835               	movf	??___fladd+6,w
  3451  01C6  1803               	skipnc
  3452  01C7  0F35               	incfsz	??___fladd+6,w
  3453  01C8  29CA               	goto	u1582
  3454  01C9  29CB               	goto	u1583
  3455  01CA                     u1582:	
  3456  01CA  07B1               	addwf	??___fladd+2,f
  3457  01CB                     u1583:	
  3458  01CB  0836               	movf	??___fladd+7,w
  3459  01CC  1803               	skipnc
  3460  01CD  0A36               	incf	??___fladd+7,w
  3461  01CE  07B2               	addwf	??___fladd+3,f
  3462  01CF  0832               	movf	??___fladd+3,w
  3463  01D0  00AA               	movwf	___fladd@b+3
  3464  01D1  0831               	movf	??___fladd+2,w
  3465  01D2  00A9               	movwf	___fladd@b+2
  3466  01D3  0830               	movf	??___fladd+1,w
  3467  01D4  00A8               	movwf	___fladd@b+1
  3468  01D5  082F               	movf	??___fladd,w
  3469  01D6  00A7               	movwf	___fladd@b
  3470  01D7                     l1651:	
  3471  01D7  3080               	movlw	128
  3472  01D8  00AF               	movwf	??___fladd
  3473  01D9  082F               	movf	??___fladd,w
  3474  01DA  06B7               	xorwf	___fladd@signs,f
  3475  01DB  09BA               	comf	___fladd@grs,f
  3476  01DC  0ABA               	incf	___fladd@grs,f
  3477  01DD                     l1653:	
  3478  01DD  083A               	movf	___fladd@grs,w
  3479  01DE  1D03               	btfss	3,2
  3480  01DF  29E1               	goto	u1591
  3481  01E0  29E2               	goto	u1590
  3482  01E1                     u1591:	
  3483  01E1  29FF               	goto	l603
  3484  01E2                     u1590:	
  3485  01E2                     l1655:	
  3486  01E2  3001               	movlw	1
  3487  01E3  07A7               	addwf	___fladd@b,f
  3488  01E4  3000               	movlw	0
  3489  01E5  1803               	skipnc
  3490  01E6  3001               	movlw	1
  3491  01E7  07A8               	addwf	___fladd@b+1,f
  3492  01E8  3000               	movlw	0
  3493  01E9  1803               	skipnc
  3494  01EA  3001               	movlw	1
  3495  01EB  07A9               	addwf	___fladd@b+2,f
  3496  01EC  3000               	movlw	0
  3497  01ED  1803               	skipnc
  3498  01EE  3001               	movlw	1
  3499  01EF  07AA               	addwf	___fladd@b+3,f
  3500  01F0  29FF               	goto	l603
  3501  01F1                     l1657:	
  3502  01F1  082B               	movf	___fladd@a,w
  3503  01F2  02A7               	subwf	___fladd@b,f
  3504  01F3  082C               	movf	___fladd@a+1,w
  3505  01F4  1C03               	skipc
  3506  01F5  0F2C               	incfsz	___fladd@a+1,w
  3507  01F6  02A8               	subwf	___fladd@b+1,f
  3508  01F7  082D               	movf	___fladd@a+2,w
  3509  01F8  1C03               	skipc
  3510  01F9  0F2D               	incfsz	___fladd@a+2,w
  3511  01FA  02A9               	subwf	___fladd@b+2,f
  3512  01FB  082E               	movf	___fladd@a+3,w
  3513  01FC  1C03               	skipc
  3514  01FD  0F2E               	incfsz	___fladd@a+3,w
  3515  01FE  02AA               	subwf	___fladd@b+3,f
  3516  01FF                     l603:	
  3517  01FF  082A               	movf	___fladd@b+3,w
  3518  0200  0429               	iorwf	___fladd@b+2,w
  3519  0201  0428               	iorwf	___fladd@b+1,w
  3520  0202  0427               	iorwf	___fladd@b,w
  3521  0203  1D03               	skipz
  3522  0204  2A06               	goto	u1601
  3523  0205  2A07               	goto	u1600
  3524  0206                     u1601:	
  3525  0206  2A33               	goto	l1679
  3526  0207                     u1600:	
  3527  0207                     l1659:	
  3528  0207  083A               	movf	___fladd@grs,w
  3529  0208  1D03               	btfss	3,2
  3530  0209  2A0B               	goto	u1611
  3531  020A  2A0C               	goto	u1610
  3532  020B                     u1611:	
  3533  020B  2A33               	goto	l1679
  3534  020C                     u1610:	
  3535  020C                     l1661:	
  3536  020C  3000               	movlw	0
  3537  020D  00AA               	movwf	?___fladd+3
  3538  020E  3000               	movlw	0
  3539  020F  00A9               	movwf	?___fladd+2
  3540  0210  3000               	movlw	0
  3541  0211  00A8               	movwf	?___fladd+1
  3542  0212  3000               	movlw	0
  3543  0213  00A7               	movwf	?___fladd
  3544  0214  2AB1               	goto	l595
  3545  0215                     l1665:	
  3546  0215  3001               	movlw	1
  3547  0216  00AF               	movwf	??___fladd
  3548  0217                     u1625:	
  3549  0217  1003               	clrc
  3550  0218  0DA7               	rlf	___fladd@b,f
  3551  0219  0DA8               	rlf	___fladd@b+1,f
  3552  021A  0DA9               	rlf	___fladd@b+2,f
  3553  021B  0DAA               	rlf	___fladd@b+3,f
  3554  021C  0BAF               	decfsz	??___fladd,f
  3555  021D  2A17               	goto	u1625
  3556  021E                     l1667:	
  3557  021E  1FBA               	btfss	___fladd@grs,7
  3558  021F  2A21               	goto	u1631
  3559  0220  2A22               	goto	u1630
  3560  0221                     u1631:	
  3561  0221  2A23               	goto	l607
  3562  0222                     u1630:	
  3563  0222                     l1669:	
  3564  0222  1427               	bsf	___fladd@b,0
  3565  0223                     l607:	
  3566  0223  1C3A               	btfss	___fladd@grs,0
  3567  0224  2A26               	goto	u1641
  3568  0225  2A27               	goto	u1640
  3569  0226                     u1641:	
  3570  0226  2A2A               	goto	l1673
  3571  0227                     u1640:	
  3572  0227                     l1671:	
  3573  0227  1403               	setc
  3574  0228  0DBA               	rlf	___fladd@grs,f
  3575  0229  2A2C               	goto	l1675
  3576  022A                     l1673:	
  3577  022A  1003               	clrc
  3578  022B  0DBA               	rlf	___fladd@grs,f
  3579  022C                     l1675:	
  3580  022C  0839               	movf	___fladd@bexp,w
  3581  022D  1903               	btfsc	3,2
  3582  022E  2A30               	goto	u1651
  3583  022F  2A31               	goto	u1650
  3584  0230                     u1651:	
  3585  0230  2A33               	goto	l1679
  3586  0231                     u1650:	
  3587  0231                     l1677:	
  3588  0231  3001               	movlw	1
  3589  0232  02B9               	subwf	___fladd@bexp,f
  3590  0233                     l1679:	
  3591  0233  1FA9               	btfss	___fladd@b+2,7
  3592  0234  2A36               	goto	u1661
  3593  0235  2A37               	goto	u1660
  3594  0236                     u1661:	
  3595  0236  2A15               	goto	l1665
  3596  0237                     u1660:	
  3597  0237                     l1681:	
  3598  0237  01B8               	clrf	___fladd@aexp
  3599  0238                     l1683:	
  3600  0238  1FBA               	btfss	___fladd@grs,7
  3601  0239  2A3B               	goto	u1671
  3602  023A  2A3C               	goto	u1670
  3603  023B                     u1671:	
  3604  023B  2A4A               	goto	l1691
  3605  023C                     u1670:	
  3606  023C                     l1685:	
  3607  023C  083A               	movf	___fladd@grs,w
  3608  023D  397F               	andlw	127
  3609  023E  1903               	btfsc	3,2
  3610  023F  2A41               	goto	u1681
  3611  0240  2A42               	goto	u1680
  3612  0241                     u1681:	
  3613  0241  2A45               	goto	l613
  3614  0242                     u1680:	
  3615  0242                     l1687:	
  3616  0242  01B8               	clrf	___fladd@aexp
  3617  0243  0AB8               	incf	___fladd@aexp,f
  3618  0244  2A4A               	goto	l1691
  3619  0245                     l613:	
  3620  0245  1C27               	btfss	___fladd@b,0
  3621  0246  2A48               	goto	u1691
  3622  0247  2A49               	goto	u1690
  3623  0248                     u1691:	
  3624  0248  2A4A               	goto	l1691
  3625  0249                     u1690:	
  3626  0249  2A42               	goto	l1687
  3627  024A                     l1691:	
  3628  024A  0838               	movf	___fladd@aexp,w
  3629  024B  1903               	btfsc	3,2
  3630  024C  2A4E               	goto	u1701
  3631  024D  2A4F               	goto	u1700
  3632  024E                     u1701:	
  3633  024E  2A83               	goto	l616
  3634  024F                     u1700:	
  3635  024F                     l1693:	
  3636  024F  3001               	movlw	1
  3637  0250  07A7               	addwf	___fladd@b,f
  3638  0251  3000               	movlw	0
  3639  0252  1803               	skipnc
  3640  0253  3001               	movlw	1
  3641  0254  07A8               	addwf	___fladd@b+1,f
  3642  0255  3000               	movlw	0
  3643  0256  1803               	skipnc
  3644  0257  3001               	movlw	1
  3645  0258  07A9               	addwf	___fladd@b+2,f
  3646  0259  3000               	movlw	0
  3647  025A  1803               	skipnc
  3648  025B  3001               	movlw	1
  3649  025C  07AA               	addwf	___fladd@b+3,f
  3650  025D                     l1695:	
  3651  025D  1C2A               	btfss	___fladd@b+3,0
  3652  025E  2A60               	goto	u1711
  3653  025F  2A61               	goto	u1710
  3654  0260                     u1711:	
  3655  0260  2A83               	goto	l616
  3656  0261                     u1710:	
  3657  0261                     l1697:	
  3658  0261  0827               	movf	___fladd@b,w
  3659  0262  00AF               	movwf	??___fladd
  3660  0263  0828               	movf	___fladd@b+1,w
  3661  0264  00B0               	movwf	??___fladd+1
  3662  0265  0829               	movf	___fladd@b+2,w
  3663  0266  00B1               	movwf	??___fladd+2
  3664  0267  082A               	movf	___fladd@b+3,w
  3665  0268  00B2               	movwf	??___fladd+3
  3666  0269  3001               	movlw	1
  3667  026A  00B3               	movwf	??___fladd+4
  3668  026B                     u1725:	
  3669  026B  0D32               	rlf	??___fladd+3,w
  3670  026C  0CB2               	rrf	??___fladd+3,f
  3671  026D  0CB1               	rrf	??___fladd+2,f
  3672  026E  0CB0               	rrf	??___fladd+1,f
  3673  026F  0CAF               	rrf	??___fladd,f
  3674  0270                     u1720:	
  3675  0270  0BB3               	decfsz	??___fladd+4,f
  3676  0271  2A6B               	goto	u1725
  3677  0272  0832               	movf	??___fladd+3,w
  3678  0273  00AA               	movwf	___fladd@b+3
  3679  0274  0831               	movf	??___fladd+2,w
  3680  0275  00A9               	movwf	___fladd@b+2
  3681  0276  0830               	movf	??___fladd+1,w
  3682  0277  00A8               	movwf	___fladd@b+1
  3683  0278  082F               	movf	??___fladd,w
  3684  0279  00A7               	movwf	___fladd@b
  3685  027A  0A39               	incf	___fladd@bexp,w
  3686  027B  1903               	btfsc	3,2
  3687  027C  2A7E               	goto	u1731
  3688  027D  2A7F               	goto	u1730
  3689  027E                     u1731:	
  3690  027E  2A83               	goto	l616
  3691  027F                     u1730:	
  3692  027F                     l1699:	
  3693  027F  3001               	movlw	1
  3694  0280  00AF               	movwf	??___fladd
  3695  0281  082F               	movf	??___fladd,w
  3696  0282  07B9               	addwf	___fladd@bexp,f
  3697  0283                     l616:	
  3698  0283  0A39               	incf	___fladd@bexp,w
  3699  0284  1903               	btfsc	3,2
  3700  0285  2A87               	goto	u1741
  3701  0286  2A88               	goto	u1740
  3702  0287                     u1741:	
  3703  0287  2A8D               	goto	l1703
  3704  0288                     u1740:	
  3705  0288                     l1701:	
  3706  0288  0839               	movf	___fladd@bexp,w
  3707  0289  1D03               	btfss	3,2
  3708  028A  2A8C               	goto	u1751
  3709  028B  2A8D               	goto	u1750
  3710  028C                     u1751:	
  3711  028C  2A9B               	goto	l1709
  3712  028D                     u1750:	
  3713  028D                     l1703:	
  3714  028D  3000               	movlw	0
  3715  028E  00AA               	movwf	___fladd@b+3
  3716  028F  3000               	movlw	0
  3717  0290  00A9               	movwf	___fladd@b+2
  3718  0291  3000               	movlw	0
  3719  0292  00A8               	movwf	___fladd@b+1
  3720  0293  3000               	movlw	0
  3721  0294  00A7               	movwf	___fladd@b
  3722  0295                     l1705:	
  3723  0295  0839               	movf	___fladd@bexp,w
  3724  0296  1D03               	btfss	3,2
  3725  0297  2A99               	goto	u1761
  3726  0298  2A9A               	goto	u1760
  3727  0299                     u1761:	
  3728  0299  2A9B               	goto	l1709
  3729  029A                     u1760:	
  3730  029A                     l1707:	
  3731  029A  01B7               	clrf	___fladd@signs
  3732  029B                     l1709:	
  3733  029B  1C39               	btfss	___fladd@bexp,0
  3734  029C  2A9E               	goto	u1771
  3735  029D  2A9F               	goto	u1770
  3736  029E                     u1771:	
  3737  029E  2AA1               	goto	l1713
  3738  029F                     u1770:	
  3739  029F                     l1711:	
  3740  029F  17A9               	bsf	___fladd@b+2,7
  3741  02A0  2AA5               	goto	l624
  3742  02A1                     l1713:	
  3743  02A1  307F               	movlw	127
  3744  02A2  00AF               	movwf	??___fladd
  3745  02A3  082F               	movf	??___fladd,w
  3746  02A4  05A9               	andwf	___fladd@b+2,f
  3747  02A5                     l624:	
  3748  02A5  0839               	movf	___fladd@bexp,w
  3749  02A6  00AF               	movwf	??___fladd
  3750  02A7  1003               	clrc
  3751  02A8  0C2F               	rrf	??___fladd,w
  3752  02A9  00B0               	movwf	??___fladd+1
  3753  02AA  0830               	movf	??___fladd+1,w
  3754  02AB  00AA               	movwf	___fladd@b+3
  3755  02AC                     l1715:	
  3756  02AC  1FB7               	btfss	___fladd@signs,7
  3757  02AD  2AAF               	goto	u1781
  3758  02AE  2AB0               	goto	u1780
  3759  02AF                     u1781:	
  3760  02AF  2AB1               	goto	l625
  3761  02B0                     u1780:	
  3762  02B0                     l1717:	
  3763  02B0  17AA               	bsf	___fladd@b+3,7
  3764  02B1                     l625:	
  3765  02B1                     l595:	
  3766  02B1  0008               	return
  3767  02B2                     __end_of___fladd:	
  3768                           
  3769                           	psect	text13
  3770  02B2                     __ptext13:	
  3771 ;; *************** function ___fldiv *****************
  3772 ;; Defined at:
  3773 ;;		line 8 in file "D:\Program Files (x86)\Microchip\xc8\v2.10\pic\sources\c90\common\sprcdiv.c"
  3774 ;; Parameters:    Size  Location     Type
  3775 ;;  a               4   27[BANK0 ] unsigned char 
  3776 ;;  b               4   31[BANK0 ] unsigned char 
  3777 ;; Auto vars:     Size  Location     Type
  3778 ;;  grs             4   47[BANK0 ] unsigned long 
  3779 ;;  rem             4   40[BANK0 ] unsigned long 
  3780 ;;  new_exp         2   45[BANK0 ] int 
  3781 ;;  aexp            1   52[BANK0 ] unsigned char 
  3782 ;;  bexp            1   51[BANK0 ] unsigned char 
  3783 ;;  sign            1   44[BANK0 ] unsigned char 
  3784 ;; Return value:  Size  Location     Type
  3785 ;;                  4   27[BANK0 ] unsigned char 
  3786 ;; Registers used:
  3787 ;;		wreg, status,2, status,0, btemp+1
  3788 ;; Tracked objects:
  3789 ;;		On entry : 0/0
  3790 ;;		On exit  : 0/0
  3791 ;;		Unchanged: 0/0
  3792 ;; Data sizes:     COMMON   BANK0   BANK1   BANK3   BANK2
  3793 ;;      Params:         0       8       0       0       0
  3794 ;;      Locals:         0      13       0       0       0
  3795 ;;      Temps:          0       5       0       0       0
  3796 ;;      Totals:         0      26       0       0       0
  3797 ;;Total ram usage:       26 bytes
  3798 ;; Hardware stack levels used:    1
  3799 ;; Hardware stack levels required when called:    2
  3800 ;; This function calls:
  3801 ;;		Nothing
  3802 ;; This function is called by:
  3803 ;;		_main
  3804 ;;		_int_distance
  3805 ;; This function uses a non-reentrant model
  3806 ;;
  3807                           
  3808                           
  3809                           ;psect for function ___fldiv
  3810  02B2                     ___fldiv:	
  3811  02B2                     l1819:	
  3812                           ;incstack = 0
  3813                           ; Regs used in ___fldiv: [wreg+status,2+status,0+btemp+1]
  3814                           
  3815  02B2  1283               	bcf	3,5	;RP0=0, select bank0
  3816  02B3  1303               	bcf	3,6	;RP1=0, select bank0
  3817  02B4  0842               	movf	___fldiv@b+3,w
  3818  02B5  3980               	andlw	128
  3819  02B6  00C3               	movwf	??___fldiv
  3820  02B7  0843               	movf	??___fldiv,w
  3821  02B8  00CC               	movwf	___fldiv@sign
  3822  02B9                     l1821:	
  3823  02B9  0842               	movf	___fldiv@b+3,w
  3824  02BA  00C3               	movwf	??___fldiv
  3825  02BB  0743               	addwf	??___fldiv,w
  3826  02BC  00C4               	movwf	??___fldiv+1
  3827  02BD  0844               	movf	??___fldiv+1,w
  3828  02BE  00D3               	movwf	___fldiv@bexp
  3829  02BF                     l1823:	
  3830  02BF  1FC1               	btfss	___fldiv@b+2,7
  3831  02C0  2AC2               	goto	u1931
  3832  02C1  2AC3               	goto	u1930
  3833  02C2                     u1931:	
  3834  02C2  2AC4               	goto	l1827
  3835  02C3                     u1930:	
  3836  02C3                     l1825:	
  3837  02C3  1453               	bsf	___fldiv@bexp,0
  3838  02C4                     l1827:	
  3839  02C4  0853               	movf	___fldiv@bexp,w
  3840  02C5  1903               	btfsc	3,2
  3841  02C6  2AC8               	goto	u1941
  3842  02C7  2AC9               	goto	u1940
  3843  02C8                     u1941:	
  3844  02C8  2AD9               	goto	l1837
  3845  02C9                     u1940:	
  3846  02C9                     l1829:	
  3847  02C9  0A53               	incf	___fldiv@bexp,w
  3848  02CA  1D03               	btfss	3,2
  3849  02CB  2ACD               	goto	u1951
  3850  02CC  2ACE               	goto	u1950
  3851  02CD                     u1951:	
  3852  02CD  2AD6               	goto	l1833
  3853  02CE                     u1950:	
  3854  02CE                     l1831:	
  3855  02CE  3000               	movlw	0
  3856  02CF  00C2               	movwf	___fldiv@b+3
  3857  02D0  3000               	movlw	0
  3858  02D1  00C1               	movwf	___fldiv@b+2
  3859  02D2  3000               	movlw	0
  3860  02D3  00C0               	movwf	___fldiv@b+1
  3861  02D4  3000               	movlw	0
  3862  02D5  00BF               	movwf	___fldiv@b
  3863  02D6                     l1833:	
  3864  02D6  17C1               	bsf	___fldiv@b+2,7
  3865  02D7                     l1835:	
  3866  02D7  01C2               	clrf	___fldiv@b+3
  3867  02D8  2AE1               	goto	l1839
  3868  02D9                     l1837:	
  3869  02D9  3000               	movlw	0
  3870  02DA  00C2               	movwf	___fldiv@b+3
  3871  02DB  3000               	movlw	0
  3872  02DC  00C1               	movwf	___fldiv@b+2
  3873  02DD  3000               	movlw	0
  3874  02DE  00C0               	movwf	___fldiv@b+1
  3875  02DF  3000               	movlw	0
  3876  02E0  00BF               	movwf	___fldiv@b
  3877  02E1                     l1839:	
  3878  02E1  083E               	movf	___fldiv@a+3,w
  3879  02E2  3980               	andlw	128
  3880  02E3  00C3               	movwf	??___fldiv
  3881  02E4  0843               	movf	??___fldiv,w
  3882  02E5  06CC               	xorwf	___fldiv@sign,f
  3883  02E6                     l1841:	
  3884  02E6  083E               	movf	___fldiv@a+3,w
  3885  02E7  00C3               	movwf	??___fldiv
  3886  02E8  0743               	addwf	??___fldiv,w
  3887  02E9  00C4               	movwf	??___fldiv+1
  3888  02EA  0844               	movf	??___fldiv+1,w
  3889  02EB  00D4               	movwf	___fldiv@aexp
  3890  02EC                     l1843:	
  3891  02EC  1FBD               	btfss	___fldiv@a+2,7
  3892  02ED  2AEF               	goto	u1961
  3893  02EE  2AF0               	goto	u1960
  3894  02EF                     u1961:	
  3895  02EF  2AF1               	goto	l1847
  3896  02F0                     u1960:	
  3897  02F0                     l1845:	
  3898  02F0  1454               	bsf	___fldiv@aexp,0
  3899  02F1                     l1847:	
  3900  02F1  0854               	movf	___fldiv@aexp,w
  3901  02F2  1903               	btfsc	3,2
  3902  02F3  2AF5               	goto	u1971
  3903  02F4  2AF6               	goto	u1970
  3904  02F5                     u1971:	
  3905  02F5  2B06               	goto	l1857
  3906  02F6                     u1970:	
  3907  02F6                     l1849:	
  3908  02F6  0A54               	incf	___fldiv@aexp,w
  3909  02F7  1D03               	btfss	3,2
  3910  02F8  2AFA               	goto	u1981
  3911  02F9  2AFB               	goto	u1980
  3912  02FA                     u1981:	
  3913  02FA  2B03               	goto	l1853
  3914  02FB                     u1980:	
  3915  02FB                     l1851:	
  3916  02FB  3000               	movlw	0
  3917  02FC  00BE               	movwf	___fldiv@a+3
  3918  02FD  3000               	movlw	0
  3919  02FE  00BD               	movwf	___fldiv@a+2
  3920  02FF  3000               	movlw	0
  3921  0300  00BC               	movwf	___fldiv@a+1
  3922  0301  3000               	movlw	0
  3923  0302  00BB               	movwf	___fldiv@a
  3924  0303                     l1853:	
  3925  0303  17BD               	bsf	___fldiv@a+2,7
  3926  0304                     l1855:	
  3927  0304  01BE               	clrf	___fldiv@a+3
  3928  0305  2B0E               	goto	l638
  3929  0306                     l1857:	
  3930  0306  3000               	movlw	0
  3931  0307  00BE               	movwf	___fldiv@a+3
  3932  0308  3000               	movlw	0
  3933  0309  00BD               	movwf	___fldiv@a+2
  3934  030A  3000               	movlw	0
  3935  030B  00BC               	movwf	___fldiv@a+1
  3936  030C  3000               	movlw	0
  3937  030D  00BB               	movwf	___fldiv@a
  3938  030E                     l638:	
  3939  030E  083E               	movf	___fldiv@a+3,w
  3940  030F  043D               	iorwf	___fldiv@a+2,w
  3941  0310  043C               	iorwf	___fldiv@a+1,w
  3942  0311  043B               	iorwf	___fldiv@a,w
  3943  0312  1D03               	skipz
  3944  0313  2B15               	goto	u1991
  3945  0314  2B16               	goto	u1990
  3946  0315                     u1991:	
  3947  0315  2B2F               	goto	l1867
  3948  0316                     u1990:	
  3949  0316                     l1859:	
  3950  0316  3000               	movlw	0
  3951  0317  00C2               	movwf	___fldiv@b+3
  3952  0318  3000               	movlw	0
  3953  0319  00C1               	movwf	___fldiv@b+2
  3954  031A  3000               	movlw	0
  3955  031B  00C0               	movwf	___fldiv@b+1
  3956  031C  3000               	movlw	0
  3957  031D  00BF               	movwf	___fldiv@b
  3958  031E  3080               	movlw	128
  3959  031F  04C1               	iorwf	___fldiv@b+2,f
  3960  0320  307F               	movlw	127
  3961  0321  04C2               	iorwf	___fldiv@b+3,f
  3962  0322                     l1861:	
  3963  0322  084C               	movf	___fldiv@sign,w
  3964  0323  00C3               	movwf	??___fldiv
  3965  0324  0843               	movf	??___fldiv,w
  3966  0325  04C2               	iorwf	___fldiv@b+3,f
  3967  0326                     l1863:	
  3968  0326  0842               	movf	___fldiv@b+3,w
  3969  0327  00BE               	movwf	?___fldiv+3
  3970  0328  0841               	movf	___fldiv@b+2,w
  3971  0329  00BD               	movwf	?___fldiv+2
  3972  032A  0840               	movf	___fldiv@b+1,w
  3973  032B  00BC               	movwf	?___fldiv+1
  3974  032C  083F               	movf	___fldiv@b,w
  3975  032D  00BB               	movwf	?___fldiv
  3976  032E  2C8E               	goto	l640
  3977  032F                     l1867:	
  3978  032F  0853               	movf	___fldiv@bexp,w
  3979  0330  1D03               	btfss	3,2
  3980  0331  2B33               	goto	u2001
  3981  0332  2B34               	goto	u2000
  3982  0333                     u2001:	
  3983  0333  2B3D               	goto	l1873
  3984  0334                     u2000:	
  3985  0334                     l1869:	
  3986  0334  3000               	movlw	0
  3987  0335  00BE               	movwf	?___fldiv+3
  3988  0336  3000               	movlw	0
  3989  0337  00BD               	movwf	?___fldiv+2
  3990  0338  3000               	movlw	0
  3991  0339  00BC               	movwf	?___fldiv+1
  3992  033A  3000               	movlw	0
  3993  033B  00BB               	movwf	?___fldiv
  3994  033C  2C8E               	goto	l640
  3995  033D                     l1873:	
  3996  033D  0853               	movf	___fldiv@bexp,w
  3997  033E  00C3               	movwf	??___fldiv
  3998  033F  01C4               	clrf	??___fldiv+1
  3999  0340  0844               	movf	??___fldiv+1,w
  4000  0341  00C6               	movwf	??___fldiv+3
  4001  0342  0854               	movf	___fldiv@aexp,w
  4002  0343  0243               	subwf	??___fldiv,w
  4003  0344  00C5               	movwf	??___fldiv+2
  4004  0345  1C03               	skipc
  4005  0346  03C6               	decf	??___fldiv+3,f
  4006  0347  0845               	movf	??___fldiv+2,w
  4007  0348  3E7F               	addlw	127
  4008  0349  00CD               	movwf	___fldiv@new_exp
  4009  034A  0846               	movf	??___fldiv+3,w
  4010  034B  1803               	skipnc
  4011  034C  3E01               	addlw	1
  4012  034D  3E00               	addlw	0
  4013  034E  00CE               	movwf	___fldiv@new_exp+1
  4014  034F                     l1875:	
  4015  034F  0842               	movf	___fldiv@b+3,w
  4016  0350  00CB               	movwf	___fldiv@rem+3
  4017  0351  0841               	movf	___fldiv@b+2,w
  4018  0352  00CA               	movwf	___fldiv@rem+2
  4019  0353  0840               	movf	___fldiv@b+1,w
  4020  0354  00C9               	movwf	___fldiv@rem+1
  4021  0355  083F               	movf	___fldiv@b,w
  4022  0356  00C8               	movwf	___fldiv@rem
  4023  0357                     l1877:	
  4024  0357  3000               	movlw	0
  4025  0358  00C2               	movwf	___fldiv@b+3
  4026  0359  3000               	movlw	0
  4027  035A  00C1               	movwf	___fldiv@b+2
  4028  035B  3000               	movlw	0
  4029  035C  00C0               	movwf	___fldiv@b+1
  4030  035D  3000               	movlw	0
  4031  035E  00BF               	movwf	___fldiv@b
  4032  035F                     l1879:	
  4033  035F  3000               	movlw	0
  4034  0360  00D2               	movwf	___fldiv@grs+3
  4035  0361  3000               	movlw	0
  4036  0362  00D1               	movwf	___fldiv@grs+2
  4037  0363  3000               	movlw	0
  4038  0364  00D0               	movwf	___fldiv@grs+1
  4039  0365  3000               	movlw	0
  4040  0366  00CF               	movwf	___fldiv@grs
  4041  0367                     l1881:	
  4042  0367  01D4               	clrf	___fldiv@aexp
  4043  0368  2BB3               	goto	l1901
  4044  0369                     l1883:	
  4045  0369  0854               	movf	___fldiv@aexp,w
  4046  036A  1903               	btfsc	3,2
  4047  036B  2B6D               	goto	u2011
  4048  036C  2B6E               	goto	u2010
  4049  036D                     u2011:	
  4050  036D  2B8E               	goto	l1893
  4051  036E                     u2010:	
  4052  036E                     l1885:	
  4053  036E  3001               	movlw	1
  4054  036F  00C3               	movwf	??___fldiv
  4055  0370                     u2025:	
  4056  0370  1003               	clrc
  4057  0371  0DC8               	rlf	___fldiv@rem,f
  4058  0372  0DC9               	rlf	___fldiv@rem+1,f
  4059  0373  0DCA               	rlf	___fldiv@rem+2,f
  4060  0374  0DCB               	rlf	___fldiv@rem+3,f
  4061  0375  0BC3               	decfsz	??___fldiv,f
  4062  0376  2B70               	goto	u2025
  4063  0377  3001               	movlw	1
  4064  0378  00C3               	movwf	??___fldiv
  4065  0379                     u2035:	
  4066  0379  1003               	clrc
  4067  037A  0DBF               	rlf	___fldiv@b,f
  4068  037B  0DC0               	rlf	___fldiv@b+1,f
  4069  037C  0DC1               	rlf	___fldiv@b+2,f
  4070  037D  0DC2               	rlf	___fldiv@b+3,f
  4071  037E  0BC3               	decfsz	??___fldiv,f
  4072  037F  2B79               	goto	u2035
  4073  0380                     l1887:	
  4074  0380  1FD2               	btfss	___fldiv@grs+3,7
  4075  0381  2B83               	goto	u2041
  4076  0382  2B84               	goto	u2040
  4077  0383                     u2041:	
  4078  0383  2B85               	goto	l1891
  4079  0384                     u2040:	
  4080  0384                     l1889:	
  4081  0384  143F               	bsf	___fldiv@b,0
  4082  0385                     l1891:	
  4083  0385  3001               	movlw	1
  4084  0386  00C3               	movwf	??___fldiv
  4085  0387                     u2055:	
  4086  0387  1003               	clrc
  4087  0388  0DCF               	rlf	___fldiv@grs,f
  4088  0389  0DD0               	rlf	___fldiv@grs+1,f
  4089  038A  0DD1               	rlf	___fldiv@grs+2,f
  4090  038B  0DD2               	rlf	___fldiv@grs+3,f
  4091  038C  0BC3               	decfsz	??___fldiv,f
  4092  038D  2B87               	goto	u2055
  4093  038E                     l1893:	
  4094  038E  083E               	movf	___fldiv@a+3,w
  4095  038F  024B               	subwf	___fldiv@rem+3,w
  4096  0390  1D03               	skipz
  4097  0391  2B9C               	goto	u2065
  4098  0392  083D               	movf	___fldiv@a+2,w
  4099  0393  024A               	subwf	___fldiv@rem+2,w
  4100  0394  1D03               	skipz
  4101  0395  2B9C               	goto	u2065
  4102  0396  083C               	movf	___fldiv@a+1,w
  4103  0397  0249               	subwf	___fldiv@rem+1,w
  4104  0398  1D03               	skipz
  4105  0399  2B9C               	goto	u2065
  4106  039A  083B               	movf	___fldiv@a,w
  4107  039B  0248               	subwf	___fldiv@rem,w
  4108  039C                     u2065:	
  4109  039C  1C03               	skipc
  4110  039D  2B9F               	goto	u2061
  4111  039E  2BA0               	goto	u2060
  4112  039F                     u2061:	
  4113  039F  2BAF               	goto	l1899
  4114  03A0                     u2060:	
  4115  03A0                     l1895:	
  4116  03A0  1752               	bsf	___fldiv@grs+3,6
  4117  03A1                     l1897:	
  4118  03A1  083B               	movf	___fldiv@a,w
  4119  03A2  02C8               	subwf	___fldiv@rem,f
  4120  03A3  083C               	movf	___fldiv@a+1,w
  4121  03A4  1C03               	skipc
  4122  03A5  0F3C               	incfsz	___fldiv@a+1,w
  4123  03A6  02C9               	subwf	___fldiv@rem+1,f
  4124  03A7  083D               	movf	___fldiv@a+2,w
  4125  03A8  1C03               	skipc
  4126  03A9  0F3D               	incfsz	___fldiv@a+2,w
  4127  03AA  02CA               	subwf	___fldiv@rem+2,f
  4128  03AB  083E               	movf	___fldiv@a+3,w
  4129  03AC  1C03               	skipc
  4130  03AD  0F3E               	incfsz	___fldiv@a+3,w
  4131  03AE  02CB               	subwf	___fldiv@rem+3,f
  4132  03AF                     l1899:	
  4133  03AF  3001               	movlw	1
  4134  03B0  00C3               	movwf	??___fldiv
  4135  03B1  0843               	movf	??___fldiv,w
  4136  03B2  07D4               	addwf	___fldiv@aexp,f
  4137  03B3                     l1901:	
  4138  03B3  301A               	movlw	26
  4139  03B4  0254               	subwf	___fldiv@aexp,w
  4140  03B5  1C03               	skipc
  4141  03B6  2BB8               	goto	u2071
  4142  03B7  2BB9               	goto	u2070
  4143  03B8                     u2071:	
  4144  03B8  2B69               	goto	l1883
  4145  03B9                     u2070:	
  4146  03B9                     l1903:	
  4147  03B9  084B               	movf	___fldiv@rem+3,w
  4148  03BA  044A               	iorwf	___fldiv@rem+2,w
  4149  03BB  0449               	iorwf	___fldiv@rem+1,w
  4150  03BC  0448               	iorwf	___fldiv@rem,w
  4151  03BD  1903               	skipnz
  4152  03BE  2BC0               	goto	u2081
  4153  03BF  2BC1               	goto	u2080
  4154  03C0                     u2081:	
  4155  03C0  2BE0               	goto	l1917
  4156  03C1                     u2080:	
  4157  03C1                     l1905:	
  4158  03C1  144F               	bsf	___fldiv@grs,0
  4159  03C2  2BE0               	goto	l1917
  4160  03C3                     l1907:	
  4161  03C3  3001               	movlw	1
  4162  03C4  00C3               	movwf	??___fldiv
  4163  03C5                     u2095:	
  4164  03C5  1003               	clrc
  4165  03C6  0DBF               	rlf	___fldiv@b,f
  4166  03C7  0DC0               	rlf	___fldiv@b+1,f
  4167  03C8  0DC1               	rlf	___fldiv@b+2,f
  4168  03C9  0DC2               	rlf	___fldiv@b+3,f
  4169  03CA  0BC3               	decfsz	??___fldiv,f
  4170  03CB  2BC5               	goto	u2095
  4171  03CC                     l1909:	
  4172  03CC  1FD2               	btfss	___fldiv@grs+3,7
  4173  03CD  2BCF               	goto	u2101
  4174  03CE  2BD0               	goto	u2100
  4175  03CF                     u2101:	
  4176  03CF  2BD1               	goto	l1913
  4177  03D0                     u2100:	
  4178  03D0                     l1911:	
  4179  03D0  143F               	bsf	___fldiv@b,0
  4180  03D1                     l1913:	
  4181  03D1  3001               	movlw	1
  4182  03D2  00C3               	movwf	??___fldiv
  4183  03D3                     u2115:	
  4184  03D3  1003               	clrc
  4185  03D4  0DCF               	rlf	___fldiv@grs,f
  4186  03D5  0DD0               	rlf	___fldiv@grs+1,f
  4187  03D6  0DD1               	rlf	___fldiv@grs+2,f
  4188  03D7  0DD2               	rlf	___fldiv@grs+3,f
  4189  03D8  0BC3               	decfsz	??___fldiv,f
  4190  03D9  2BD3               	goto	u2115
  4191  03DA                     l1915:	
  4192  03DA  30FF               	movlw	255
  4193  03DB  07CD               	addwf	___fldiv@new_exp,f
  4194  03DC  1803               	skipnc
  4195  03DD  0ACE               	incf	___fldiv@new_exp+1,f
  4196  03DE  30FF               	movlw	255
  4197  03DF  07CE               	addwf	___fldiv@new_exp+1,f
  4198  03E0                     l1917:	
  4199  03E0  1FC1               	btfss	___fldiv@b+2,7
  4200  03E1  2BE3               	goto	u2121
  4201  03E2  2BE4               	goto	u2120
  4202  03E3                     u2121:	
  4203  03E3  2BC3               	goto	l1907
  4204  03E4                     u2120:	
  4205  03E4                     l1919:	
  4206  03E4  01D4               	clrf	___fldiv@aexp
  4207  03E5                     l1921:	
  4208  03E5  1FD2               	btfss	___fldiv@grs+3,7
  4209  03E6  2BE8               	goto	u2131
  4210  03E7  2BE9               	goto	u2130
  4211  03E8                     u2131:	
  4212  03E8  2C05               	goto	l1929
  4213  03E9                     u2130:	
  4214  03E9                     l1923:	
  4215  03E9  30FF               	movlw	255
  4216  03EA  054F               	andwf	___fldiv@grs,w
  4217  03EB  00C3               	movwf	??___fldiv
  4218  03EC  30FF               	movlw	255
  4219  03ED  0550               	andwf	___fldiv@grs+1,w
  4220  03EE  00C4               	movwf	??___fldiv+1
  4221  03EF  30FF               	movlw	255
  4222  03F0  0551               	andwf	___fldiv@grs+2,w
  4223  03F1  00C5               	movwf	??___fldiv+2
  4224  03F2  307F               	movlw	127
  4225  03F3  0552               	andwf	___fldiv@grs+3,w
  4226  03F4  00C6               	movwf	??___fldiv+3
  4227  03F5  0846               	movf	??___fldiv+3,w
  4228  03F6  0445               	iorwf	??___fldiv+2,w
  4229  03F7  0444               	iorwf	??___fldiv+1,w
  4230  03F8  0443               	iorwf	??___fldiv,w
  4231  03F9  1903               	skipnz
  4232  03FA  2BFC               	goto	u2141
  4233  03FB  2BFD               	goto	u2140
  4234  03FC                     u2141:	
  4235  03FC  2C00               	goto	l654
  4236  03FD                     u2140:	
  4237  03FD                     l1925:	
  4238  03FD  01D4               	clrf	___fldiv@aexp
  4239  03FE  0AD4               	incf	___fldiv@aexp,f
  4240  03FF  2C05               	goto	l1929
  4241  0400                     l654:	
  4242  0400  1C3F               	btfss	___fldiv@b,0
  4243  0401  2C03               	goto	u2151
  4244  0402  2C04               	goto	u2150
  4245  0403                     u2151:	
  4246  0403  2C05               	goto	l1929
  4247  0404                     u2150:	
  4248  0404  2BFD               	goto	l1925
  4249  0405                     l1929:	
  4250  0405  0854               	movf	___fldiv@aexp,w
  4251  0406  1903               	btfsc	3,2
  4252  0407  2C09               	goto	u2161
  4253  0408  2C0A               	goto	u2160
  4254  0409                     u2161:	
  4255  0409  2C3B               	goto	l1939
  4256  040A                     u2160:	
  4257  040A                     l1931:	
  4258  040A  3001               	movlw	1
  4259  040B  07BF               	addwf	___fldiv@b,f
  4260  040C  3000               	movlw	0
  4261  040D  1803               	skipnc
  4262  040E  3001               	movlw	1
  4263  040F  07C0               	addwf	___fldiv@b+1,f
  4264  0410  3000               	movlw	0
  4265  0411  1803               	skipnc
  4266  0412  3001               	movlw	1
  4267  0413  07C1               	addwf	___fldiv@b+2,f
  4268  0414  3000               	movlw	0
  4269  0415  1803               	skipnc
  4270  0416  3001               	movlw	1
  4271  0417  07C2               	addwf	___fldiv@b+3,f
  4272  0418                     l1933:	
  4273  0418  1C42               	btfss	___fldiv@b+3,0
  4274  0419  2C1B               	goto	u2171
  4275  041A  2C1C               	goto	u2170
  4276  041B                     u2171:	
  4277  041B  2C3B               	goto	l1939
  4278  041C                     u2170:	
  4279  041C                     l1935:	
  4280  041C  083F               	movf	___fldiv@b,w
  4281  041D  00C3               	movwf	??___fldiv
  4282  041E  0840               	movf	___fldiv@b+1,w
  4283  041F  00C4               	movwf	??___fldiv+1
  4284  0420  0841               	movf	___fldiv@b+2,w
  4285  0421  00C5               	movwf	??___fldiv+2
  4286  0422  0842               	movf	___fldiv@b+3,w
  4287  0423  00C6               	movwf	??___fldiv+3
  4288  0424  3001               	movlw	1
  4289  0425  00C7               	movwf	??___fldiv+4
  4290  0426                     u2185:	
  4291  0426  0D46               	rlf	??___fldiv+3,w
  4292  0427  0CC6               	rrf	??___fldiv+3,f
  4293  0428  0CC5               	rrf	??___fldiv+2,f
  4294  0429  0CC4               	rrf	??___fldiv+1,f
  4295  042A  0CC3               	rrf	??___fldiv,f
  4296  042B                     u2180:	
  4297  042B  0BC7               	decfsz	??___fldiv+4,f
  4298  042C  2C26               	goto	u2185
  4299  042D  0846               	movf	??___fldiv+3,w
  4300  042E  00C2               	movwf	___fldiv@b+3
  4301  042F  0845               	movf	??___fldiv+2,w
  4302  0430  00C1               	movwf	___fldiv@b+2
  4303  0431  0844               	movf	??___fldiv+1,w
  4304  0432  00C0               	movwf	___fldiv@b+1
  4305  0433  0843               	movf	??___fldiv,w
  4306  0434  00BF               	movwf	___fldiv@b
  4307  0435                     l1937:	
  4308  0435  3001               	movlw	1
  4309  0436  07CD               	addwf	___fldiv@new_exp,f
  4310  0437  1803               	skipnc
  4311  0438  0ACE               	incf	___fldiv@new_exp+1,f
  4312  0439  3000               	movlw	0
  4313  043A  07CE               	addwf	___fldiv@new_exp+1,f
  4314  043B                     l1939:	
  4315  043B  084E               	movf	___fldiv@new_exp+1,w
  4316  043C  3A80               	xorlw	128
  4317  043D  00FF               	movwf	btemp+1
  4318  043E  3080               	movlw	128
  4319  043F  027F               	subwf	btemp+1,w
  4320  0440  1D03               	skipz
  4321  0441  2C44               	goto	u2195
  4322  0442  30FF               	movlw	255
  4323  0443  024D               	subwf	___fldiv@new_exp,w
  4324  0444                     u2195:	
  4325  0444  1C03               	skipc
  4326  0445  2C47               	goto	u2191
  4327  0446  2C48               	goto	u2190
  4328  0447                     u2191:	
  4329  0447  2C56               	goto	l1943
  4330  0448                     u2190:	
  4331  0448                     l1941:	
  4332  0448  30FF               	movlw	255
  4333  0449  1283               	bcf	3,5	;RP0=0, select bank0
  4334  044A  1303               	bcf	3,6	;RP1=0, select bank0
  4335  044B  00CD               	movwf	___fldiv@new_exp
  4336  044C  3000               	movlw	0
  4337  044D  00CE               	movwf	___fldiv@new_exp+1
  4338  044E  3000               	movlw	0
  4339  044F  00C2               	movwf	___fldiv@b+3
  4340  0450  3000               	movlw	0
  4341  0451  00C1               	movwf	___fldiv@b+2
  4342  0452  3000               	movlw	0
  4343  0453  00C0               	movwf	___fldiv@b+1
  4344  0454  3000               	movlw	0
  4345  0455  00BF               	movwf	___fldiv@b
  4346  0456                     l1943:	
  4347  0456  1283               	bcf	3,5	;RP0=0, select bank0
  4348  0457  1303               	bcf	3,6	;RP1=0, select bank0
  4349  0458  084E               	movf	___fldiv@new_exp+1,w
  4350  0459  3A80               	xorlw	128
  4351  045A  00FF               	movwf	btemp+1
  4352  045B  3080               	movlw	128
  4353  045C  027F               	subwf	btemp+1,w
  4354  045D  1D03               	skipz
  4355  045E  2C61               	goto	u2205
  4356  045F  3001               	movlw	1
  4357  0460  024D               	subwf	___fldiv@new_exp,w
  4358  0461                     u2205:	
  4359  0461  1803               	skipnc
  4360  0462  2C64               	goto	u2201
  4361  0463  2C65               	goto	u2200
  4362  0464                     u2201:	
  4363  0464  2C72               	goto	l660
  4364  0465                     u2200:	
  4365  0465                     l1945:	
  4366  0465  1283               	bcf	3,5	;RP0=0, select bank0
  4367  0466  1303               	bcf	3,6	;RP1=0, select bank0
  4368  0467  01CD               	clrf	___fldiv@new_exp
  4369  0468  01CE               	clrf	___fldiv@new_exp+1
  4370  0469                     l1947:	
  4371  0469  3000               	movlw	0
  4372  046A  00C2               	movwf	___fldiv@b+3
  4373  046B  3000               	movlw	0
  4374  046C  00C1               	movwf	___fldiv@b+2
  4375  046D  3000               	movlw	0
  4376  046E  00C0               	movwf	___fldiv@b+1
  4377  046F  3000               	movlw	0
  4378  0470  00BF               	movwf	___fldiv@b
  4379  0471                     l1949:	
  4380  0471  01CC               	clrf	___fldiv@sign
  4381  0472                     l660:	
  4382  0472  1283               	bcf	3,5	;RP0=0, select bank0
  4383  0473  1303               	bcf	3,6	;RP1=0, select bank0
  4384  0474  084D               	movf	___fldiv@new_exp,w
  4385  0475  00C3               	movwf	??___fldiv
  4386  0476  0843               	movf	??___fldiv,w
  4387  0477  00D3               	movwf	___fldiv@bexp
  4388  0478                     l1951:	
  4389  0478  1C53               	btfss	___fldiv@bexp,0
  4390  0479  2C7B               	goto	u2211
  4391  047A  2C7C               	goto	u2210
  4392  047B                     u2211:	
  4393  047B  2C7E               	goto	l1955
  4394  047C                     u2210:	
  4395  047C                     l1953:	
  4396  047C  17C1               	bsf	___fldiv@b+2,7
  4397  047D  2C82               	goto	l662
  4398  047E                     l1955:	
  4399  047E  307F               	movlw	127
  4400  047F  00C3               	movwf	??___fldiv
  4401  0480  0843               	movf	??___fldiv,w
  4402  0481  05C1               	andwf	___fldiv@b+2,f
  4403  0482                     l662:	
  4404  0482  0853               	movf	___fldiv@bexp,w
  4405  0483  00C3               	movwf	??___fldiv
  4406  0484  1003               	clrc
  4407  0485  0C43               	rrf	??___fldiv,w
  4408  0486  00C4               	movwf	??___fldiv+1
  4409  0487  0844               	movf	??___fldiv+1,w
  4410  0488  00C2               	movwf	___fldiv@b+3
  4411  0489  084C               	movf	___fldiv@sign,w
  4412  048A  00C3               	movwf	??___fldiv
  4413  048B  0843               	movf	??___fldiv,w
  4414  048C  04C2               	iorwf	___fldiv@b+3,f
  4415  048D  2B26               	goto	l1863
  4416  048E                     l640:	
  4417  048E  0008               	return
  4418  048F                     __end_of___fldiv:	
  4419                           
  4420                           	psect	text14
  4421  0EDA                     __ptext14:	
  4422 ;; *************** function _isr *****************
  4423 ;; Defined at:
  4424 ;;		line 50 in file "main.c"
  4425 ;; Parameters:    Size  Location     Type
  4426 ;;		None
  4427 ;; Auto vars:     Size  Location     Type
  4428 ;;		None
  4429 ;; Return value:  Size  Location     Type
  4430 ;;                  1    wreg      void 
  4431 ;; Registers used:
  4432 ;;		wreg, fsr0l, fsr0h, status,2, status,0, pclath, cstack
  4433 ;; Tracked objects:
  4434 ;;		On entry : 0/0
  4435 ;;		On exit  : 0/0
  4436 ;;		Unchanged: 0/0
  4437 ;; Data sizes:     COMMON   BANK0   BANK1   BANK3   BANK2
  4438 ;;      Params:         0       0       0       0       0
  4439 ;;      Locals:         0       0       0       0       0
  4440 ;;      Temps:          0       7       0       0       0
  4441 ;;      Totals:         0       7       0       0       0
  4442 ;;Total ram usage:        7 bytes
  4443 ;; Hardware stack levels used:    1
  4444 ;; Hardware stack levels required when called:    1
  4445 ;; This function calls:
  4446 ;;		_select
  4447 ;; This function is called by:
  4448 ;;		Interrupt level 1
  4449 ;; This function uses a non-reentrant model
  4450 ;;
  4451                           
  4452                           
  4453                           ;psect for function _isr
  4454  0EDA                     _isr:	
  4455  0EDA                     i1l2095:	
  4456                           
  4457                           ;main.c: 51:     if(PIR1bits.SSPIF==1){
  4458  0EDA  1D8C               	btfss	12,3	;volatile
  4459  0EDB  2EDD               	goto	u247_21
  4460  0EDC  2EDE               	goto	u247_20
  4461  0EDD                     u247_21:	
  4462  0EDD  2F5B               	goto	i1l62
  4463  0EDE                     u247_20:	
  4464  0EDE                     i1l2097:	
  4465                           
  4466                           ;main.c: 52:         SSPCONbits.CKP = 0;
  4467  0EDE  1214               	bcf	20,4	;volatile
  4468                           
  4469                           ;main.c: 54:         if ((SSPCONbits.SSPOV) || (SSPCONbits.WCOL)){
  4470  0EDF  1B14               	btfsc	20,6	;volatile
  4471  0EE0  2EE2               	goto	u248_21
  4472  0EE1  2EE3               	goto	u248_20
  4473  0EE2                     u248_21:	
  4474  0EE2  2EE7               	goto	i1l2101
  4475  0EE3                     u248_20:	
  4476  0EE3                     i1l2099:	
  4477  0EE3  1F94               	btfss	20,7	;volatile
  4478  0EE4  2EE6               	goto	u249_21
  4479  0EE5  2EE7               	goto	u249_20
  4480  0EE6                     u249_21:	
  4481  0EE6  2EEE               	goto	i1l2109
  4482  0EE7                     u249_20:	
  4483  0EE7                     i1l2101:	
  4484                           
  4485                           ;main.c: 55:             z = SSPBUF;
  4486  0EE7  0813               	movf	19,w	;volatile
  4487  0EE8  00A0               	movwf	??_isr
  4488  0EE9  0820               	movf	??_isr,w
  4489  0EEA  00E4               	movwf	_z
  4490  0EEB                     i1l2103:	
  4491                           
  4492                           ;main.c: 56:             SSPCONbits.SSPOV = 0;
  4493  0EEB  1314               	bcf	20,6	;volatile
  4494  0EEC                     i1l2105:	
  4495                           
  4496                           ;main.c: 57:             SSPCONbits.WCOL = 0;
  4497  0EEC  1394               	bcf	20,7	;volatile
  4498  0EED                     i1l2107:	
  4499                           
  4500                           ;main.c: 58:             SSPCONbits.CKP = 1;
  4501  0EED  1614               	bsf	20,4	;volatile
  4502  0EEE                     i1l2109:	
  4503                           
  4504                           ;main.c: 61:         if(!SSPSTATbits.D_nA && !SSPSTATbits.R_nW) {
  4505  0EEE  1683               	bsf	3,5	;RP0=1, select bank1
  4506  0EEF  1303               	bcf	3,6	;RP1=0, select bank1
  4507  0EF0  1A94               	btfsc	20,5	;volatile
  4508  0EF1  2EF3               	goto	u250_21
  4509  0EF2  2EF4               	goto	u250_20
  4510  0EF3                     u250_21:	
  4511  0EF3  2F14               	goto	i1l53
  4512  0EF4                     u250_20:	
  4513  0EF4                     i1l2111:	
  4514  0EF4  1914               	btfsc	20,2	;volatile
  4515  0EF5  2EF7               	goto	u251_21
  4516  0EF6  2EF8               	goto	u251_20
  4517  0EF7                     u251_21:	
  4518  0EF7  2F14               	goto	i1l53
  4519  0EF8                     u251_20:	
  4520  0EF8                     i1l2113:	
  4521                           
  4522                           ;main.c: 63:             z = SSPBUF;
  4523  0EF8  1283               	bcf	3,5	;RP0=0, select bank0
  4524  0EF9  1303               	bcf	3,6	;RP1=0, select bank0
  4525  0EFA  0813               	movf	19,w	;volatile
  4526  0EFB  00A0               	movwf	??_isr
  4527  0EFC  0820               	movf	??_isr,w
  4528  0EFD  00E4               	movwf	_z
  4529  0EFE                     i1l2115:	
  4530                           
  4531                           ;main.c: 65:             PIR1bits.SSPIF = 0;
  4532  0EFE  118C               	bcf	12,3	;volatile
  4533  0EFF                     i1l2117:	
  4534                           
  4535                           ;main.c: 66:             SSPCONbits.CKP = 1;
  4536  0EFF  1614               	bsf	20,4	;volatile
  4537  0F00                     i1l54:	
  4538                           ;main.c: 67:             while(!SSPSTATbits.BF);
  4539                           
  4540  0F00  1683               	bsf	3,5	;RP0=1, select bank1
  4541  0F01  1303               	bcf	3,6	;RP1=0, select bank1
  4542  0F02  1C14               	btfss	20,0	;volatile
  4543  0F03  2F05               	goto	u252_21
  4544  0F04  2F06               	goto	u252_20
  4545  0F05                     u252_21:	
  4546  0F05  2F00               	goto	i1l54
  4547  0F06                     u252_20:	
  4548  0F06                     i1l2119:	
  4549                           
  4550                           ;main.c: 68:             borrar = SSPBUF;
  4551  0F06  1283               	bcf	3,5	;RP0=0, select bank0
  4552  0F07  1303               	bcf	3,6	;RP1=0, select bank0
  4553  0F08  0813               	movf	19,w	;volatile
  4554  0F09  00A0               	movwf	??_isr
  4555  0F0A  0820               	movf	??_isr,w
  4556  0F0B  00E5               	movwf	_borrar
  4557                           
  4558                           ;main.c: 69:             _delay((unsigned long)((250)*(4000000/4000000.0)));
  4559  0F0C  3052               	movlw	82
  4560  0F0D  1283               	bcf	3,5	;RP0=0, select bank0
  4561  0F0E  1303               	bcf	3,6	;RP1=0, select bank0
  4562  0F0F  00A0               	movwf	??_isr
  4563  0F10                     u281_27:	
  4564  0F10  0BA0               	decfsz	??_isr,f
  4565  0F11  2F10               	goto	u281_27
  4566  0F12  0000               	nop
  4567                           
  4568                           ;main.c: 70:         }else if(!SSPSTATbits.D_nA && SSPSTATbits.R_nW){
  4569  0F13  2F58               	goto	i1l57
  4570  0F14                     i1l53:	
  4571  0F14  1A94               	btfsc	20,5	;volatile
  4572  0F15  2F17               	goto	u253_21
  4573  0F16  2F18               	goto	u253_20
  4574  0F17                     u253_21:	
  4575  0F17  2F58               	goto	i1l57
  4576  0F18                     u253_20:	
  4577  0F18                     i1l2121:	
  4578  0F18  1D14               	btfss	20,2	;volatile
  4579  0F19  2F1B               	goto	u254_21
  4580  0F1A  2F1C               	goto	u254_20
  4581  0F1B                     u254_21:	
  4582  0F1B  2F58               	goto	i1l57
  4583  0F1C                     u254_20:	
  4584  0F1C                     i1l2123:	
  4585                           
  4586                           ;main.c: 71:             z = SSPBUF;
  4587  0F1C  1283               	bcf	3,5	;RP0=0, select bank0
  4588  0F1D  1303               	bcf	3,6	;RP1=0, select bank0
  4589  0F1E  0813               	movf	19,w	;volatile
  4590  0F1F  00A0               	movwf	??_isr
  4591  0F20  0820               	movf	??_isr,w
  4592  0F21  00E4               	movwf	_z
  4593  0F22                     i1l2125:	
  4594                           
  4595                           ;main.c: 72:             BF = 0;
  4596  0F22  1683               	bsf	3,5	;RP0=1, select bank1
  4597  0F23  1303               	bcf	3,6	;RP1=0, select bank1
  4598  0F24  1014               	bcf	20,0	;volatile
  4599  0F25                     i1l2127:	
  4600                           
  4601                           ;main.c: 73:             mandar=select(c1, d1, u1, &contador,temperatura1);
  4602  0F25  1283               	bcf	3,5	;RP0=0, select bank0
  4603  0F26  1303               	bcf	3,6	;RP1=0, select bank0
  4604  0F27  0868               	movf	_d1,w
  4605  0F28  00A0               	movwf	??_isr
  4606  0F29  0820               	movf	??_isr,w
  4607  0F2A  00F0               	movwf	select@b
  4608  0F2B  0867               	movf	_u1,w
  4609  0F2C  00A1               	movwf	??_isr+1
  4610  0F2D  0821               	movf	??_isr+1,w
  4611  0F2E  00F1               	movwf	select@c
  4612  0F2F  3066               	movlw	(low (_contador| 0))& (0+255)
  4613  0F30  00A2               	movwf	??_isr+2
  4614  0F31  0822               	movf	??_isr+2,w
  4615  0F32  00F2               	movwf	select@contador
  4616  0F33  1683               	bsf	3,5	;RP0=1, select bank1
  4617  0F34  1303               	bcf	3,6	;RP1=0, select bank1
  4618  0F35  0842               	movf	(_temperatura1+3)^(0+128),w
  4619  0F36  00F6               	movwf	select@mandar+3
  4620  0F37  0841               	movf	(_temperatura1+2)^(0+128),w
  4621  0F38  00F5               	movwf	select@mandar+2
  4622  0F39  0840               	movf	(_temperatura1+1)^(0+128),w
  4623  0F3A  00F4               	movwf	select@mandar+1
  4624  0F3B  083F               	movf	_temperatura1^(0+128),w
  4625  0F3C  00F3               	movwf	select@mandar
  4626  0F3D  087D               	movf	_c1,w
  4627  0F3E  120A  158A  2651  120A  158A  	fcall	_select
  4628  0F43  1283               	bcf	3,5	;RP0=0, select bank0
  4629  0F44  1303               	bcf	3,6	;RP1=0, select bank0
  4630  0F45  00A3               	movwf	??_isr+3
  4631  0F46  0823               	movf	??_isr+3,w
  4632  0F47  00E3               	movwf	_mandar
  4633  0F48                     i1l2129:	
  4634                           
  4635                           ;main.c: 74:             SSPBUF = mandar;
  4636  0F48  0863               	movf	_mandar,w
  4637  0F49  0093               	movwf	19	;volatile
  4638  0F4A                     i1l2131:	
  4639                           
  4640                           ;main.c: 75:             SSPCONbits.CKP = 1;
  4641  0F4A  1614               	bsf	20,4	;volatile
  4642  0F4B                     i1l2133:	
  4643                           
  4644                           ;main.c: 76:             _delay((unsigned long)((250)*(4000000/4000000.0)));
  4645  0F4B  3052               	movlw	82
  4646  0F4C  1283               	bcf	3,5	;RP0=0, select bank0
  4647  0F4D  1303               	bcf	3,6	;RP1=0, select bank0
  4648  0F4E  00A0               	movwf	??_isr
  4649  0F4F                     u282_27:	
  4650  0F4F  0BA0               	decfsz	??_isr,f
  4651  0F50  2F4F               	goto	u282_27
  4652  0F51  0000               	nop
  4653  0F52                     i1l59:	
  4654                           ;main.c: 77:             while(SSPSTATbits.BF);
  4655                           
  4656  0F52  1683               	bsf	3,5	;RP0=1, select bank1
  4657  0F53  1303               	bcf	3,6	;RP1=0, select bank1
  4658  0F54  1814               	btfsc	20,0	;volatile
  4659  0F55  2F57               	goto	u255_21
  4660  0F56  2F58               	goto	u255_20
  4661  0F57                     u255_21:	
  4662  0F57  2F52               	goto	i1l59
  4663  0F58                     u255_20:	
  4664  0F58                     i1l57:	
  4665                           
  4666                           ;main.c: 81:         PIR1bits.SSPIF = 0;
  4667  0F58  1283               	bcf	3,5	;RP0=0, select bank0
  4668  0F59  1303               	bcf	3,6	;RP1=0, select bank0
  4669  0F5A  118C               	bcf	12,3	;volatile
  4670  0F5B                     i1l62:	
  4671  0F5B  0826               	movf	??_isr+6,w
  4672  0F5C  008A               	movwf	10
  4673  0F5D  0825               	movf	??_isr+5,w
  4674  0F5E  0084               	movwf	4
  4675  0F5F  0E24               	swapf	(??_isr+4)^0,w
  4676  0F60  0083               	movwf	3
  4677  0F61  0EFE               	swapf	btemp,f
  4678  0F62  0E7E               	swapf	btemp,w
  4679  0F63  0009               	retfie
  4680  0F64                     __end_of_isr:	
  4681                           
  4682                           	psect	intentry
  4683  0004                     __pintentry:	
  4684                           ;incstack = 0
  4685                           ; Regs used in _isr: [wreg-fsr0h+status,2+status,0+pclath+cstack]
  4686                           
  4687  0004                     interrupt_function:	
  4688  007E                     saved_w	set	btemp
  4689  0004  00FE               	movwf	btemp
  4690  0005  0E03               	swapf	3,w
  4691  0006  1283               	bcf	3,5	;RP0=0, select bank0
  4692  0007  1303               	bcf	3,6	;RP1=0, select bank0
  4693  0008  00A4               	movwf	??_isr+4
  4694  0009  0804               	movf	4,w
  4695  000A  00A5               	movwf	??_isr+5
  4696  000B  080A               	movf	10,w
  4697  000C  00A6               	movwf	??_isr+6
  4698  000D  120A  158A  2EDA   	ljmp	_isr
  4699                           
  4700                           	psect	text15
  4701  0E51                     __ptext15:	
  4702 ;; *************** function _select *****************
  4703 ;; Defined at:
  4704 ;;		line 135 in file "main.c"
  4705 ;; Parameters:    Size  Location     Type
  4706 ;;  a               1    wreg     unsigned char 
  4707 ;;  b               1    0[COMMON] unsigned char 
  4708 ;;  c               1    1[COMMON] unsigned char 
  4709 ;;  contador        1    2[COMMON] PTR unsigned char 
  4710 ;;		 -> contador(1), 
  4711 ;;  mandar          4    3[COMMON] unsigned long 
  4712 ;; Auto vars:     Size  Location     Type
  4713 ;;  a               1    0[COMMON] unsigned char 
  4714 ;;  z               1   12[COMMON] unsigned char 
  4715 ;; Return value:  Size  Location     Type
  4716 ;;                  1    wreg      unsigned char 
  4717 ;; Registers used:
  4718 ;;		wreg, fsr0l, fsr0h, status,2, status,0
  4719 ;; Tracked objects:
  4720 ;;		On entry : 0/0
  4721 ;;		On exit  : 0/0
  4722 ;;		Unchanged: 0/0
  4723 ;; Data sizes:     COMMON   BANK0   BANK1   BANK3   BANK2
  4724 ;;      Params:         7       0       0       0       0
  4725 ;;      Locals:         1       0       0       0       0
  4726 ;;      Temps:          5       0       0       0       0
  4727 ;;      Totals:        13       0       0       0       0
  4728 ;;Total ram usage:       13 bytes
  4729 ;; Hardware stack levels used:    1
  4730 ;; This function calls:
  4731 ;;		Nothing
  4732 ;; This function is called by:
  4733 ;;		_isr
  4734 ;; This function uses a non-reentrant model
  4735 ;;
  4736                           
  4737                           
  4738                           ;psect for function _select
  4739  0E51                     _select:	
  4740  0E51                     i1l2005:	
  4741                           ;incstack = 0
  4742                           ; Regs used in _select: [wreg-fsr0h+status,2+status,0]
  4743                           
  4744                           
  4745                           ;main.c: 136:     uint8_t z;;main.c: 137:     if (*contador==0){
  4746  0E51  0872               	movf	select@contador,w
  4747  0E52  0084               	movwf	4
  4748  0E53  1383               	bcf	3,7	;select IRP bank0
  4749  0E54  0800               	movf	0,w
  4750  0E55  1D03               	btfss	3,2
  4751  0E56  2E58               	goto	u236_21
  4752  0E57  2E59               	goto	u236_20
  4753  0E58                     u236_21:	
  4754  0E58  2E79               	goto	i1l2015
  4755  0E59                     u236_20:	
  4756  0E59                     i1l2007:	
  4757                           
  4758                           ;main.c: 138:         *contador=*contador+1;
  4759  0E59  0872               	movf	select@contador,w
  4760  0E5A  0084               	movwf	4
  4761  0E5B  0800               	movf	0,w
  4762  0E5C  3E01               	addlw	1
  4763  0E5D  00F7               	movwf	??_select
  4764  0E5E  0872               	movf	select@contador,w
  4765  0E5F  0084               	movwf	4
  4766  0E60  0877               	movf	??_select,w
  4767  0E61  0080               	movwf	0
  4768  0E62                     i1l2009:	
  4769                           
  4770                           ;main.c: 139:         z = mandar>>24;
  4771  0E62  0873               	movf	select@mandar,w
  4772  0E63  00F7               	movwf	??_select
  4773  0E64  0874               	movf	select@mandar+1,w
  4774  0E65  00F8               	movwf	??_select+1
  4775  0E66  0875               	movf	select@mandar+2,w
  4776  0E67  00F9               	movwf	??_select+2
  4777  0E68  0876               	movf	select@mandar+3,w
  4778  0E69  00FA               	movwf	??_select+3
  4779  0E6A  3018               	movlw	24
  4780  0E6B                     u237_25:	
  4781  0E6B  1003               	clrc
  4782  0E6C  0CFA               	rrf	??_select+3,f
  4783  0E6D  0CF9               	rrf	??_select+2,f
  4784  0E6E  0CF8               	rrf	??_select+1,f
  4785  0E6F  0CF7               	rrf	??_select,f
  4786  0E70                     u237_20:	
  4787  0E70  3EFF               	addlw	-1
  4788  0E71  1D03               	skipz
  4789  0E72  2E6B               	goto	u237_25
  4790  0E73  0877               	movf	??_select,w
  4791  0E74  00FB               	movwf	??_select+4
  4792  0E75  087B               	movf	??_select+4,w
  4793  0E76  00FC               	movwf	select@z
  4794  0E77                     i1l2011:	
  4795                           
  4796                           ;main.c: 140:         return z;
  4797  0E77  087C               	movf	select@z,w
  4798  0E78  2ED9               	goto	i1l82
  4799  0E79                     i1l2015:	
  4800                           
  4801                           ;main.c: 142:     if (*contador==1){
  4802  0E79  0872               	movf	select@contador,w
  4803  0E7A  0084               	movwf	4
  4804  0E7B  0300               	decf	0,w
  4805  0E7C  1D03               	btfss	3,2
  4806  0E7D  2E7F               	goto	u238_21
  4807  0E7E  2E80               	goto	u238_20
  4808  0E7F                     u238_21:	
  4809  0E7F  2E9F               	goto	i1l2025
  4810  0E80                     u238_20:	
  4811  0E80                     i1l2017:	
  4812                           
  4813                           ;main.c: 143:         *contador=*contador+1;
  4814  0E80  0872               	movf	select@contador,w
  4815  0E81  0084               	movwf	4
  4816  0E82  0800               	movf	0,w
  4817  0E83  3E01               	addlw	1
  4818  0E84  00F7               	movwf	??_select
  4819  0E85  0872               	movf	select@contador,w
  4820  0E86  0084               	movwf	4
  4821  0E87  0877               	movf	??_select,w
  4822  0E88  0080               	movwf	0
  4823  0E89                     i1l2019:	
  4824                           
  4825                           ;main.c: 144:         z = mandar>>16;
  4826  0E89  0873               	movf	select@mandar,w
  4827  0E8A  00F7               	movwf	??_select
  4828  0E8B  0874               	movf	select@mandar+1,w
  4829  0E8C  00F8               	movwf	??_select+1
  4830  0E8D  0875               	movf	select@mandar+2,w
  4831  0E8E  00F9               	movwf	??_select+2
  4832  0E8F  0876               	movf	select@mandar+3,w
  4833  0E90  00FA               	movwf	??_select+3
  4834  0E91  3010               	movlw	16
  4835  0E92                     u239_25:	
  4836  0E92  1003               	clrc
  4837  0E93  0CFA               	rrf	??_select+3,f
  4838  0E94  0CF9               	rrf	??_select+2,f
  4839  0E95  0CF8               	rrf	??_select+1,f
  4840  0E96  0CF7               	rrf	??_select,f
  4841  0E97                     u239_20:	
  4842  0E97  3EFF               	addlw	-1
  4843  0E98  1D03               	skipz
  4844  0E99  2E92               	goto	u239_25
  4845  0E9A  0877               	movf	??_select,w
  4846  0E9B  00FB               	movwf	??_select+4
  4847  0E9C  087B               	movf	??_select+4,w
  4848  0E9D  00FC               	movwf	select@z
  4849  0E9E  2E77               	goto	i1l2011
  4850  0E9F                     i1l2025:	
  4851                           
  4852                           ;main.c: 147:     if (*contador==2){
  4853  0E9F  0872               	movf	select@contador,w
  4854  0EA0  0084               	movwf	4
  4855  0EA1  3002               	movlw	2
  4856  0EA2  0600               	xorwf	0,w
  4857  0EA3  1D03               	btfss	3,2
  4858  0EA4  2EA6               	goto	u240_21
  4859  0EA5  2EA7               	goto	u240_20
  4860  0EA6                     u240_21:	
  4861  0EA6  2EC6               	goto	i1l2035
  4862  0EA7                     u240_20:	
  4863  0EA7                     i1l2027:	
  4864                           
  4865                           ;main.c: 148:         *contador=*contador+1;
  4866  0EA7  0872               	movf	select@contador,w
  4867  0EA8  0084               	movwf	4
  4868  0EA9  0800               	movf	0,w
  4869  0EAA  3E01               	addlw	1
  4870  0EAB  00F7               	movwf	??_select
  4871  0EAC  0872               	movf	select@contador,w
  4872  0EAD  0084               	movwf	4
  4873  0EAE  0877               	movf	??_select,w
  4874  0EAF  0080               	movwf	0
  4875  0EB0                     i1l2029:	
  4876                           
  4877                           ;main.c: 149:         z = mandar>>8;
  4878  0EB0  0873               	movf	select@mandar,w
  4879  0EB1  00F7               	movwf	??_select
  4880  0EB2  0874               	movf	select@mandar+1,w
  4881  0EB3  00F8               	movwf	??_select+1
  4882  0EB4  0875               	movf	select@mandar+2,w
  4883  0EB5  00F9               	movwf	??_select+2
  4884  0EB6  0876               	movf	select@mandar+3,w
  4885  0EB7  00FA               	movwf	??_select+3
  4886  0EB8  3008               	movlw	8
  4887  0EB9                     u241_25:	
  4888  0EB9  1003               	clrc
  4889  0EBA  0CFA               	rrf	??_select+3,f
  4890  0EBB  0CF9               	rrf	??_select+2,f
  4891  0EBC  0CF8               	rrf	??_select+1,f
  4892  0EBD  0CF7               	rrf	??_select,f
  4893  0EBE                     u241_20:	
  4894  0EBE  3EFF               	addlw	-1
  4895  0EBF  1D03               	skipz
  4896  0EC0  2EB9               	goto	u241_25
  4897  0EC1  0877               	movf	??_select,w
  4898  0EC2  00FB               	movwf	??_select+4
  4899  0EC3  087B               	movf	??_select+4,w
  4900  0EC4  00FC               	movwf	select@z
  4901  0EC5  2E77               	goto	i1l2011
  4902  0EC6                     i1l2035:	
  4903                           
  4904                           ;main.c: 152:     if (*contador==3){
  4905  0EC6  0872               	movf	select@contador,w
  4906  0EC7  0084               	movwf	4
  4907  0EC8  3003               	movlw	3
  4908  0EC9  0600               	xorwf	0,w
  4909  0ECA  1D03               	btfss	3,2
  4910  0ECB  2ECD               	goto	u242_21
  4911  0ECC  2ECE               	goto	u242_20
  4912  0ECD                     u242_21:	
  4913  0ECD  2ED6               	goto	i1l2045
  4914  0ECE                     u242_20:	
  4915  0ECE                     i1l2037:	
  4916                           
  4917                           ;main.c: 153:         *contador=0;
  4918  0ECE  0872               	movf	select@contador,w
  4919  0ECF  0084               	movwf	4
  4920  0ED0  0180               	clrf	0
  4921  0ED1                     i1l2039:	
  4922                           
  4923                           ;main.c: 154:         z = mandar;
  4924  0ED1  0873               	movf	select@mandar,w
  4925  0ED2  00F7               	movwf	??_select
  4926  0ED3  0877               	movf	??_select,w
  4927  0ED4  00FC               	movwf	select@z
  4928  0ED5  2E77               	goto	i1l2011
  4929  0ED6                     i1l2045:	
  4930                           
  4931                           ;main.c: 157:     return *contador;
  4932  0ED6  0872               	movf	select@contador,w
  4933  0ED7  0084               	movwf	4
  4934  0ED8  0800               	movf	0,w
  4935  0ED9                     i1l82:	
  4936  0ED9  0008               	return
  4937  0EDA                     __end_of_select:	
  4938  007E                     btemp	set	126	;btemp
  4939  007E                     wtemp0	set	126


Data Sizes:
    Strings     0
    Constant    0
    Data        0
    BSS         15
    Persistent  0
    Stack       0

Auto Spaces:
    Space          Size  Autos    Used
    COMMON           14     13      14
    BANK0            80     67      73
    BANK1            80     31      39
    BANK3            96      0       0
    BANK2            96      0       0

Pointer List with Targets:

    select@contador	PTR unsigned char  size(1) Largest target is 1
		 -> contador(BANK0[1]), 

    int_distance@v3	PTR unsigned char  size(1) Largest target is 1
		 -> u1(BANK0[1]), 

    int_distance@v2	PTR unsigned char  size(1) Largest target is 1
		 -> d1(BANK0[1]), 

    int_distance@v1	PTR unsigned char  size(1) Largest target is 1
		 -> c1(COMMON[1]), 


Critical Paths under _main in COMMON

    None.

Critical Paths under _isr in COMMON

    _isr->_select

Critical Paths under _main in BANK0

    _main->___fltol
    _setup->_lcd_setup
    _lcd_setup->_lcd_command
    _int_distance->___fltol
    ___xxtofl->___wmul
    ___fltol->___flsub
    ___flsub->___fldiv
    ___fldiv->___xxtofl

Critical Paths under _isr in BANK0

    None.

Critical Paths under _main in BANK1

    _main->_int_distance
    _int_distance->___fltol

Critical Paths under _isr in BANK1

    None.

Critical Paths under _main in BANK3

    None.

Critical Paths under _isr in BANK3

    None.

Critical Paths under _main in BANK2

    None.

Critical Paths under _isr in BANK2

    None.

Call Graph Tables:

 ---------------------------------------------------------------------------------
 (Depth) Function   	        Calls       Base Space   Used Autos Params    Refs
 ---------------------------------------------------------------------------------
 (0) _main                                                 3     3      0   10399
                                             28 BANK1      3     3      0
                            ___fldiv
                            ___fltol
                           ___xxtofl
                       _int_distance
                              _setup
                              _tRead
 ---------------------------------------------------------------------------------
 (1) _tRead                                               10     8      2     139
                                              7 BANK0      9     7      2
 ---------------------------------------------------------------------------------
 (1) _setup                                                0     0      0      44
                     _I2C_Slave_Init
                          _lcd_setup
                             _tSetup
 ---------------------------------------------------------------------------------
 (2) _tSetup                                               3     3      0       0
                                              7 BANK0      3     3      0
 ---------------------------------------------------------------------------------
 (2) _lcd_setup                                            2     2      0      22
                                             10 BANK0      2     2      0
                        _lcd_command
 ---------------------------------------------------------------------------------
 (3) _lcd_command                                          3     3      0      22
                                              7 BANK0      3     3      0
 ---------------------------------------------------------------------------------
 (2) _I2C_Slave_Init                                       1     1      0      22
                                              7 BANK0      1     1      0
 ---------------------------------------------------------------------------------
 (1) _int_distance                                        23    16      7    7012
                                              5 BANK1     23    16      7
                            ___fldiv
                            ___flsub
                            ___fltol
                             ___wmul
                           ___xxtofl
 ---------------------------------------------------------------------------------
 (2) ___xxtofl                                            14    10      4     626
                                             13 BANK0     14    10      4
                             ___wmul (ARG)
 ---------------------------------------------------------------------------------
 (2) ___wmul                                               6     2      4     548
                                              7 BANK0      6     2      4
 ---------------------------------------------------------------------------------
 (2) ___fltol                                             11     7      4     697
                                             61 BANK0      6     2      4
                                              0 BANK1      5     5      0
                            ___fldiv (ARG)
                            ___flsub (ARG)
                             ___wmul (ARG)
                           ___xxtofl (ARG)
 ---------------------------------------------------------------------------------
 (2) ___flsub                                              8     0      8    2485
                                             53 BANK0      8     0      8
                            ___fladd
                            ___fldiv (ARG)
                             ___wmul (ARG)
                           ___xxtofl (ARG)
 ---------------------------------------------------------------------------------
 (3) ___fladd                                             20    12      8    2136
                                              7 BANK0     20    12      8
 ---------------------------------------------------------------------------------
 (2) ___fldiv                                             26    18      8    1881
                                             27 BANK0     26    18      8
                           ___xxtofl (ARG)
 ---------------------------------------------------------------------------------
 Estimated maximum stack depth 3
 ---------------------------------------------------------------------------------
 (Depth) Function   	        Calls       Base Space   Used Autos Params    Refs
 ---------------------------------------------------------------------------------
 (4) _isr                                                  7     7      0     748
                                              0 BANK0      7     7      0
                             _select
 ---------------------------------------------------------------------------------
 (5) _select                                              14     7      7     748
                                              0 COMMON    13     6      7
 ---------------------------------------------------------------------------------
 Estimated maximum stack depth 5
 ---------------------------------------------------------------------------------

 Call Graph Graphs:

 _main (ROOT)
   ___fldiv
     ___xxtofl (ARG)
       ___wmul (ARG)
   ___fltol
     ___fldiv (ARG)
       ___xxtofl (ARG)
         ___wmul (ARG)
     ___flsub (ARG)
       ___fladd
       ___fldiv (ARG)
         ___xxtofl (ARG)
           ___wmul (ARG)
       ___wmul (ARG)
       ___xxtofl (ARG)
         ___wmul (ARG)
     ___wmul (ARG)
     ___xxtofl (ARG)
       ___wmul (ARG)
   ___xxtofl
     ___wmul (ARG)
   _int_distance
     ___fldiv
       ___xxtofl (ARG)
         ___wmul (ARG)
     ___flsub
       ___fladd
       ___fldiv (ARG)
         ___xxtofl (ARG)
           ___wmul (ARG)
       ___wmul (ARG)
       ___xxtofl (ARG)
         ___wmul (ARG)
     ___fltol
       ___fldiv (ARG)
         ___xxtofl (ARG)
           ___wmul (ARG)
       ___flsub (ARG)
         ___fladd
         ___fldiv (ARG)
           ___xxtofl (ARG)
             ___wmul (ARG)
         ___wmul (ARG)
         ___xxtofl (ARG)
           ___wmul (ARG)
       ___wmul (ARG)
       ___xxtofl (ARG)
         ___wmul (ARG)
     ___wmul
     ___xxtofl
       ___wmul (ARG)
   _setup
     _I2C_Slave_Init
     _lcd_setup
       _lcd_command
     _tSetup
   _tRead

 _isr (ROOT)
   _select

 Address spaces:
Name               Size   Autos  Total    Cost      Usage
BITCOMMON            E      0       0       0        0.0%
EEDATA             100      0       0       0        0.0%
NULL                 0      0       0       0        0.0%
CODE                 0      0       0       0        0.0%
COMMON               E      D       E       1      100.0%
BITSFR0              0      0       0       1        0.0%
SFR0                 0      0       0       1        0.0%
BITSFR1              0      0       0       2        0.0%
SFR1                 0      0       0       2        0.0%
STACK                0      0       0       2        0.0%
ABS                  0      0      7E       3        0.0%
BITBANK0            50      0       0       4        0.0%
BITSFR3              0      0       0       4        0.0%
SFR3                 0      0       0       4        0.0%
BANK0               50     43      49       5       91.3%
BITSFR2              0      0       0       5        0.0%
SFR2                 0      0       0       5        0.0%
BITBANK1            50      0       0       6        0.0%
BANK1               50     1F      27       7       48.8%
BITBANK3            60      0       0       8        0.0%
BANK3               60      0       0       9        0.0%
BITBANK2            60      0       0      10        0.0%
BANK2               60      0       0      11        0.0%
DATA                 0      0      7E      12        0.0%


Microchip Technology PIC Macro Assembler V2.10 build 88905656 
Symbol Table                                                                                   Tue Mar 17 13:31:46 2020

            ___fldiv@aexp 0054              ___fldiv@bexp 0053                         _z 0064  
            ___fldiv@sign 004C               __CFG_CP$OFF 0000               _SSPSTATbits 0094  
                      _BF 04A0                        l75 0D2A                        l67 0722  
                      l78 0660                        _c1 007D                        _d1 0068  
                      _u1 0067       ___wmul@multiplicand 0029                       l100 0D41  
                     l203 0D77                       l131 0DE7                       l142 0D5B  
                     l145 0DF8                       l146 0E2D                       l148 0E50  
                     l603 01FF                       l291 07F8                       l613 0245  
                     l607 0223                       l640 048E                       l624 02A5  
                     l616 0283                       l625 02B1                       l289 07E0  
                     l482 0FEA                       l730 06F2                       l722 06CA  
                     l475 0FFF                       l660 0472                       l628 0D9B  
                     l716 0685                       l485 0FFF                       l662 0482  
                     l654 0400                       l638 030E                       l582 008D  
                     l718 071C                       l729 06E6                       l586 0134  
                     l595 02B1                       l588 010B                       _GIE 005F  
            __CFG_CPD$OFF 0000                       _isr 0EDA                       fsr0 0004  
                     indf 0000              __CFG_LVP$OFF 0000              lcd_command@a 0029  
            ___fltol@exp1 0062                      l2001 0714                      l2201 0FD0  
                    l2211 0FF4                      l2213 048F                      l2053 0DE8  
                    l2207 0FD7                      l2215 064A                      l2071 0E19  
                    l2063 0DF9                      l2055 0DEC                      l2231 0766  
                    l2223 071D                      l1601 00D3                      l2209 0FEF  
                    l2217 0651                      l1521 0D32                      l2049 0D1A  
                    l2081 0E4C                      l2073 0E21                      l2065 0E01  
                    l2057 0DED                      l2233 07C0                      l2225 0735  
                    l1611 0118                      l1603 00D7                      l1531 003B  
                    l2219 0659                      l1523 0D3E                      l2075 0E32  
                    l2067 0E11                      l2059 0DF5                      l2227 074E  
                    l1701 0288                      l1613 011A                      l1621 012C  
                    l1605 00D8                      l1541 004F                      l1533 003C  
                    l1525 002A                      l1517 0D2E                      l2069 0E18  
                    l2229 0755                      l1711 029F                      l1703 028D  
                    l1631 015D                      l1623 0138                      l1615 011E  
                    l1607 00EF                      l1551 0065                      l1535 0041  
                    l1543 0051                      l1527 0031                      l2191 0FAE  
                    l2183 0F7E                      l1519 0D30                      l2079 0E37  
                    l1713 02A1                      l1705 0295                      l1641 0174  
                    l1633 0161                      l1625 013D                      l1617 011F  
                    l1609 010F                      l1561 007A                      l1553 006B  
                    l1545 0059                      l1537 0046                      l1529 0037  
                    l2193 0FB2                      l2185 0FA3                      l2177 0F64  
                    l1721 0DA5                      l1715 02AC                      l1707 029A  
                    l1651 01D7                      l1643 0175                      l1635 0165  
                    l1619 0128                      l1571 0097                      l1563 0082  
                    l1555 006F                      l1547 005E                      l1539 004E  
                    l2187 0FA4                      l2179 0F75                      l1731 0DCF  
                    l1723 0DB0                      l1901 03B3                      l1821 02B9  
                    l1717 02B0                      l1709 029B                      l1661 020C  
                    l1653 01DD                      l1645 017E                      l1637 016E  
                    l1629 0146                      l1581 00AB                      l1573 009B  
                    l1565 0083                      l1557 0070                      l1549 0064  
                    l1813 0D78                      l2189 0FAC                      l1733 0DD5  
                    l1725 0DB6                      l1741 0D47                      l1911 03D0  
                    l1903 03B9                      l1831 02CE                      l1823 02BF  
                    l1671 0227                      l1655 01E2                      l1639 0170  
                    l1647 0183                      l1591 00BF                      l1583 00AF  
                    l1575 009F                      l1559 0075                      l1567 0085  
                    l1815 0D7C                      l2199 0FBA                      l1751 0D6D  
                    l1735 0DDB                      l1727 0DC1                      l1719 0D9C  
                    l1743 0D4A                      l1921 03E5                      l1913 03D1  
                    l1905 03C1                      l1841 02E6                      l1833 02D6  
                    l1825 02C3                      l1673 022A                      l1665 0215  
                    l1649 0199                      l1657 01F1                      l1681 0237  
                    l1593 00C3                      l1585 00B3                      l1577 00A3  
                    l1569 0093                      l1761 0D74                      l1753 0D6E  
                    l1737 0DE1                      l1729 0DC7                      l1745 0D4D  
                    l1931 040A                      l1923 03E9                      l1915 03DA  
                    l1907 03C3                      l1851 02FB                      l1843 02EC  
                    l1835 02D7                      l1827 02C4                      l1819 02B2  
                    l1691 024A                      l1683 0238                      l1675 022C  
                    l1667 021E                      l1659 0207                      l1595 00C7  
                    l1587 00B7                      l1579 00A7                      l1771 07EE  
                    l1763 07D2                      l1755 0D6F                      l1739 0D42  
                    l1941 0448                      l1933 0418                      l1925 03FD  
                    l1909 03CC                      l1917 03E0                      l1861 0322  
                    l1853 0303                      l1845 02F0                      l1829 02C9  
                    l1837 02D9                      l1693 024F                      l1685 023C  
                    l1677 0231                      l1669 0222                      l1597 00CB  
                    l1589 00BB                      l1773 07F4                      l1765 07D6  
                    l1757 0D70                      l1749 0D5F                      l1951 0478  
                    l1943 0456                      l1935 041C                      l1919 03E4  
                    l1863 0326                      l1855 0304                      l1847 02F1  
                    l1839 02E1                      l1695 025D                      l1687 0242  
                    l1679 0233                      l1599 00CF                      l1767 07DA  
                    l1759 0D71                      l1953 047C                      l1945 0465  
                    l1937 0435                      l1929 0405                      l1881 0367  
                    l1873 033D                      l1849 02F6                      l1857 0306  
                    l1697 0261                      l1769 07E7                      l1961 0664  
                    l1955 047E                      l1947 0469                      l1939 043B  
                    l1891 0385                      l1883 0369                      l1875 034F  
                    l1859 0316                      l1867 032F                      l1699 027F  
                    l1963 0669                      l1949 0471                      l1885 036E  
                    l1893 038E                      l1877 0357                      l1869 0334  
                    l1981 06B3                      l1973 0696                      l1965 066D  
                    l1895 03A0                      l1887 0380                      l1879 035F  
                    l1991 06EA                      l1983 06C1                      l1975 069B  
                    l1967 067D                      l1897 03A1                      l1889 0384  
                    l1993 06F4                      l1985 06D1                      l1977 06A8  
                    l1969 068D                      l1899 03AF                      l1995 070A  
                    l1987 06DC                      l1979 06AF                      l1997 070F  
                    l1989 06E0                      l1999 0713                      ?_isr 0070  
                    u2000 0334                      u2001 0333                      u2010 036E  
                    u2011 036D                      u2100 03D0                      u2101 03CF  
                    u2200 0465                      u2120 03E4                      u2040 0384  
                    u1400 0093                      u2201 0464                      u2121 03E3  
                    u2041 0383                      u2025 0370                      u1401 0092  
                    u2210 047C                      u2130 03E9                      u1410 0097  
                    u1330 003B                      u2211 047B                      u2131 03E8  
                    u2115 03D3                      u2035 0379                      u1411 0096  
                    u1331 003A                      u2140 03FD                      u2060 03A0  
                    u1500 013D                      u1420 00EF                      u1340 0041  
                    u2300 06E0                      u2220 0669                      u2205 0461  
                    u2141 03FC                      u2061 039F                      u1501 013C  
                    u1421 00EE                      u1341 0040                      u2301 06DF  
                    u2221 0668                      u2150 0404                      u2070 03B9  
                    u1430 00FA                      u1350 0046                      u2310 06E6  
                    u2230 066D                      u2151 0403                      u2071 03B8  
                    u2055 0387                      u1511 014F                      u1431 00F8  
                    u1351 0045                      u2311 06E5                      u2231 066C  
                    u2160 040A                      u2080 03C1                      u1600 0207  
                    u1520 0161                      u1512 0156                      u1440 00FB  
                    u1360 0064                      u2320 06EA                      u2240 068D  
                    u2161 0409                      u2081 03C0                      u2065 039C  
                    u1601 0206                      u1521 0160                      u1513 015D  
                    u1425 00EB                      u1361 0063                      u2321 06E9  
                    u2241 068C                      u2170 041C                      u1610 020C  
                    u1530 0165                      u1450 010F                      u1370 006F  
                    u2330 06FF                      u2171 041B                      u1611 020B  
                    u1531 0164                      u1451 010E                      u1371 006E  
                    u2180 042B                      u1700 024F                      u1540 0174  
                    u1460 011E                      u1380 0075                      u2340 070F  
                    u2260 06AE                      u1701 024E                      u1541 0173  
                    u1461 011D                      u1381 0074                      u2341 070E  
                    u2261 06AD                      u2190 0448                      u1710 0261  
                    u1630 0222                      u1390 007A                      u2350 0713  
                    u2191 0447                      u2095 03C5                      u1711 0260  
                    u1631 0221                      u1391 0079                      u2351 0712  
                    u2335 06FA                      u2255 06A0                      u1720 0270  
                    u1640 0227                      u1560 0199                      u1480 0134  
                    u2600 0F75                      u2280 06D0                      u2440 0E2D  
                    u2185 0426                      u1641 0226                      u1625 0217  
                    u1561 0198                      u1481 0133                      u2601 0F74  
                    u2281 06CF                      u2441 0E2C                      u1730 027F  
                    u1650 0231                      u1490 0138                      u2610 0F9A  
                    u2450 0E32                      u2195 0444                      u1731 027E  
                    u1651 0230                      u1571 01B0                      u1563 0195  
                    u1555 0177                      u1491 0137                      u1475 0121  
                    u2275 06C2                      u2451 0E31                      u2435 0E12  
                    u1740 0288                      u1660 0237                      u1580 01C4  
                    u1572 01B1                      u2620 0FB2                      u1820 07F4  
                    u2700 0755                      u1741 0287                      u1725 026B  
                    u1661 0236                      u1581 01C5                      u1573 01B6  
                    u2621 0FB1                      u1821 07F3                      u1805 07E1  
                    u2701 0754                      u1750 028D                      u1670 023C  
                    u1590 01E2                      u1582 01CA                      u1574 01B7  
                    u2630 0FB9                      u2710 0766                      u1751 028C  
                    u1671 023B                      u1591 01E1                      u1583 01CB  
                    u1575 01BC                      u2631 0FB8                      u2615 0F95  
                    u1815 07E8                      u2295 06D5                      u2711 0765  
                    u1760 029A                      u1680 0242                      u1576 01BD  
                    u1761 0299                      u1681 0241                      u2465 0E38  
                    u1930 02C3                      u1770 029F                      u1690 0249  
                    u2650 0FCF                      u1931 02C2                      u1771 029E  
                    u1691 0248                      u2651 0FCE                      u1940 02C9  
                    u1780 02B0                      u2660 0FD6                      u1941 02C8  
                    u1781 02AF                      u2661 0FD5                      u2645 0FBB  
                    u1950 02CE                      u1790 07DA                      u1951 02CD  
                    u1791 07D9                      u2807 0D39                      u2727 07C8  
                    u1960 02F0                      u2680 0FEF                      u1961 02EF  
                    u2681 0FEE                      u2737 0DF1                      u1970 02F6  
                    u2690 0FF4                      u1971 02F5                      u2691 0FF3  
                    u2675 0FDB                      u2747 0DFD                      _PEIE 005E  
                    u1980 02FB                      u1981 02FA                      u2757 0E1D  
                    u1990 0316                      u1991 0315                      u2767 0D55  
                    u2777 0DAB                      u2787 0DBC                      i1l53 0F14  
                    u2797 0DCB                      i1l54 0F00                      i1l62 0F5B  
                    i1l57 0F58                      i1l82 0ED9                      i1l59 0F52  
            __CFG_WRT$OFF 0000                      _main 071D                      btemp 007E  
                    start 0010             __CFG_IESO$OFF 0000           ___fldiv@new_exp 004D  
                   ??_isr 0020             ___fltol@sign1 0061           __end_of___fladd 02B2  
                   ?_main 0070           __end_of___fldiv 048F             __CFG_WDTE$OFF 0000  
         __end_of___flsub 0D9C           __end_of___fltol 1000                     _ANSEL 0188  
                   _PORTB 0006                     _TRISB 0086                     _TRISD 0088  
                   _SSPIE 0463                     _SSPIF 0063            __CFG_FCMEN$OFF 0000  
                   _tRead 0DE8                     _setup 0D1A            __CFG_BOREN$OFF 0000  
                   pclath 000A                     status 0003                     wtemp0 007E  
          __CFG_MCLRE$OFF 0000           __initialization 0013              __end_of_main 07D2  
                  ??_main 00BC                    ?_tRead 0027                    ?_setup 0070  
                  _ANSELH 0189                    i1l2011 0E77                    i1l2005 0E51  
                  i1l2101 0EE7                    i1l2007 0E59                    i1l2015 0E79  
                  i1l2111 0EF4                    i1l2103 0EEB                    i1l2017 0E80  
                  i1l2025 0E9F                    i1l2009 0E62                    i1l2121 0F18  
                  i1l2113 0EF8                    i1l2105 0EEC                    i1l2027 0EA7  
                  i1l2035 0EC6                    i1l2019 0E89                    i1l2131 0F4A  
                  i1l2123 0F1C                    i1l2115 0EFE                    i1l2107 0EED  
                  i1l2037 0ECE                    i1l2045 0ED6                    i1l2029 0EB0  
                  i1l2133 0F4B                    i1l2125 0F22                    i1l2117 0EFF  
                  i1l2109 0EEE                    i1l2039 0ED1                    i1l2127 0F25  
                  i1l2119 0F06                    i1l2129 0F48                    i1l2095 0EDA  
                  i1l2097 0EDE                    i1l2099 0EE3                    u240_20 0EA7  
                  u240_21 0EA6                    u241_20 0EBE                    u241_25 0EB9  
                  u242_20 0ECE                    u250_20 0EF4                    u242_21 0ECD  
                  u250_21 0EF3                    u251_20 0EF8                    u251_21 0EF7  
                  u236_20 0E59                    u252_20 0F06                    u236_21 0E58  
                  u252_21 0F05                    u237_20 0E70                    u253_20 0F18  
                  u253_21 0F17                    u237_25 0E6B                    u238_20 0E80  
                  u254_20 0F1C                    u238_21 0E7F                    u254_21 0F1B  
                  u239_20 0E97                    u255_20 0F58                    u247_20 0EDE  
                  u255_21 0F57                    u247_21 0EDD                    u239_25 0E92  
                  u248_20 0EE3                    u248_21 0EE2                    u249_20 0EE7  
                  u249_21 0EE6                    u281_27 0F10                    u282_27 0F4F  
                  _SSPADD 0093                    _TRISC3 043B                    _TRISC4 043C  
                  _SSPBUF 0013                    _SSPCON 0014          __end_of___xxtofl 071D  
          __CFG_PWRTE$OFF 0000      __size_of_lcd_command 0017             ?_int_distance 00A5  
               ??___fladd 002F                    ___wmul 07D2                 ??___fldiv 0043  
               ??___flsub 005D                 ??___fltol 00A0                    _borrar 0065  
                  _mandar 0063                    _tSetup 0D42                    _select 0E51  
                  tRead@i 002D                    saved_w 007E              ___xxtofl@arg 0037  
            ___xxtofl@exp 0036              ___xxtofl@val 002D   __end_of__initialization 0026  
              ___fltol@f1 005D            ??_int_distance 00AC            __pcstackCOMMON 0070  
 __size_of_I2C_Slave_Init 001C             __end_of_tRead 0E51             __end_of_setup 0D2B  
      __size_of_lcd_setup 004C                   ??_tRead 0029                   ??_setup 002C  
   I2C_Slave_Init@address 0027                __pbssBANK0 0063                __pbssBANK1 00BF  
              __pmaintext 071D                   ?___wmul 0027                __pintentry 0004  
                 ?_tSetup 0070                   ?_select 0070                 ?___xxtofl 002D  
                 _SSPCON2 0091                   _SSPSTAT 0094         __end_of_lcd_setup 0DE8  
                 ___fladd 002A                   ___fldiv 02B2                   ___flsub 0D78  
                 ___fltol 0F64           __size_of___wmul 0027           __size_of_tSetup 001A  
         __size_of_select 0089                   __ptext1 0DE8                   __ptext2 0D1A  
                 __ptext3 0D42                   __ptext4 0D9C                   __ptext5 0D2B  
                 __ptext6 0D5C                   __ptext7 048F                   __ptext8 0661  
                 __ptext9 07D2              __size_of_isr 008A                ??___xxtofl 0031  
    __end_of_int_distance 0661      end_of_initialization 0026         int_distance@valor 00A5  
                 select@a 0070                   select@b 0070                   select@c 0071  
                 select@z 007C            _I2C_Slave_Init 0D5C                 _PORTAbits 0005  
               _PORTDbits 0008                tRead@valor 002E               ___fladd@grs 003A  
           ___xxtofl@sign 0035                 _TRISAbits 0085                 _TRISCbits 0087  
             ___fldiv@grs 004F               ___fldiv@rem 0048             ??_lcd_command 0027  
  __end_of_I2C_Slave_Init 0D78            __end_of___wmul 07F9            __end_of_tSetup 0D5C  
          __end_of_select 0EDA       start_initialization 0013               __end_of_isr 0F64  
__CFG_FOSC$INTRC_NOCLKOUT 0000           ?_I2C_Slave_Init 0070                  ??___wmul 002B  
     __end_of_lcd_command 0D42                  ??_tSetup 0027                  ??_select 0077  
               ___fladd@a 002B                 ___fladd@b 0027     __size_of_int_distance 01D2  
               ___fldiv@a 003B                 ___fldiv@b 003F               __pbssCOMMON 007D  
               ___flsub@a 0055                 ___flsub@b 0059                 ___latbits 0002  
           __pcstackBANK0 0020             __pcstackBANK1 00A0         __size_of___xxtofl 00BC  
                ?___fladd 0027                  ?___fldiv 003B              _int_distance 048F  
                ?___flsub 0055                  ?___fltol 005D                 _lcd_setup 0D9C  
          __size_of_tRead 0069            __size_of_setup 0011         interrupt_function 0004  
          ___wmul@product 002B          int_distance@conv 00B7               _lcd_command 0D2B  
                _PIR1bits 000C              select@mandar 0073                ?_lcd_setup 0070  
       ___wmul@multiplier 0027          __size_of___fladd 0288          __size_of___fldiv 01DD  
        __size_of___flsub 0024          __size_of___fltol 009C                  ___xxtofl 0661  
                __ptext10 0F64                  __ptext11 0D78                  __ptext12 002A  
                __ptext13 02B2                  __ptext14 0EDA                  __ptext15 0E51  
       __CFG_BOR4V$BOR40V 0000                  _contador 0066          ??_I2C_Slave_Init 0027  
           __size_of_main 00B5               ??_lcd_setup 002A              _temperatura1 00BF  
                intlevel1 0000            select@contador 0072            int_distance@v1 00A9  
          int_distance@v2 00AA            int_distance@v3 00AB               _temperatura 00C3  
           int_distance@c 00BB             int_distance@d 00B6             int_distance@u 00B5  
             _SSPCON2bits 0091             ___fladd@signs 0037              ___fladd@aexp 0038  
            ___fladd@bexp 0039                _SSPCONbits 0014              ?_lcd_command 0070  
