

Microchip MPLAB XC8 Assembler V2.10 build 88905656 
                                                                                               Sun Mar 15 11:17:04 2020

Microchip MPLAB XC8 C Compiler v2.10 (Free license) build 20190730164152 Og1 
     1                           	processor	16F887
     2                           	opt	pw 120
     3                           	opt	flic
     4                           	psect	cinit,global,class=CODE,merge=1,delta=2
     5                           	psect	bssCOMMON,global,class=COMMON,space=1,delta=1
     6                           	psect	bssBANK0,global,class=BANK0,space=1,delta=1
     7                           	psect	bssBANK1,global,class=BANK1,space=1,delta=1
     8                           	psect	cstackBANK1,global,class=BANK1,space=1,delta=1
     9                           	psect	cstackCOMMON,global,class=COMMON,space=1,delta=1
    10                           	psect	cstackBANK0,global,class=BANK0,space=1,delta=1
    11                           	psect	maintext,global,class=CODE,split=1,delta=2
    12                           	psect	text1,local,class=CODE,merge=1,delta=2
    13                           	psect	text2,local,class=CODE,merge=1,delta=2
    14                           	psect	text3,local,class=CODE,merge=1,delta=2
    15                           	psect	text4,local,class=CODE,merge=1,delta=2
    16                           	psect	text5,local,class=CODE,merge=1,delta=2
    17                           	psect	text6,local,class=CODE,merge=1,delta=2
    18                           	psect	text7,local,class=CODE,merge=1,delta=2
    19                           	psect	text8,local,class=CODE,merge=1,delta=2,group=1
    20                           	psect	text9,local,class=CODE,merge=1,delta=2,group=1
    21                           	psect	text10,local,class=CODE,merge=1,delta=2,group=1
    22                           	psect	text11,local,class=CODE,merge=1,delta=2,group=1
    23                           	psect	text12,local,class=CODE,merge=1,delta=2,group=1
    24                           	psect	text13,local,class=CODE,merge=1,delta=2,group=1
    25                           	psect	text14,local,class=CODE,merge=1,delta=2
    26                           	psect	intentry,global,class=CODE,delta=2
    27                           	psect	text15,local,class=CODE,merge=1,delta=2
    28                           	dabs	1,0x7E,2
    29  0000                     
    30                           ; Version 2.10
    31                           ; Generated 31/07/2019 GMT
    32                           ; 
    33                           ; Copyright © 2019, Microchip Technology Inc. and its subsidiaries ("Microchip")
    34                           ; All rights reserved.
    35                           ; 
    36                           ; This software is developed by Microchip Technology Inc. and its subsidiaries ("Microch
      +                          ip").
    37                           ; 
    38                           ; Redistribution and use in source and binary forms, with or without modification, are
    39                           ; permitted provided that the following conditions are met:
    40                           ; 
    41                           ;     1. Redistributions of source code must retain the above copyright notice, this lis
      +                          t of
    42                           ;        conditions and the following disclaimer.
    43                           ; 
    44                           ;     2. Redistributions in binary form must reproduce the above copyright notice, this 
      +                          list
    45                           ;        of conditions and the following disclaimer in the documentation and/or other
    46                           ;        materials provided with the distribution.
    47                           ; 
    48                           ;     3. Microchip's name may not be used to endorse or promote products derived from th
      +                          is
    49                           ;        software without specific prior written permission.
    50                           ; 
    51                           ; THIS SOFTWARE IS PROVIDED BY MICROCHIP "AS IS" AND ANY EXPRESS OR IMPLIED WARRANTIES,
    52                           ; INCLUDING, BUT NOT LIMITED TO, THE IMPLIED WARRANTIES OF MERCHANTABILITY AND FITNESS F
      +                          OR
    53                           ; PURPOSE ARE DISCLAIMED.  IN NO EVENT SHALL MICROCHIP BE LIABLE FOR ANY DIRECT, INDIREC
      +                          T,
    54                           ; INCIDENTAL, SPECIAL, EXEMPLARY, OR CONSEQUENTIAL DAMAGES (INCLUDING BUT NOT LIMITED TO
    55                           ; PROCUREMENT OF SUBSTITUTE GOODS OR SERVICES; LOSS OF USE, DATA OR PROFITS; OR BUSINESS
    56                           ; INTERRUPTION) HOWSOEVER CAUSED AND ON ANY THEORY OF LIABILITY, WHETHER IN CONTRACT, ST
      +                          RICT
    57                           ; LIABILITY, OR TORT (INCLUDING NEGLIGENCE OR OTHERWISE) ARISING IN ANY WAY OUT OF THE U
      +                          SE OF
    58                           ; THIS SOFTWARE, EVEN IF ADVISED OF THE POSSIBILITY OF SUCH DAMAGE.
    59                           ; 
    60                           ; 
    61                           ; Code-generator required, PIC16F887 Definitions
    62                           ; 
    63                           ; SFR Addresses
    64  0000                     	;# 
    65  0001                     	;# 
    66  0002                     	;# 
    67  0003                     	;# 
    68  0004                     	;# 
    69  0005                     	;# 
    70  0006                     	;# 
    71  0007                     	;# 
    72  0008                     	;# 
    73  0009                     	;# 
    74  000A                     	;# 
    75  000B                     	;# 
    76  000C                     	;# 
    77  000D                     	;# 
    78  000E                     	;# 
    79  000E                     	;# 
    80  000F                     	;# 
    81  0010                     	;# 
    82  0011                     	;# 
    83  0012                     	;# 
    84  0013                     	;# 
    85  0014                     	;# 
    86  0015                     	;# 
    87  0015                     	;# 
    88  0016                     	;# 
    89  0017                     	;# 
    90  0018                     	;# 
    91  0019                     	;# 
    92  001A                     	;# 
    93  001B                     	;# 
    94  001B                     	;# 
    95  001C                     	;# 
    96  001D                     	;# 
    97  001E                     	;# 
    98  001F                     	;# 
    99  0081                     	;# 
   100  0085                     	;# 
   101  0086                     	;# 
   102  0087                     	;# 
   103  0088                     	;# 
   104  0089                     	;# 
   105  008C                     	;# 
   106  008D                     	;# 
   107  008E                     	;# 
   108  008F                     	;# 
   109  0090                     	;# 
   110  0091                     	;# 
   111  0092                     	;# 
   112  0093                     	;# 
   113  0093                     	;# 
   114  0093                     	;# 
   115  0094                     	;# 
   116  0095                     	;# 
   117  0096                     	;# 
   118  0097                     	;# 
   119  0098                     	;# 
   120  0099                     	;# 
   121  009A                     	;# 
   122  009B                     	;# 
   123  009C                     	;# 
   124  009D                     	;# 
   125  009E                     	;# 
   126  009F                     	;# 
   127  0105                     	;# 
   128  0107                     	;# 
   129  0108                     	;# 
   130  0109                     	;# 
   131  010C                     	;# 
   132  010C                     	;# 
   133  010D                     	;# 
   134  010E                     	;# 
   135  010F                     	;# 
   136  0185                     	;# 
   137  0187                     	;# 
   138  0188                     	;# 
   139  0189                     	;# 
   140  018C                     	;# 
   141  018D                     	;# 
   142  0000                     	;# 
   143  0001                     	;# 
   144  0002                     	;# 
   145  0003                     	;# 
   146  0004                     	;# 
   147  0005                     	;# 
   148  0006                     	;# 
   149  0007                     	;# 
   150  0008                     	;# 
   151  0009                     	;# 
   152  000A                     	;# 
   153  000B                     	;# 
   154  000C                     	;# 
   155  000D                     	;# 
   156  000E                     	;# 
   157  000E                     	;# 
   158  000F                     	;# 
   159  0010                     	;# 
   160  0011                     	;# 
   161  0012                     	;# 
   162  0013                     	;# 
   163  0014                     	;# 
   164  0015                     	;# 
   165  0015                     	;# 
   166  0016                     	;# 
   167  0017                     	;# 
   168  0018                     	;# 
   169  0019                     	;# 
   170  001A                     	;# 
   171  001B                     	;# 
   172  001B                     	;# 
   173  001C                     	;# 
   174  001D                     	;# 
   175  001E                     	;# 
   176  001F                     	;# 
   177  0081                     	;# 
   178  0085                     	;# 
   179  0086                     	;# 
   180  0087                     	;# 
   181  0088                     	;# 
   182  0089                     	;# 
   183  008C                     	;# 
   184  008D                     	;# 
   185  008E                     	;# 
   186  008F                     	;# 
   187  0090                     	;# 
   188  0091                     	;# 
   189  0092                     	;# 
   190  0093                     	;# 
   191  0093                     	;# 
   192  0093                     	;# 
   193  0094                     	;# 
   194  0095                     	;# 
   195  0096                     	;# 
   196  0097                     	;# 
   197  0098                     	;# 
   198  0099                     	;# 
   199  009A                     	;# 
   200  009B                     	;# 
   201  009C                     	;# 
   202  009D                     	;# 
   203  009E                     	;# 
   204  009F                     	;# 
   205  0105                     	;# 
   206  0107                     	;# 
   207  0108                     	;# 
   208  0109                     	;# 
   209  010C                     	;# 
   210  010C                     	;# 
   211  010D                     	;# 
   212  010E                     	;# 
   213  010F                     	;# 
   214  0185                     	;# 
   215  0187                     	;# 
   216  0188                     	;# 
   217  0189                     	;# 
   218  018C                     	;# 
   219  018D                     	;# 
   220  0000                     	;# 
   221  0001                     	;# 
   222  0002                     	;# 
   223  0003                     	;# 
   224  0004                     	;# 
   225  0005                     	;# 
   226  0006                     	;# 
   227  0007                     	;# 
   228  0008                     	;# 
   229  0009                     	;# 
   230  000A                     	;# 
   231  000B                     	;# 
   232  000C                     	;# 
   233  000D                     	;# 
   234  000E                     	;# 
   235  000E                     	;# 
   236  000F                     	;# 
   237  0010                     	;# 
   238  0011                     	;# 
   239  0012                     	;# 
   240  0013                     	;# 
   241  0014                     	;# 
   242  0015                     	;# 
   243  0015                     	;# 
   244  0016                     	;# 
   245  0017                     	;# 
   246  0018                     	;# 
   247  0019                     	;# 
   248  001A                     	;# 
   249  001B                     	;# 
   250  001B                     	;# 
   251  001C                     	;# 
   252  001D                     	;# 
   253  001E                     	;# 
   254  001F                     	;# 
   255  0081                     	;# 
   256  0085                     	;# 
   257  0086                     	;# 
   258  0087                     	;# 
   259  0088                     	;# 
   260  0089                     	;# 
   261  008C                     	;# 
   262  008D                     	;# 
   263  008E                     	;# 
   264  008F                     	;# 
   265  0090                     	;# 
   266  0091                     	;# 
   267  0092                     	;# 
   268  0093                     	;# 
   269  0093                     	;# 
   270  0093                     	;# 
   271  0094                     	;# 
   272  0095                     	;# 
   273  0096                     	;# 
   274  0097                     	;# 
   275  0098                     	;# 
   276  0099                     	;# 
   277  009A                     	;# 
   278  009B                     	;# 
   279  009C                     	;# 
   280  009D                     	;# 
   281  009E                     	;# 
   282  009F                     	;# 
   283  0105                     	;# 
   284  0107                     	;# 
   285  0108                     	;# 
   286  0109                     	;# 
   287  010C                     	;# 
   288  010C                     	;# 
   289  010D                     	;# 
   290  010E                     	;# 
   291  010F                     	;# 
   292  0185                     	;# 
   293  0187                     	;# 
   294  0188                     	;# 
   295  0189                     	;# 
   296  018C                     	;# 
   297  018D                     	;# 
   298  0000                     	;# 
   299  0001                     	;# 
   300  0002                     	;# 
   301  0003                     	;# 
   302  0004                     	;# 
   303  0005                     	;# 
   304  0006                     	;# 
   305  0007                     	;# 
   306  0008                     	;# 
   307  0009                     	;# 
   308  000A                     	;# 
   309  000B                     	;# 
   310  000C                     	;# 
   311  000D                     	;# 
   312  000E                     	;# 
   313  000E                     	;# 
   314  000F                     	;# 
   315  0010                     	;# 
   316  0011                     	;# 
   317  0012                     	;# 
   318  0013                     	;# 
   319  0014                     	;# 
   320  0015                     	;# 
   321  0015                     	;# 
   322  0016                     	;# 
   323  0017                     	;# 
   324  0018                     	;# 
   325  0019                     	;# 
   326  001A                     	;# 
   327  001B                     	;# 
   328  001B                     	;# 
   329  001C                     	;# 
   330  001D                     	;# 
   331  001E                     	;# 
   332  001F                     	;# 
   333  0081                     	;# 
   334  0085                     	;# 
   335  0086                     	;# 
   336  0087                     	;# 
   337  0088                     	;# 
   338  0089                     	;# 
   339  008C                     	;# 
   340  008D                     	;# 
   341  008E                     	;# 
   342  008F                     	;# 
   343  0090                     	;# 
   344  0091                     	;# 
   345  0092                     	;# 
   346  0093                     	;# 
   347  0093                     	;# 
   348  0093                     	;# 
   349  0094                     	;# 
   350  0095                     	;# 
   351  0096                     	;# 
   352  0097                     	;# 
   353  0098                     	;# 
   354  0099                     	;# 
   355  009A                     	;# 
   356  009B                     	;# 
   357  009C                     	;# 
   358  009D                     	;# 
   359  009E                     	;# 
   360  009F                     	;# 
   361  0105                     	;# 
   362  0107                     	;# 
   363  0108                     	;# 
   364  0109                     	;# 
   365  010C                     	;# 
   366  010C                     	;# 
   367  010D                     	;# 
   368  010E                     	;# 
   369  010F                     	;# 
   370  0185                     	;# 
   371  0187                     	;# 
   372  0188                     	;# 
   373  0189                     	;# 
   374  018C                     	;# 
   375  018D                     	;# 
   376  0000                     	;# 
   377  0001                     	;# 
   378  0002                     	;# 
   379  0003                     	;# 
   380  0004                     	;# 
   381  0005                     	;# 
   382  0006                     	;# 
   383  0007                     	;# 
   384  0008                     	;# 
   385  0009                     	;# 
   386  000A                     	;# 
   387  000B                     	;# 
   388  000C                     	;# 
   389  000D                     	;# 
   390  000E                     	;# 
   391  000E                     	;# 
   392  000F                     	;# 
   393  0010                     	;# 
   394  0011                     	;# 
   395  0012                     	;# 
   396  0013                     	;# 
   397  0014                     	;# 
   398  0015                     	;# 
   399  0015                     	;# 
   400  0016                     	;# 
   401  0017                     	;# 
   402  0018                     	;# 
   403  0019                     	;# 
   404  001A                     	;# 
   405  001B                     	;# 
   406  001B                     	;# 
   407  001C                     	;# 
   408  001D                     	;# 
   409  001E                     	;# 
   410  001F                     	;# 
   411  0081                     	;# 
   412  0085                     	;# 
   413  0086                     	;# 
   414  0087                     	;# 
   415  0088                     	;# 
   416  0089                     	;# 
   417  008C                     	;# 
   418  008D                     	;# 
   419  008E                     	;# 
   420  008F                     	;# 
   421  0090                     	;# 
   422  0091                     	;# 
   423  0092                     	;# 
   424  0093                     	;# 
   425  0093                     	;# 
   426  0093                     	;# 
   427  0094                     	;# 
   428  0095                     	;# 
   429  0096                     	;# 
   430  0097                     	;# 
   431  0098                     	;# 
   432  0099                     	;# 
   433  009A                     	;# 
   434  009B                     	;# 
   435  009C                     	;# 
   436  009D                     	;# 
   437  009E                     	;# 
   438  009F                     	;# 
   439  0105                     	;# 
   440  0107                     	;# 
   441  0108                     	;# 
   442  0109                     	;# 
   443  010C                     	;# 
   444  010C                     	;# 
   445  010D                     	;# 
   446  010E                     	;# 
   447  010F                     	;# 
   448  0185                     	;# 
   449  0187                     	;# 
   450  0188                     	;# 
   451  0189                     	;# 
   452  018C                     	;# 
   453  018D                     	;# 
   454  0014                     _SSPCON	set	20
   455  0005                     _PORTAbits	set	5
   456  0006                     _PORTB	set	6
   457  0008                     _PORTDbits	set	8
   458  0013                     _SSPBUF	set	19
   459  0014                     _SSPCONbits	set	20
   460  000C                     _PIR1bits	set	12
   461  0063                     _SSPIF	set	99
   462  005E                     _PEIE	set	94
   463  005F                     _GIE	set	95
   464  0091                     _SSPCON2bits	set	145
   465  0087                     _TRISCbits	set	135
   466  0094                     _SSPSTAT	set	148
   467  0093                     _SSPADD	set	147
   468  0091                     _SSPCON2	set	145
   469  0085                     _TRISAbits	set	133
   470  0088                     _TRISD	set	136
   471  0086                     _TRISB	set	134
   472  0094                     _SSPSTATbits	set	148
   473  0463                     _SSPIE	set	1123
   474  043C                     _TRISC4	set	1084
   475  043B                     _TRISC3	set	1083
   476  04A0                     _BF	set	1184
   477  0188                     _ANSEL	set	392
   478  0189                     _ANSELH	set	393
   479                           
   480                           ; #config settings
   481  0000                     
   482                           	psect	cinit
   483  0013                     start_initialization:	
   484  0013                     __initialization:	
   485                           
   486                           ; Clear objects allocated to COMMON
   487  0013  01FA               	clrf	__pbssCOMMON& (0+127)
   488  0014  01FB               	clrf	(__pbssCOMMON+1)& (0+127)
   489  0015  01FC               	clrf	(__pbssCOMMON+2)& (0+127)
   490  0016  01FD               	clrf	(__pbssCOMMON+3)& (0+127)
   491                           
   492                           ; Clear objects allocated to BANK0
   493  0017  1283               	bcf	3,5	;RP0=0, select bank0
   494  0018  1303               	bcf	3,6	;RP1=0, select bank0
   495  0019  01E1               	clrf	__pbssBANK0& (0+127)
   496  001A  01E2               	clrf	(__pbssBANK0+1)& (0+127)
   497  001B  01E3               	clrf	(__pbssBANK0+2)& (0+127)
   498  001C  01E4               	clrf	(__pbssBANK0+3)& (0+127)
   499  001D  01E5               	clrf	(__pbssBANK0+4)& (0+127)
   500  001E  01E6               	clrf	(__pbssBANK0+5)& (0+127)
   501  001F  01E7               	clrf	(__pbssBANK0+6)& (0+127)
   502                           
   503                           ; Clear objects allocated to BANK1
   504  0020  1683               	bsf	3,5	;RP0=1, select bank1
   505  0021  1303               	bcf	3,6	;RP1=0, select bank1
   506  0022  01C1               	clrf	__pbssBANK1& (0+127)
   507  0023  01C2               	clrf	(__pbssBANK1+1)& (0+127)
   508  0024  01C3               	clrf	(__pbssBANK1+2)& (0+127)
   509  0025  01C4               	clrf	(__pbssBANK1+3)& (0+127)
   510  0026                     end_of_initialization:	
   511                           ;End of C runtime variable initialization code
   512                           
   513  0026                     __end_of__initialization:	
   514  0026  0183               	clrf	3
   515  0027  120A  158A  2F0B   	ljmp	_main	;jump to C main() function
   516                           
   517                           	psect	bssCOMMON
   518  007A                     __pbssCOMMON:	
   519  007A                     _contador:	
   520  007A                     	ds	1
   521  007B                     _u1:	
   522  007B                     	ds	1
   523  007C                     _d1:	
   524  007C                     	ds	1
   525  007D                     _c1:	
   526  007D                     	ds	1
   527                           
   528                           	psect	bssBANK0
   529  0061                     __pbssBANK0:	
   530  0061                     _temperatura:	
   531  0061                     	ds	4
   532  0065                     _mandar:	
   533  0065                     	ds	1
   534  0066                     _z:	
   535  0066                     	ds	1
   536  0067                     _borrar:	
   537  0067                     	ds	1
   538                           
   539                           	psect	bssBANK1
   540  00C1                     __pbssBANK1:	
   541  00C1                     _temperatura1:	
   542  00C1                     	ds	4
   543                           
   544                           	psect	cstackBANK1
   545  00A0                     __pcstackBANK1:	
   546  00A0                     ??___fltol:	
   547                           
   548                           ; 1 bytes @ 0x0
   549  00A0                     	ds	5
   550  00A5                     ___fltol@sign1:	
   551                           
   552                           ; 1 bytes @ 0x5
   553  00A5                     	ds	1
   554  00A6                     ___fltol@exp1:	
   555                           
   556                           ; 1 bytes @ 0x6
   557  00A6                     	ds	1
   558  00A7                     ?_int_distance:	
   559  00A7                     int_distance@valor:	
   560                           ; 1 bytes @ 0x7
   561                           
   562                           
   563                           ; 4 bytes @ 0x7
   564  00A7                     	ds	4
   565  00AB                     int_distance@v1:	
   566                           
   567                           ; 1 bytes @ 0xB
   568  00AB                     	ds	1
   569  00AC                     int_distance@v2:	
   570                           
   571                           ; 1 bytes @ 0xC
   572  00AC                     	ds	1
   573  00AD                     int_distance@v3:	
   574                           
   575                           ; 1 bytes @ 0xD
   576  00AD                     	ds	1
   577  00AE                     ??_int_distance:	
   578                           
   579                           ; 1 bytes @ 0xE
   580  00AE                     	ds	9
   581  00B7                     int_distance@u:	
   582                           
   583                           ; 1 bytes @ 0x17
   584  00B7                     	ds	1
   585  00B8                     int_distance@d:	
   586                           
   587                           ; 1 bytes @ 0x18
   588  00B8                     	ds	1
   589  00B9                     int_distance@conv:	
   590                           
   591                           ; 4 bytes @ 0x19
   592  00B9                     	ds	4
   593  00BD                     int_distance@c:	
   594                           
   595                           ; 1 bytes @ 0x1D
   596  00BD                     	ds	1
   597  00BE                     ??_main:	
   598                           
   599                           ; 1 bytes @ 0x1E
   600  00BE                     	ds	3
   601                           
   602                           	psect	cstackCOMMON
   603  0070                     __pcstackCOMMON:	
   604  0070                     ?_select:	
   605  0070                     ?_setup:	
   606                           ; 1 bytes @ 0x0
   607                           
   608  0070                     ?_lcd_setup:	
   609                           ; 1 bytes @ 0x0
   610                           
   611  0070                     ?_tSetup:	
   612                           ; 1 bytes @ 0x0
   613                           
   614  0070                     ?_I2C_Slave_Init:	
   615                           ; 1 bytes @ 0x0
   616                           
   617  0070                     ?_isr:	
   618                           ; 1 bytes @ 0x0
   619                           
   620  0070                     ?_main:	
   621                           ; 1 bytes @ 0x0
   622                           
   623  0070                     ?_lcd_command:	
   624                           ; 1 bytes @ 0x0
   625                           
   626  0070                     select@b:	
   627                           ; 1 bytes @ 0x0
   628                           
   629                           
   630                           ; 1 bytes @ 0x0
   631  0070                     	ds	1
   632  0071                     select@c:	
   633                           
   634                           ; 1 bytes @ 0x1
   635  0071                     	ds	1
   636  0072                     select@contador:	
   637                           
   638                           ; 1 bytes @ 0x2
   639  0072                     	ds	1
   640  0073                     select@mandar:	
   641                           
   642                           ; 4 bytes @ 0x3
   643  0073                     	ds	4
   644  0077                     ??_select:	
   645                           
   646                           ; 1 bytes @ 0x7
   647  0077                     	ds	2
   648  0079                     select@a:	
   649                           
   650                           ; 1 bytes @ 0x9
   651  0079                     	ds	1
   652                           
   653                           	psect	cstackBANK0
   654  0020                     __pcstackBANK0:	
   655  0020                     ??_isr:	
   656                           
   657                           ; 1 bytes @ 0x0
   658  0020                     	ds	7
   659  0027                     ??_tSetup:	
   660  0027                     ??_I2C_Slave_Init:	
   661                           ; 1 bytes @ 0x7
   662                           
   663  0027                     ??_lcd_command:	
   664                           ; 1 bytes @ 0x7
   665                           
   666  0027                     ?_tRead:	
   667                           ; 1 bytes @ 0x7
   668                           
   669  0027                     ?___wmul:	
   670                           ; 2 bytes @ 0x7
   671                           
   672  0027                     ?___fladd:	
   673                           ; 2 bytes @ 0x7
   674                           
   675  0027                     I2C_Slave_Init@address:	
   676                           ; 4 bytes @ 0x7
   677                           
   678  0027                     ___wmul@multiplier:	
   679                           ; 1 bytes @ 0x7
   680                           
   681  0027                     ___fladd@b:	
   682                           ; 2 bytes @ 0x7
   683                           
   684                           
   685                           ; 4 bytes @ 0x7
   686  0027                     	ds	2
   687  0029                     ??_tRead:	
   688  0029                     lcd_command@a:	
   689                           ; 1 bytes @ 0x9
   690                           
   691  0029                     ___wmul@multiplicand:	
   692                           ; 1 bytes @ 0x9
   693                           
   694                           
   695                           ; 2 bytes @ 0x9
   696  0029                     	ds	1
   697  002A                     ??_lcd_setup:	
   698                           
   699                           ; 1 bytes @ 0xA
   700  002A                     	ds	1
   701  002B                     ??___wmul:	
   702  002B                     ___wmul@product:	
   703                           ; 1 bytes @ 0xB
   704                           
   705  002B                     ___fladd@a:	
   706                           ; 2 bytes @ 0xB
   707                           
   708                           
   709                           ; 4 bytes @ 0xB
   710  002B                     	ds	1
   711  002C                     ??_setup:	
   712                           
   713                           ; 1 bytes @ 0xC
   714  002C                     	ds	1
   715  002D                     ?___xxtofl:	
   716  002D                     tRead@i:	
   717                           ; 4 bytes @ 0xD
   718                           
   719  002D                     ___xxtofl@val:	
   720                           ; 1 bytes @ 0xD
   721                           
   722                           
   723                           ; 4 bytes @ 0xD
   724  002D                     	ds	1
   725  002E                     tRead@valor:	
   726                           
   727                           ; 2 bytes @ 0xE
   728  002E                     	ds	1
   729  002F                     ??___fladd:	
   730                           
   731                           ; 1 bytes @ 0xF
   732  002F                     	ds	2
   733  0031                     ??___xxtofl:	
   734                           
   735                           ; 1 bytes @ 0x11
   736  0031                     	ds	4
   737  0035                     ___xxtofl@sign:	
   738                           
   739                           ; 1 bytes @ 0x15
   740  0035                     	ds	1
   741  0036                     ___xxtofl@exp:	
   742                           
   743                           ; 1 bytes @ 0x16
   744  0036                     	ds	1
   745  0037                     ___fladd@signs:	
   746  0037                     ___xxtofl@arg:	
   747                           ; 1 bytes @ 0x17
   748                           
   749                           
   750                           ; 4 bytes @ 0x17
   751  0037                     	ds	1
   752  0038                     ___fladd@aexp:	
   753                           
   754                           ; 1 bytes @ 0x18
   755  0038                     	ds	1
   756  0039                     ___fladd@bexp:	
   757                           
   758                           ; 1 bytes @ 0x19
   759  0039                     	ds	1
   760  003A                     ___fladd@grs:	
   761                           
   762                           ; 1 bytes @ 0x1A
   763  003A                     	ds	1
   764  003B                     ?___fldiv:	
   765  003B                     ___fldiv@a:	
   766                           ; 4 bytes @ 0x1B
   767                           
   768                           
   769                           ; 4 bytes @ 0x1B
   770  003B                     	ds	4
   771  003F                     ___fldiv@b:	
   772                           
   773                           ; 4 bytes @ 0x1F
   774  003F                     	ds	4
   775  0043                     ??___fldiv:	
   776                           
   777                           ; 1 bytes @ 0x23
   778  0043                     	ds	5
   779  0048                     ___fldiv@rem:	
   780                           
   781                           ; 4 bytes @ 0x28
   782  0048                     	ds	4
   783  004C                     ___fldiv@sign:	
   784                           
   785                           ; 1 bytes @ 0x2C
   786  004C                     	ds	1
   787  004D                     ___fldiv@new_exp:	
   788                           
   789                           ; 2 bytes @ 0x2D
   790  004D                     	ds	2
   791  004F                     ___fldiv@grs:	
   792                           
   793                           ; 4 bytes @ 0x2F
   794  004F                     	ds	4
   795  0053                     ___fldiv@bexp:	
   796                           
   797                           ; 1 bytes @ 0x33
   798  0053                     	ds	1
   799  0054                     ___fldiv@aexp:	
   800                           
   801                           ; 1 bytes @ 0x34
   802  0054                     	ds	1
   803  0055                     ?___flsub:	
   804  0055                     ___flsub@a:	
   805                           ; 4 bytes @ 0x35
   806                           
   807                           
   808                           ; 4 bytes @ 0x35
   809  0055                     	ds	4
   810  0059                     ___flsub@b:	
   811                           
   812                           ; 4 bytes @ 0x39
   813  0059                     	ds	4
   814  005D                     ??___flsub:	
   815  005D                     ?___fltol:	
   816                           ; 1 bytes @ 0x3D
   817                           
   818  005D                     ___fltol@f1:	
   819                           ; 4 bytes @ 0x3D
   820                           
   821                           
   822                           ; 4 bytes @ 0x3D
   823  005D                     	ds	4
   824                           
   825                           	psect	maintext
   826  0F0B                     __pmaintext:	
   827 ;;
   828 ;;Main: autosize = 0, tempsize = 3, incstack = 0, save=0
   829 ;;
   830 ;; *************** function _main *****************
   831 ;; Defined at:
   832 ;;		line 86 in file "main.c"
   833 ;; Parameters:    Size  Location     Type
   834 ;;		None
   835 ;; Auto vars:     Size  Location     Type
   836 ;;		None
   837 ;; Return value:  Size  Location     Type
   838 ;;                  1    wreg      void 
   839 ;; Registers used:
   840 ;;		wreg, fsr0l, fsr0h, status,2, status,0, btemp+1, pclath, cstack
   841 ;; Tracked objects:
   842 ;;		On entry : B00/0
   843 ;;		On exit  : 0/0
   844 ;;		Unchanged: 0/0
   845 ;; Data sizes:     COMMON   BANK0   BANK1   BANK3   BANK2
   846 ;;      Params:         0       0       0       0       0
   847 ;;      Locals:         0       0       0       0       0
   848 ;;      Temps:          0       0       3       0       0
   849 ;;      Totals:         0       0       3       0       0
   850 ;;Total ram usage:        3 bytes
   851 ;; Hardware stack levels required when called:    5
   852 ;; This function calls:
   853 ;;		_int_distance
   854 ;;		_setup
   855 ;;		_tRead
   856 ;; This function is called by:
   857 ;;		Startup code after reset
   858 ;; This function uses a non-reentrant model
   859 ;;
   860                           
   861                           
   862                           ;psect for function _main
   863  0F0B                     _main:	
   864  0F0B                     l2198:	
   865                           ;incstack = 0
   866                           ; Regs used in _main: [wreg-fsr0h+status,2+status,0+btemp+1+pclath+cstack]
   867                           
   868                           
   869                           ;main.c: 87:     setup();
   870  0F0B  120A  158A  25AD  120A  158A  	fcall	_setup
   871  0F10                     l67:	
   872                           ;main.c: 88:     while(1){
   873                           
   874                           
   875                           ;main.c: 90:         temperatura = tRead();
   876  0F10  120A  158A  26A2  120A  158A  	fcall	_tRead
   877  0F15  1283               	bcf	3,5	;RP0=0, select bank0
   878  0F16  1303               	bcf	3,6	;RP1=0, select bank0
   879  0F17  0827               	movf	?_tRead,w
   880  0F18  00E1               	movwf	_temperatura
   881  0F19  0828               	movf	?_tRead+1,w
   882  0F1A  00E2               	movwf	_temperatura+1
   883  0F1B  01E3               	clrf	_temperatura+2
   884  0F1C  01E4               	clrf	_temperatura+3
   885  0F1D                     l2200:	
   886                           
   887                           ;main.c: 91:         int_distance(temperatura1, &c1, &d1, &u1);
   888  0F1D  1683               	bsf	3,5	;RP0=1, select bank1
   889  0F1E  1303               	bcf	3,6	;RP1=0, select bank1
   890  0F1F  0844               	movf	(_temperatura1+3)^(0+128),w
   891  0F20  00AA               	movwf	(int_distance@valor+3)^(0+128)
   892  0F21  0843               	movf	(_temperatura1+2)^(0+128),w
   893  0F22  00A9               	movwf	(int_distance@valor+2)^(0+128)
   894  0F23  0842               	movf	(_temperatura1+1)^(0+128),w
   895  0F24  00A8               	movwf	(int_distance@valor+1)^(0+128)
   896  0F25  0841               	movf	_temperatura1^(0+128),w
   897  0F26  00A7               	movwf	int_distance@valor^(0+128)
   898  0F27  307D               	movlw	(low (_c1| 0))& (0+255)
   899  0F28  00BE               	movwf	??_main^(0+128)
   900  0F29  083E               	movf	??_main^(0+128),w
   901  0F2A  00AB               	movwf	int_distance@v1^(0+128)
   902  0F2B  307C               	movlw	(low (_d1| 0))& (0+255)
   903  0F2C  00BF               	movwf	(??_main+1)^(0+128)
   904  0F2D  083F               	movf	(??_main+1)^(0+128),w
   905  0F2E  00AC               	movwf	int_distance@v2^(0+128)
   906  0F2F  307B               	movlw	(low (_u1| 0))& (0+255)
   907  0F30  00C0               	movwf	(??_main+2)^(0+128)
   908  0F31  0840               	movf	(??_main+2)^(0+128),w
   909  0F32  00AD               	movwf	int_distance@v3^(0+128)
   910  0F33  120A  118A  248F  120A  158A  	fcall	_int_distance
   911  0F38                     l2202:	
   912                           
   913                           ;main.c: 92:         if (contador==0){
   914  0F38  087A               	movf	_contador,w
   915  0F39  1D03               	btfss	3,2
   916  0F3A  2F3C               	goto	u2621
   917  0F3B  2F3D               	goto	u2620
   918  0F3C                     u2621:	
   919  0F3C  2F64               	goto	l68
   920  0F3D                     u2620:	
   921  0F3D                     l2204:	
   922                           
   923                           ;main.c: 93:             if(temperatura != -100){
   924  0F3D  309C               	movlw	156
   925  0F3E  1283               	bcf	3,5	;RP0=0, select bank0
   926  0F3F  1303               	bcf	3,6	;RP1=0, select bank0
   927  0F40  0661               	xorwf	_temperatura,w
   928  0F41  1D03               	skipz
   929  0F42  2F4E               	goto	u2630
   930  0F43  0A62               	incf	_temperatura+1,w
   931  0F44  1D03               	skipz
   932  0F45  2F4E               	goto	u2630
   933  0F46  0A63               	incf	_temperatura+2,w
   934  0F47  1D03               	skipz
   935  0F48  2F4E               	goto	u2630
   936  0F49  0A64               	incf	_temperatura+3,w
   937  0F4A  1903               	btfsc	3,2
   938  0F4B  2F4D               	goto	u2631
   939  0F4C  2F4E               	goto	u2630
   940  0F4D                     u2631:	
   941  0F4D  2F64               	goto	l68
   942  0F4E                     u2630:	
   943  0F4E                     l2206:	
   944                           
   945                           ;main.c: 94:                 temperatura1 = temperatura;
   946  0F4E  0864               	movf	_temperatura+3,w
   947  0F4F  1683               	bsf	3,5	;RP0=1, select bank1
   948  0F50  1303               	bcf	3,6	;RP1=0, select bank1
   949  0F51  00C4               	movwf	(_temperatura1+3)^(0+128)
   950  0F52  1283               	bcf	3,5	;RP0=0, select bank0
   951  0F53  1303               	bcf	3,6	;RP1=0, select bank0
   952  0F54  0863               	movf	_temperatura+2,w
   953  0F55  1683               	bsf	3,5	;RP0=1, select bank1
   954  0F56  1303               	bcf	3,6	;RP1=0, select bank1
   955  0F57  00C3               	movwf	(_temperatura1+2)^(0+128)
   956  0F58  1283               	bcf	3,5	;RP0=0, select bank0
   957  0F59  1303               	bcf	3,6	;RP1=0, select bank0
   958  0F5A  0862               	movf	_temperatura+1,w
   959  0F5B  1683               	bsf	3,5	;RP0=1, select bank1
   960  0F5C  1303               	bcf	3,6	;RP1=0, select bank1
   961  0F5D  00C2               	movwf	(_temperatura1+1)^(0+128)
   962  0F5E  1283               	bcf	3,5	;RP0=0, select bank0
   963  0F5F  1303               	bcf	3,6	;RP1=0, select bank0
   964  0F60  0861               	movf	_temperatura,w
   965  0F61  1683               	bsf	3,5	;RP0=1, select bank1
   966  0F62  1303               	bcf	3,6	;RP1=0, select bank1
   967  0F63  00C1               	movwf	_temperatura1^(0+128)
   968  0F64                     l68:	
   969                           ;main.c: 96:         }
   970                           
   971                           
   972                           ;main.c: 108:         _delay((unsigned long)((250)*(4000000/4000.0)));
   973  0F64  3002               	movlw	2
   974  0F65  1683               	bsf	3,5	;RP0=1, select bank1
   975  0F66  1303               	bcf	3,6	;RP1=0, select bank1
   976  0F67  00C0               	movwf	(??_main^(0+128)+2)
   977  0F68  3045               	movlw	69
   978  0F69  00BF               	movwf	(??_main^(0+128)+1)
   979  0F6A  30A9               	movlw	169
   980  0F6B  00BE               	movwf	??_main^(0+128)
   981  0F6C                     u2647:	
   982  0F6C  0BBE               	decfsz	??_main^(0+128),f
   983  0F6D  2F6C               	goto	u2647
   984  0F6E  0BBF               	decfsz	(??_main^(0+128)+1),f
   985  0F6F  2F6C               	goto	u2647
   986  0F70  0BC0               	decfsz	(??_main^(0+128)+2),f
   987  0F71  2F6C               	goto	u2647
   988  0F72  2F10               	goto	l67
   989  0F73  120A  118A  2810   	ljmp	start
   990  0F76                     __end_of_main:	
   991                           
   992                           	psect	text1
   993  0EA2                     __ptext1:	
   994 ;; *************** function _tRead *****************
   995 ;; Defined at:
   996 ;;		line 26 in file "temperatura.c"
   997 ;; Parameters:    Size  Location     Type
   998 ;;		None
   999 ;; Auto vars:     Size  Location     Type
  1000 ;;  valor           2   14[BANK0 ] unsigned int 
  1001 ;;  i               1   13[BANK0 ] unsigned char 
  1002 ;;  v               1    0        unsigned char 
  1003 ;; Return value:  Size  Location     Type
  1004 ;;                  2    7[BANK0 ] unsigned int 
  1005 ;; Registers used:
  1006 ;;		wreg, status,2, status,0
  1007 ;; Tracked objects:
  1008 ;;		On entry : 0/0
  1009 ;;		On exit  : 0/0
  1010 ;;		Unchanged: 0/0
  1011 ;; Data sizes:     COMMON   BANK0   BANK1   BANK3   BANK2
  1012 ;;      Params:         0       2       0       0       0
  1013 ;;      Locals:         0       3       0       0       0
  1014 ;;      Temps:          0       4       0       0       0
  1015 ;;      Totals:         0       9       0       0       0
  1016 ;;Total ram usage:        9 bytes
  1017 ;; Hardware stack levels used:    1
  1018 ;; Hardware stack levels required when called:    2
  1019 ;; This function calls:
  1020 ;;		Nothing
  1021 ;; This function is called by:
  1022 ;;		_main
  1023 ;; This function uses a non-reentrant model
  1024 ;;
  1025                           
  1026                           
  1027                           ;psect for function _tRead
  1028  0EA2                     _tRead:	
  1029  0EA2                     l2030:	
  1030                           ;incstack = 0
  1031                           ; Regs used in _tRead: [wreg+status,2+status,0]
  1032                           
  1033                           
  1034                           ;temperatura.c: 27:     uint8_t i;;temperatura.c: 28:     uint8_t v;;temperatura.c: 29: 
      +                              uint16_t valor=0;
  1035  0EA2  1283               	bcf	3,5	;RP0=0, select bank0
  1036  0EA3  1303               	bcf	3,6	;RP1=0, select bank0
  1037  0EA4  01AE               	clrf	tRead@valor
  1038  0EA5  01AF               	clrf	tRead@valor+1
  1039  0EA6                     l2032:	
  1040                           
  1041                           ;temperatura.c: 30:     PORTAbits.RA1 = 0;
  1042  0EA6  1085               	bcf	5,1	;volatile
  1043  0EA7                     l2034:	
  1044                           
  1045                           ;temperatura.c: 31:     _delay((unsigned long)((1)*(4000000/4000.0)));
  1046  0EA7  30C7               	movlw	199
  1047  0EA8  1283               	bcf	3,5	;RP0=0, select bank0
  1048  0EA9  1303               	bcf	3,6	;RP1=0, select bank0
  1049  0EAA  00A9               	movwf	??_tRead
  1050  0EAB                     u2657:	
  1051  0EAB  2EAC               	nop2
  1052  0EAC  0BA9               	decfsz	??_tRead,f
  1053  0EAD  2EAB               	goto	u2657
  1054  0EAE  2EAF               	nop2
  1055  0EAF                     l2036:	
  1056                           
  1057                           ;temperatura.c: 33:     for (i=0;i<16;i++){
  1058  0EAF  1283               	bcf	3,5	;RP0=0, select bank0
  1059  0EB0  1303               	bcf	3,6	;RP1=0, select bank0
  1060  0EB1  01AD               	clrf	tRead@i
  1061  0EB2                     l144:	
  1062                           
  1063                           ;temperatura.c: 34:         PORTAbits.RA0 = 1;
  1064  0EB2  1405               	bsf	5,0	;volatile
  1065  0EB3                     l2040:	
  1066                           
  1067                           ;temperatura.c: 35:         _delay((unsigned long)((1)*(4000000/4000.0)));
  1068  0EB3  30C7               	movlw	199
  1069  0EB4  1283               	bcf	3,5	;RP0=0, select bank0
  1070  0EB5  1303               	bcf	3,6	;RP1=0, select bank0
  1071  0EB6  00A9               	movwf	??_tRead
  1072  0EB7                     u2667:	
  1073  0EB7  2EB8               	nop2
  1074  0EB8  0BA9               	decfsz	??_tRead,f
  1075  0EB9  2EB7               	goto	u2667
  1076  0EBA  2EBB               	nop2
  1077  0EBB                     l2042:	
  1078                           
  1079                           ;temperatura.c: 37:         valor = valor|PORTAbits.RA2;
  1080  0EBB  1283               	bcf	3,5	;RP0=0, select bank0
  1081  0EBC  1303               	bcf	3,6	;RP1=0, select bank0
  1082  0EBD  0C05               	rrf	5,w	;volatile
  1083  0EBE  00A9               	movwf	??_tRead
  1084  0EBF  0C29               	rrf	??_tRead,w
  1085  0EC0  3901               	andlw	1
  1086  0EC1  00AA               	movwf	??_tRead+1
  1087  0EC2  082E               	movf	tRead@valor,w
  1088  0EC3  042A               	iorwf	??_tRead+1,w
  1089  0EC4  00AB               	movwf	??_tRead+2
  1090  0EC5  082F               	movf	tRead@valor+1,w
  1091  0EC6  00AC               	movwf	??_tRead+3
  1092  0EC7  082B               	movf	??_tRead+2,w
  1093  0EC8  00AE               	movwf	tRead@valor
  1094  0EC9  082C               	movf	??_tRead+3,w
  1095  0ECA  00AF               	movwf	tRead@valor+1
  1096  0ECB                     l2044:	
  1097                           
  1098                           ;temperatura.c: 38:         valor <<= 1;
  1099  0ECB  3001               	movlw	1
  1100  0ECC                     u2355:	
  1101  0ECC  1003               	clrc
  1102  0ECD  0DAE               	rlf	tRead@valor,f
  1103  0ECE  0DAF               	rlf	tRead@valor+1,f
  1104  0ECF  3EFF               	addlw	-1
  1105  0ED0  1D03               	skipz
  1106  0ED1  2ECC               	goto	u2355
  1107  0ED2                     l2046:	
  1108                           
  1109                           ;temperatura.c: 39:         PORTAbits.RA0 = 0;
  1110  0ED2  1005               	bcf	5,0	;volatile
  1111  0ED3                     l2048:	
  1112                           
  1113                           ;temperatura.c: 40:         _delay((unsigned long)((1)*(4000000/4000.0)));
  1114  0ED3  30C7               	movlw	199
  1115  0ED4  1283               	bcf	3,5	;RP0=0, select bank0
  1116  0ED5  1303               	bcf	3,6	;RP1=0, select bank0
  1117  0ED6  00A9               	movwf	??_tRead
  1118  0ED7                     u2677:	
  1119  0ED7  2ED8               	nop2
  1120  0ED8  0BA9               	decfsz	??_tRead,f
  1121  0ED9  2ED7               	goto	u2677
  1122  0EDA  2EDB               	nop2
  1123  0EDB                     l2050:	
  1124                           
  1125                           ;temperatura.c: 41:     }
  1126  0EDB  3001               	movlw	1
  1127  0EDC  1283               	bcf	3,5	;RP0=0, select bank0
  1128  0EDD  1303               	bcf	3,6	;RP1=0, select bank0
  1129  0EDE  00A9               	movwf	??_tRead
  1130  0EDF  0829               	movf	??_tRead,w
  1131  0EE0  07AD               	addwf	tRead@i,f
  1132  0EE1  3010               	movlw	16
  1133  0EE2  022D               	subwf	tRead@i,w
  1134  0EE3  1C03               	skipc
  1135  0EE4  2EE6               	goto	u2361
  1136  0EE5  2EE7               	goto	u2360
  1137  0EE6                     u2361:	
  1138  0EE6  2EB2               	goto	l144
  1139  0EE7                     u2360:	
  1140  0EE7                     l145:	
  1141                           
  1142                           ;temperatura.c: 43:     PORTAbits.RA1 = 1;
  1143  0EE7  1485               	bsf	5,1	;volatile
  1144                           
  1145                           ;temperatura.c: 44:     if (valor & 0x4) {
  1146  0EE8  1D2E               	btfss	tRead@valor,2
  1147  0EE9  2EEB               	goto	u2371
  1148  0EEA  2EEC               	goto	u2370
  1149  0EEB                     u2371:	
  1150  0EEB  2EF1               	goto	l2056
  1151  0EEC                     u2370:	
  1152  0EEC                     l2052:	
  1153                           
  1154                           ;temperatura.c: 47:         return -100;
  1155  0EEC  309C               	movlw	156
  1156  0EED  00A7               	movwf	?_tRead
  1157  0EEE  30FF               	movlw	255
  1158  0EEF  00A8               	movwf	?_tRead+1
  1159  0EF0  2F0A               	goto	l147
  1160  0EF1                     l2056:	
  1161                           
  1162                           ;temperatura.c: 50:     valor >>= 3;
  1163  0EF1  3003               	movlw	3
  1164  0EF2                     u2385:	
  1165  0EF2  1003               	clrc
  1166  0EF3  0CAF               	rrf	tRead@valor+1,f
  1167  0EF4  0CAE               	rrf	tRead@valor,f
  1168  0EF5  3EFF               	addlw	-1
  1169  0EF6  1D03               	skipz
  1170  0EF7  2EF2               	goto	u2385
  1171                           
  1172                           ;temperatura.c: 51:     valor = valor/4;
  1173  0EF8  082F               	movf	tRead@valor+1,w
  1174  0EF9  00AA               	movwf	??_tRead+1
  1175  0EFA  082E               	movf	tRead@valor,w
  1176  0EFB  00A9               	movwf	??_tRead
  1177  0EFC  1003               	clrc
  1178  0EFD  0CAA               	rrf	??_tRead+1,f
  1179  0EFE  0CA9               	rrf	??_tRead,f
  1180  0EFF  1003               	clrc
  1181  0F00  0CAA               	rrf	??_tRead+1,f
  1182  0F01  0CA9               	rrf	??_tRead,f
  1183  0F02  0829               	movf	??_tRead,w
  1184  0F03  00AE               	movwf	tRead@valor
  1185  0F04  082A               	movf	??_tRead+1,w
  1186  0F05  00AF               	movwf	tRead@valor+1
  1187  0F06                     l2058:	
  1188                           
  1189                           ;temperatura.c: 52:     return valor;
  1190  0F06  082F               	movf	tRead@valor+1,w
  1191  0F07  00A8               	movwf	?_tRead+1
  1192  0F08  082E               	movf	tRead@valor,w
  1193  0F09  00A7               	movwf	?_tRead
  1194  0F0A                     l147:	
  1195  0F0A  0008               	return
  1196  0F0B                     __end_of_tRead:	
  1197                           
  1198                           	psect	text2
  1199  0DAD                     __ptext2:	
  1200 ;; *************** function _setup *****************
  1201 ;; Defined at:
  1202 ;;		line 113 in file "main.c"
  1203 ;; Parameters:    Size  Location     Type
  1204 ;;		None
  1205 ;; Auto vars:     Size  Location     Type
  1206 ;;		None
  1207 ;; Return value:  Size  Location     Type
  1208 ;;                  1    wreg      void 
  1209 ;; Registers used:
  1210 ;;		wreg, status,2, status,0, pclath, cstack
  1211 ;; Tracked objects:
  1212 ;;		On entry : 0/0
  1213 ;;		On exit  : 0/0
  1214 ;;		Unchanged: 0/0
  1215 ;; Data sizes:     COMMON   BANK0   BANK1   BANK3   BANK2
  1216 ;;      Params:         0       0       0       0       0
  1217 ;;      Locals:         0       0       0       0       0
  1218 ;;      Temps:          0       0       0       0       0
  1219 ;;      Totals:         0       0       0       0       0
  1220 ;;Total ram usage:        0 bytes
  1221 ;; Hardware stack levels used:    1
  1222 ;; Hardware stack levels required when called:    4
  1223 ;; This function calls:
  1224 ;;		_I2C_Slave_Init
  1225 ;;		_lcd_setup
  1226 ;;		_tSetup
  1227 ;; This function is called by:
  1228 ;;		_main
  1229 ;; This function uses a non-reentrant model
  1230 ;;
  1231                           
  1232                           
  1233                           ;psect for function _setup
  1234  0DAD                     _setup:	
  1235  0DAD                     l2026:	
  1236                           ;incstack = 0
  1237                           ; Regs used in _setup: [wreg+status,2+status,0+pclath+cstack]
  1238                           
  1239                           
  1240                           ;main.c: 114:     lcd_setup();
  1241  0DAD  120A  158A  2656  120A  158A  	fcall	_lcd_setup
  1242                           
  1243                           ;main.c: 115:     tSetup();
  1244  0DB2  120A  158A  25D5  120A  158A  	fcall	_tSetup
  1245                           
  1246                           ;main.c: 117:     I2C_Slave_Init(0x30);
  1247  0DB7  3030               	movlw	48
  1248  0DB8  120A  158A  25EF  120A  158A  	fcall	_I2C_Slave_Init
  1249  0DBD                     l75:	
  1250  0DBD  0008               	return
  1251  0DBE                     __end_of_setup:	
  1252                           
  1253                           	psect	text3
  1254  0DD5                     __ptext3:	
  1255 ;; *************** function _tSetup *****************
  1256 ;; Defined at:
  1257 ;;		line 15 in file "temperatura.c"
  1258 ;; Parameters:    Size  Location     Type
  1259 ;;		None
  1260 ;; Auto vars:     Size  Location     Type
  1261 ;;		None
  1262 ;; Return value:  Size  Location     Type
  1263 ;;                  1    wreg      void 
  1264 ;; Registers used:
  1265 ;;		wreg, status,2
  1266 ;; Tracked objects:
  1267 ;;		On entry : 0/0
  1268 ;;		On exit  : 0/0
  1269 ;;		Unchanged: 0/0
  1270 ;; Data sizes:     COMMON   BANK0   BANK1   BANK3   BANK2
  1271 ;;      Params:         0       0       0       0       0
  1272 ;;      Locals:         0       0       0       0       0
  1273 ;;      Temps:          0       3       0       0       0
  1274 ;;      Totals:         0       3       0       0       0
  1275 ;;Total ram usage:        3 bytes
  1276 ;; Hardware stack levels used:    1
  1277 ;; Hardware stack levels required when called:    2
  1278 ;; This function calls:
  1279 ;;		Nothing
  1280 ;; This function is called by:
  1281 ;;		_setup
  1282 ;; This function uses a non-reentrant model
  1283 ;;
  1284                           
  1285                           
  1286                           ;psect for function _tSetup
  1287  0DD5                     _tSetup:	
  1288  0DD5                     l1726:	
  1289                           ;incstack = 0
  1290                           ; Regs used in _tSetup: [wreg+status,2]
  1291                           
  1292                           
  1293                           ;temperatura.c: 16:     TRISAbits.TRISA0 = 0;
  1294  0DD5  1683               	bsf	3,5	;RP0=1, select bank1
  1295  0DD6  1303               	bcf	3,6	;RP1=0, select bank1
  1296  0DD7  1005               	bcf	5,0	;volatile
  1297                           
  1298                           ;temperatura.c: 17:     TRISAbits.TRISA1 = 0;
  1299  0DD8  1085               	bcf	5,1	;volatile
  1300                           
  1301                           ;temperatura.c: 18:     TRISAbits.TRISA2 = 1;
  1302  0DD9  1505               	bsf	5,2	;volatile
  1303  0DDA                     l1728:	
  1304                           
  1305                           ;temperatura.c: 19:     ANSEL = 0;
  1306  0DDA  1683               	bsf	3,5	;RP0=1, select bank3
  1307  0DDB  1703               	bsf	3,6	;RP1=1, select bank3
  1308  0DDC  0188               	clrf	8	;volatile
  1309  0DDD                     l1730:	
  1310                           
  1311                           ;temperatura.c: 20:     PORTAbits.RA1 = 1;
  1312  0DDD  1283               	bcf	3,5	;RP0=0, select bank0
  1313  0DDE  1303               	bcf	3,6	;RP1=0, select bank0
  1314  0DDF  1485               	bsf	5,1	;volatile
  1315  0DE0                     l1732:	
  1316                           
  1317                           ;temperatura.c: 21:     _delay((unsigned long)((1000)*(4000000/4000.0)));
  1318  0DE0  3006               	movlw	6
  1319  0DE1  1283               	bcf	3,5	;RP0=0, select bank0
  1320  0DE2  1303               	bcf	3,6	;RP1=0, select bank0
  1321  0DE3  00A9               	movwf	??_tSetup+2
  1322  0DE4  3013               	movlw	19
  1323  0DE5  00A8               	movwf	??_tSetup+1
  1324  0DE6  30AD               	movlw	173
  1325  0DE7  00A7               	movwf	??_tSetup
  1326  0DE8                     u2687:	
  1327  0DE8  0BA7               	decfsz	??_tSetup,f
  1328  0DE9  2DE8               	goto	u2687
  1329  0DEA  0BA8               	decfsz	??_tSetup+1,f
  1330  0DEB  2DE8               	goto	u2687
  1331  0DEC  0BA9               	decfsz	??_tSetup+2,f
  1332  0DED  2DE8               	goto	u2687
  1333  0DEE                     l141:	
  1334  0DEE  0008               	return
  1335  0DEF                     __end_of_tSetup:	
  1336                           
  1337                           	psect	text4
  1338  0E56                     __ptext4:	
  1339 ;; *************** function _lcd_setup *****************
  1340 ;; Defined at:
  1341 ;;		line 66 in file "LCD.c"
  1342 ;; Parameters:    Size  Location     Type
  1343 ;;		None
  1344 ;; Auto vars:     Size  Location     Type
  1345 ;;		None
  1346 ;; Return value:  Size  Location     Type
  1347 ;;                  1    wreg      void 
  1348 ;; Registers used:
  1349 ;;		wreg, status,2, status,0, pclath, cstack
  1350 ;; Tracked objects:
  1351 ;;		On entry : 0/0
  1352 ;;		On exit  : 0/0
  1353 ;;		Unchanged: 0/0
  1354 ;; Data sizes:     COMMON   BANK0   BANK1   BANK3   BANK2
  1355 ;;      Params:         0       0       0       0       0
  1356 ;;      Locals:         0       0       0       0       0
  1357 ;;      Temps:          0       2       0       0       0
  1358 ;;      Totals:         0       2       0       0       0
  1359 ;;Total ram usage:        2 bytes
  1360 ;; Hardware stack levels used:    1
  1361 ;; Hardware stack levels required when called:    3
  1362 ;; This function calls:
  1363 ;;		_lcd_command
  1364 ;; This function is called by:
  1365 ;;		_setup
  1366 ;; This function uses a non-reentrant model
  1367 ;;
  1368                           
  1369                           
  1370                           ;psect for function _lcd_setup
  1371  0E56                     _lcd_setup:	
  1372  0E56                     l1706:	
  1373                           ;incstack = 0
  1374                           ; Regs used in _lcd_setup: [wreg+status,2+status,0+pclath+cstack]
  1375                           
  1376                           
  1377                           ;LCD.c: 67:     TRISB = 0x00;
  1378  0E56  1683               	bsf	3,5	;RP0=1, select bank1
  1379  0E57  1303               	bcf	3,6	;RP1=0, select bank1
  1380  0E58  0186               	clrf	6	;volatile
  1381                           
  1382                           ;LCD.c: 68:     ANSELH = 0x00;
  1383  0E59  1683               	bsf	3,5	;RP0=1, select bank3
  1384  0E5A  1703               	bsf	3,6	;RP1=1, select bank3
  1385  0E5B  0189               	clrf	9	;volatile
  1386                           
  1387                           ;LCD.c: 69:     TRISD = 0x00;
  1388  0E5C  1683               	bsf	3,5	;RP0=1, select bank1
  1389  0E5D  1303               	bcf	3,6	;RP1=0, select bank1
  1390  0E5E  0188               	clrf	8	;volatile
  1391  0E5F                     l1708:	
  1392                           
  1393                           ;LCD.c: 70:     _delay((unsigned long)((16)*(4000000/4000.0)));
  1394  0E5F  3015               	movlw	21
  1395  0E60  1283               	bcf	3,5	;RP0=0, select bank0
  1396  0E61  1303               	bcf	3,6	;RP1=0, select bank0
  1397  0E62  00AB               	movwf	??_lcd_setup+1
  1398  0E63  30C5               	movlw	197
  1399  0E64  00AA               	movwf	??_lcd_setup
  1400  0E65                     u2697:	
  1401  0E65  0BAA               	decfsz	??_lcd_setup,f
  1402  0E66  2E65               	goto	u2697
  1403  0E67  0BAB               	decfsz	??_lcd_setup+1,f
  1404  0E68  2E65               	goto	u2697
  1405  0E69  2E6A               	nop2
  1406  0E6A                     l1710:	
  1407                           
  1408                           ;LCD.c: 71:     lcd_command(0x03);
  1409  0E6A  3003               	movlw	3
  1410  0E6B  120A  158A  25BE  120A  158A  	fcall	_lcd_command
  1411  0E70                     l1712:	
  1412                           
  1413                           ;LCD.c: 72:     _delay((unsigned long)((4.2)*(4000000/4000.0)));
  1414  0E70  3006               	movlw	6
  1415  0E71  1283               	bcf	3,5	;RP0=0, select bank0
  1416  0E72  1303               	bcf	3,6	;RP1=0, select bank0
  1417  0E73  00AB               	movwf	??_lcd_setup+1
  1418  0E74  3072               	movlw	114
  1419  0E75  00AA               	movwf	??_lcd_setup
  1420  0E76                     u2707:	
  1421  0E76  0BAA               	decfsz	??_lcd_setup,f
  1422  0E77  2E76               	goto	u2707
  1423  0E78  0BAB               	decfsz	??_lcd_setup+1,f
  1424  0E79  2E76               	goto	u2707
  1425  0E7A  0000               	nop
  1426  0E7B                     l1714:	
  1427                           
  1428                           ;LCD.c: 73:     lcd_command(0x03);
  1429  0E7B  3003               	movlw	3
  1430  0E7C  120A  158A  25BE  120A  158A  	fcall	_lcd_command
  1431  0E81                     l1716:	
  1432                           
  1433                           ;LCD.c: 74:     _delay((unsigned long)((1)*(4000000/4000.0)));
  1434  0E81  30C7               	movlw	199
  1435  0E82  1283               	bcf	3,5	;RP0=0, select bank0
  1436  0E83  1303               	bcf	3,6	;RP1=0, select bank0
  1437  0E84  00AA               	movwf	??_lcd_setup
  1438  0E85                     u2717:	
  1439  0E85  2E86               	nop2
  1440  0E86  0BAA               	decfsz	??_lcd_setup,f
  1441  0E87  2E85               	goto	u2717
  1442  0E88  2E89               	nop2
  1443  0E89                     l1718:	
  1444                           
  1445                           ;LCD.c: 75:     lcd_command(0x03);
  1446  0E89  3003               	movlw	3
  1447  0E8A  120A  158A  25BE  120A  158A  	fcall	_lcd_command
  1448  0E8F                     l1720:	
  1449                           
  1450                           ;LCD.c: 76:     lcd_command(0x38);
  1451  0E8F  3038               	movlw	56
  1452  0E90  120A  158A  25BE  120A  158A  	fcall	_lcd_command
  1453  0E95                     l1722:	
  1454                           
  1455                           ;LCD.c: 77:     lcd_command(0x0C);
  1456  0E95  300C               	movlw	12
  1457  0E96  120A  158A  25BE  120A  158A  	fcall	_lcd_command
  1458  0E9B                     l1724:	
  1459                           
  1460                           ;LCD.c: 78:     lcd_command(0x06);
  1461  0E9B  3006               	movlw	6
  1462  0E9C  120A  158A  25BE  120A  158A  	fcall	_lcd_command
  1463  0EA1                     l130:	
  1464  0EA1  0008               	return
  1465  0EA2                     __end_of_lcd_setup:	
  1466                           
  1467                           	psect	text5
  1468  0DBE                     __ptext5:	
  1469 ;; *************** function _lcd_command *****************
  1470 ;; Defined at:
  1471 ;;		line 16 in file "LCD.c"
  1472 ;; Parameters:    Size  Location     Type
  1473 ;;  a               1    wreg     unsigned char 
  1474 ;; Auto vars:     Size  Location     Type
  1475 ;;  a               1    9[BANK0 ] unsigned char 
  1476 ;; Return value:  Size  Location     Type
  1477 ;;                  1    wreg      void 
  1478 ;; Registers used:
  1479 ;;		wreg
  1480 ;; Tracked objects:
  1481 ;;		On entry : 0/0
  1482 ;;		On exit  : 0/0
  1483 ;;		Unchanged: 0/0
  1484 ;; Data sizes:     COMMON   BANK0   BANK1   BANK3   BANK2
  1485 ;;      Params:         0       0       0       0       0
  1486 ;;      Locals:         0       1       0       0       0
  1487 ;;      Temps:          0       2       0       0       0
  1488 ;;      Totals:         0       3       0       0       0
  1489 ;;Total ram usage:        3 bytes
  1490 ;; Hardware stack levels used:    1
  1491 ;; Hardware stack levels required when called:    2
  1492 ;; This function calls:
  1493 ;;		Nothing
  1494 ;; This function is called by:
  1495 ;;		_lcd_setup
  1496 ;;		_lcd_cursor
  1497 ;;		_r_shift
  1498 ;;		_l_shift
  1499 ;; This function uses a non-reentrant model
  1500 ;;
  1501                           
  1502                           
  1503                           ;psect for function _lcd_command
  1504  0DBE                     _lcd_command:	
  1505                           
  1506                           ;incstack = 0
  1507                           ; Regs used in _lcd_command: [wreg]
  1508                           ;lcd_command@a stored from wreg
  1509  0DBE  1283               	bcf	3,5	;RP0=0, select bank0
  1510  0DBF  1303               	bcf	3,6	;RP1=0, select bank0
  1511  0DC0  00A9               	movwf	lcd_command@a
  1512  0DC1                     l1504:	
  1513                           
  1514                           ;LCD.c: 17:     PORTDbits.RD7 = PORTDbits.RD6 = 0;
  1515  0DC1  1308               	bcf	8,6	;volatile
  1516  0DC2  1388               	bcf	8,7	;volatile
  1517  0DC3                     l1506:	
  1518                           
  1519                           ;LCD.c: 18:     PORTB = a;
  1520  0DC3  0829               	movf	lcd_command@a,w
  1521  0DC4  0086               	movwf	6	;volatile
  1522  0DC5                     l1508:	
  1523                           
  1524                           ;LCD.c: 19:     PORTDbits.RD5=1;
  1525  0DC5  1688               	bsf	8,5	;volatile
  1526                           
  1527                           ;LCD.c: 20:     _delay((unsigned long)((4)*(4000000/4000.0)));
  1528  0DC6  3006               	movlw	6
  1529  0DC7  1283               	bcf	3,5	;RP0=0, select bank0
  1530  0DC8  1303               	bcf	3,6	;RP1=0, select bank0
  1531  0DC9  00A8               	movwf	??_lcd_command+1
  1532  0DCA  302F               	movlw	47
  1533  0DCB  00A7               	movwf	??_lcd_command
  1534  0DCC                     u2727:	
  1535  0DCC  0BA7               	decfsz	??_lcd_command,f
  1536  0DCD  2DCC               	goto	u2727
  1537  0DCE  0BA8               	decfsz	??_lcd_command+1,f
  1538  0DCF  2DCC               	goto	u2727
  1539  0DD0  2DD1               	nop2
  1540  0DD1                     l1510:	
  1541                           
  1542                           ;LCD.c: 21:     PORTDbits.RD5=0;
  1543  0DD1  1283               	bcf	3,5	;RP0=0, select bank0
  1544  0DD2  1303               	bcf	3,6	;RP1=0, select bank0
  1545  0DD3  1288               	bcf	8,5	;volatile
  1546  0DD4                     l99:	
  1547  0DD4  0008               	return
  1548  0DD5                     __end_of_lcd_command:	
  1549                           
  1550                           	psect	text6
  1551  0DEF                     __ptext6:	
  1552 ;; *************** function _I2C_Slave_Init *****************
  1553 ;; Defined at:
  1554 ;;		line 93 in file "I2C.c"
  1555 ;; Parameters:    Size  Location     Type
  1556 ;;  address         1    wreg     unsigned char 
  1557 ;; Auto vars:     Size  Location     Type
  1558 ;;  address         1    7[BANK0 ] unsigned char 
  1559 ;; Return value:  Size  Location     Type
  1560 ;;                  1    wreg      void 
  1561 ;; Registers used:
  1562 ;;		wreg
  1563 ;; Tracked objects:
  1564 ;;		On entry : 0/0
  1565 ;;		On exit  : 0/0
  1566 ;;		Unchanged: 0/0
  1567 ;; Data sizes:     COMMON   BANK0   BANK1   BANK3   BANK2
  1568 ;;      Params:         0       0       0       0       0
  1569 ;;      Locals:         0       1       0       0       0
  1570 ;;      Temps:          0       0       0       0       0
  1571 ;;      Totals:         0       1       0       0       0
  1572 ;;Total ram usage:        1 bytes
  1573 ;; Hardware stack levels used:    1
  1574 ;; Hardware stack levels required when called:    2
  1575 ;; This function calls:
  1576 ;;		Nothing
  1577 ;; This function is called by:
  1578 ;;		_setup
  1579 ;; This function uses a non-reentrant model
  1580 ;;
  1581                           
  1582                           
  1583                           ;psect for function _I2C_Slave_Init
  1584  0DEF                     _I2C_Slave_Init:	
  1585                           
  1586                           ;incstack = 0
  1587                           ; Regs used in _I2C_Slave_Init: [wreg]
  1588                           ;I2C_Slave_Init@address stored from wreg
  1589  0DEF  1283               	bcf	3,5	;RP0=0, select bank0
  1590  0DF0  1303               	bcf	3,6	;RP1=0, select bank0
  1591  0DF1  00A7               	movwf	I2C_Slave_Init@address
  1592  0DF2                     l1736:	
  1593                           
  1594                           ;I2C.c: 93: void I2C_Slave_Init(uint8_t address);I2C.c: 94: {;I2C.c: 95:     SSPADD = ad
      +                          dress;
  1595  0DF2  0827               	movf	I2C_Slave_Init@address,w
  1596  0DF3  1683               	bsf	3,5	;RP0=1, select bank1
  1597  0DF4  1303               	bcf	3,6	;RP1=0, select bank1
  1598  0DF5  0093               	movwf	19	;volatile
  1599                           
  1600                           ;I2C.c: 96:     SSPCON = 0x36;
  1601  0DF6  3036               	movlw	54
  1602  0DF7  1283               	bcf	3,5	;RP0=0, select bank0
  1603  0DF8  1303               	bcf	3,6	;RP1=0, select bank0
  1604  0DF9  0094               	movwf	20	;volatile
  1605                           
  1606                           ;I2C.c: 97:     SSPSTAT = 0x80;
  1607  0DFA  3080               	movlw	128
  1608  0DFB  1683               	bsf	3,5	;RP0=1, select bank1
  1609  0DFC  1303               	bcf	3,6	;RP1=0, select bank1
  1610  0DFD  0094               	movwf	20	;volatile
  1611                           
  1612                           ;I2C.c: 98:     SSPCON2 = 0x01;
  1613  0DFE  3001               	movlw	1
  1614  0DFF  0091               	movwf	17	;volatile
  1615  0E00                     l1738:	
  1616                           
  1617                           ;I2C.c: 99:     TRISC3 = 1;
  1618  0E00  1587               	bsf	7,3	;volatile
  1619  0E01                     l1740:	
  1620                           
  1621                           ;I2C.c: 100:     TRISC4 = 1;
  1622  0E01  1607               	bsf	7,4	;volatile
  1623  0E02                     l1742:	
  1624                           
  1625                           ;I2C.c: 101:     GIE = 1;
  1626  0E02  178B               	bsf	11,7	;volatile
  1627  0E03                     l1744:	
  1628                           
  1629                           ;I2C.c: 102:     PEIE = 1;
  1630  0E03  170B               	bsf	11,6	;volatile
  1631  0E04                     l1746:	
  1632                           
  1633                           ;I2C.c: 103:     SSPIF = 0;
  1634  0E04  1283               	bcf	3,5	;RP0=0, select bank0
  1635  0E05  1303               	bcf	3,6	;RP1=0, select bank0
  1636  0E06  118C               	bcf	12,3	;volatile
  1637  0E07                     l1748:	
  1638                           
  1639                           ;I2C.c: 104:     SSPIE = 1;
  1640  0E07  1683               	bsf	3,5	;RP0=1, select bank1
  1641  0E08  1303               	bcf	3,6	;RP1=0, select bank1
  1642  0E09  158C               	bsf	12,3	;volatile
  1643  0E0A                     l202:	
  1644  0E0A  0008               	return
  1645  0E0B                     __end_of_I2C_Slave_Init:	
  1646                           
  1647                           	psect	text7
  1648  048F                     __ptext7:	
  1649 ;; *************** function _int_distance *****************
  1650 ;; Defined at:
  1651 ;;		line 121 in file "main.c"
  1652 ;; Parameters:    Size  Location     Type
  1653 ;;  valor           4    7[BANK1 ] unsigned long 
  1654 ;;  v1              1   11[BANK1 ] PTR unsigned char 
  1655 ;;		 -> c1(1), 
  1656 ;;  v2              1   12[BANK1 ] PTR unsigned char 
  1657 ;;		 -> d1(1), 
  1658 ;;  v3              1   13[BANK1 ] PTR unsigned char 
  1659 ;;		 -> u1(1), 
  1660 ;; Auto vars:     Size  Location     Type
  1661 ;;  conv            4   25[BANK1 ] float 
  1662 ;;  c               1   29[BANK1 ] unsigned char 
  1663 ;;  d               1   24[BANK1 ] unsigned char 
  1664 ;;  u               1   23[BANK1 ] unsigned char 
  1665 ;; Return value:  Size  Location     Type
  1666 ;;                  1    wreg      void 
  1667 ;; Registers used:
  1668 ;;		wreg, fsr0l, fsr0h, status,2, status,0, btemp+1, pclath, cstack
  1669 ;; Tracked objects:
  1670 ;;		On entry : 0/0
  1671 ;;		On exit  : 0/0
  1672 ;;		Unchanged: 0/0
  1673 ;; Data sizes:     COMMON   BANK0   BANK1   BANK3   BANK2
  1674 ;;      Params:         0       0       7       0       0
  1675 ;;      Locals:         0       0       7       0       0
  1676 ;;      Temps:          0       0       9       0       0
  1677 ;;      Totals:         0       0      23       0       0
  1678 ;;Total ram usage:       23 bytes
  1679 ;; Hardware stack levels used:    1
  1680 ;; Hardware stack levels required when called:    4
  1681 ;; This function calls:
  1682 ;;		___fldiv
  1683 ;;		___flsub
  1684 ;;		___fltol
  1685 ;;		___wmul
  1686 ;;		___xxtofl
  1687 ;; This function is called by:
  1688 ;;		_main
  1689 ;; This function uses a non-reentrant model
  1690 ;;
  1691                           
  1692                           
  1693                           ;psect for function _int_distance
  1694  048F                     _int_distance:	
  1695  048F                     l2188:	
  1696                           ;incstack = 0
  1697                           ; Regs used in _int_distance: [wreg-fsr0h+status,2+status,0+btemp+1+pclath+cstack]
  1698                           
  1699                           
  1700                           ;main.c: 122:     uint8_t c;;main.c: 123:     uint8_t d;;main.c: 124:     uint8_t u;;mai
      +                          n.c: 125:     float conv = ((float)valor/0.2217506684);
  1701  048F  303E               	movlw	62
  1702  0490  1283               	bcf	3,5	;RP0=0, select bank0
  1703  0491  1303               	bcf	3,6	;RP1=0, select bank0
  1704  0492  00BE               	movwf	___fldiv@a+3
  1705  0493  3063               	movlw	99
  1706  0494  00BD               	movwf	___fldiv@a+2
  1707  0495  3012               	movlw	18
  1708  0496  00BC               	movwf	___fldiv@a+1
  1709  0497  309B               	movlw	155
  1710  0498  00BB               	movwf	___fldiv@a
  1711  0499  1683               	bsf	3,5	;RP0=1, select bank1
  1712  049A  1303               	bcf	3,6	;RP1=0, select bank1
  1713  049B  082A               	movf	(int_distance@valor+3)^(0+128),w
  1714  049C  1283               	bcf	3,5	;RP0=0, select bank0
  1715  049D  1303               	bcf	3,6	;RP1=0, select bank0
  1716  049E  00B0               	movwf	___xxtofl@val+3
  1717  049F  1683               	bsf	3,5	;RP0=1, select bank1
  1718  04A0  1303               	bcf	3,6	;RP1=0, select bank1
  1719  04A1  0829               	movf	(int_distance@valor+2)^(0+128),w
  1720  04A2  1283               	bcf	3,5	;RP0=0, select bank0
  1721  04A3  1303               	bcf	3,6	;RP1=0, select bank0
  1722  04A4  00AF               	movwf	___xxtofl@val+2
  1723  04A5  1683               	bsf	3,5	;RP0=1, select bank1
  1724  04A6  1303               	bcf	3,6	;RP1=0, select bank1
  1725  04A7  0828               	movf	(int_distance@valor+1)^(0+128),w
  1726  04A8  1283               	bcf	3,5	;RP0=0, select bank0
  1727  04A9  1303               	bcf	3,6	;RP1=0, select bank0
  1728  04AA  00AE               	movwf	___xxtofl@val+1
  1729  04AB  1683               	bsf	3,5	;RP0=1, select bank1
  1730  04AC  1303               	bcf	3,6	;RP1=0, select bank1
  1731  04AD  0827               	movf	int_distance@valor^(0+128),w
  1732  04AE  1283               	bcf	3,5	;RP0=0, select bank0
  1733  04AF  1303               	bcf	3,6	;RP1=0, select bank0
  1734  04B0  00AD               	movwf	___xxtofl@val
  1735  04B1  3000               	movlw	0
  1736  04B2  120A  118A  2660  120A  118A  	fcall	___xxtofl
  1737  04B7  1283               	bcf	3,5	;RP0=0, select bank0
  1738  04B8  1303               	bcf	3,6	;RP1=0, select bank0
  1739  04B9  0830               	movf	?___xxtofl+3,w
  1740  04BA  00C2               	movwf	___fldiv@b+3
  1741  04BB  082F               	movf	?___xxtofl+2,w
  1742  04BC  00C1               	movwf	___fldiv@b+2
  1743  04BD  082E               	movf	?___xxtofl+1,w
  1744  04BE  00C0               	movwf	___fldiv@b+1
  1745  04BF  082D               	movf	?___xxtofl,w
  1746  04C0  00BF               	movwf	___fldiv@b
  1747  04C1  120A  118A  22B2  120A  118A  	fcall	___fldiv
  1748  04C6  1283               	bcf	3,5	;RP0=0, select bank0
  1749  04C7  1303               	bcf	3,6	;RP1=0, select bank0
  1750  04C8  083E               	movf	?___fldiv+3,w
  1751  04C9  1683               	bsf	3,5	;RP0=1, select bank1
  1752  04CA  1303               	bcf	3,6	;RP1=0, select bank1
  1753  04CB  00BC               	movwf	(int_distance@conv+3)^(0+128)
  1754  04CC  1283               	bcf	3,5	;RP0=0, select bank0
  1755  04CD  1303               	bcf	3,6	;RP1=0, select bank0
  1756  04CE  083D               	movf	?___fldiv+2,w
  1757  04CF  1683               	bsf	3,5	;RP0=1, select bank1
  1758  04D0  1303               	bcf	3,6	;RP1=0, select bank1
  1759  04D1  00BB               	movwf	(int_distance@conv+2)^(0+128)
  1760  04D2  1283               	bcf	3,5	;RP0=0, select bank0
  1761  04D3  1303               	bcf	3,6	;RP1=0, select bank0
  1762  04D4  083C               	movf	?___fldiv+1,w
  1763  04D5  1683               	bsf	3,5	;RP0=1, select bank1
  1764  04D6  1303               	bcf	3,6	;RP1=0, select bank1
  1765  04D7  00BA               	movwf	(int_distance@conv+1)^(0+128)
  1766  04D8  1283               	bcf	3,5	;RP0=0, select bank0
  1767  04D9  1303               	bcf	3,6	;RP1=0, select bank0
  1768  04DA  083B               	movf	?___fldiv,w
  1769  04DB  1683               	bsf	3,5	;RP0=1, select bank1
  1770  04DC  1303               	bcf	3,6	;RP1=0, select bank1
  1771  04DD  00B9               	movwf	int_distance@conv^(0+128)
  1772                           
  1773                           ;main.c: 126:     c = (uint8_t)(conv/100);
  1774  04DE  083C               	movf	(int_distance@conv+3)^(0+128),w
  1775  04DF  1283               	bcf	3,5	;RP0=0, select bank0
  1776  04E0  1303               	bcf	3,6	;RP1=0, select bank0
  1777  04E1  00C2               	movwf	___fldiv@b+3
  1778  04E2  1683               	bsf	3,5	;RP0=1, select bank1
  1779  04E3  1303               	bcf	3,6	;RP1=0, select bank1
  1780  04E4  083B               	movf	(int_distance@conv+2)^(0+128),w
  1781  04E5  1283               	bcf	3,5	;RP0=0, select bank0
  1782  04E6  1303               	bcf	3,6	;RP1=0, select bank0
  1783  04E7  00C1               	movwf	___fldiv@b+2
  1784  04E8  1683               	bsf	3,5	;RP0=1, select bank1
  1785  04E9  1303               	bcf	3,6	;RP1=0, select bank1
  1786  04EA  083A               	movf	(int_distance@conv+1)^(0+128),w
  1787  04EB  1283               	bcf	3,5	;RP0=0, select bank0
  1788  04EC  1303               	bcf	3,6	;RP1=0, select bank0
  1789  04ED  00C0               	movwf	___fldiv@b+1
  1790  04EE  1683               	bsf	3,5	;RP0=1, select bank1
  1791  04EF  1303               	bcf	3,6	;RP1=0, select bank1
  1792  04F0  0839               	movf	int_distance@conv^(0+128),w
  1793  04F1  1283               	bcf	3,5	;RP0=0, select bank0
  1794  04F2  1303               	bcf	3,6	;RP1=0, select bank0
  1795  04F3  00BF               	movwf	___fldiv@b
  1796  04F4  3042               	movlw	66
  1797  04F5  00BE               	movwf	___fldiv@a+3
  1798  04F6  30C8               	movlw	200
  1799  04F7  00BD               	movwf	___fldiv@a+2
  1800  04F8  3000               	movlw	0
  1801  04F9  00BC               	movwf	___fldiv@a+1
  1802  04FA  3000               	movlw	0
  1803  04FB  00BB               	movwf	___fldiv@a
  1804  04FC  120A  118A  22B2  120A  118A  	fcall	___fldiv
  1805  0501  1283               	bcf	3,5	;RP0=0, select bank0
  1806  0502  1303               	bcf	3,6	;RP1=0, select bank0
  1807  0503  083E               	movf	?___fldiv+3,w
  1808  0504  00E0               	movwf	___fltol@f1+3
  1809  0505  083D               	movf	?___fldiv+2,w
  1810  0506  00DF               	movwf	___fltol@f1+2
  1811  0507  083C               	movf	?___fldiv+1,w
  1812  0508  00DE               	movwf	___fltol@f1+1
  1813  0509  083B               	movf	?___fldiv,w
  1814  050A  00DD               	movwf	___fltol@f1
  1815  050B  120A  118A  271C  120A  118A  	fcall	___fltol
  1816  0510  1283               	bcf	3,5	;RP0=0, select bank0
  1817  0511  1303               	bcf	3,6	;RP1=0, select bank0
  1818  0512  085D               	movf	?___fltol,w
  1819  0513  1683               	bsf	3,5	;RP0=1, select bank1
  1820  0514  1303               	bcf	3,6	;RP1=0, select bank1
  1821  0515  00AE               	movwf	??_int_distance^(0+128)
  1822  0516  082E               	movf	??_int_distance^(0+128),w
  1823  0517  00BD               	movwf	int_distance@c^(0+128)
  1824                           
  1825                           ;main.c: 127:     d = (uint8_t)((((conv)/10)-(c*10)));
  1826  0518  083C               	movf	(int_distance@conv+3)^(0+128),w
  1827  0519  1283               	bcf	3,5	;RP0=0, select bank0
  1828  051A  1303               	bcf	3,6	;RP1=0, select bank0
  1829  051B  00C2               	movwf	___fldiv@b+3
  1830  051C  1683               	bsf	3,5	;RP0=1, select bank1
  1831  051D  1303               	bcf	3,6	;RP1=0, select bank1
  1832  051E  083B               	movf	(int_distance@conv+2)^(0+128),w
  1833  051F  1283               	bcf	3,5	;RP0=0, select bank0
  1834  0520  1303               	bcf	3,6	;RP1=0, select bank0
  1835  0521  00C1               	movwf	___fldiv@b+2
  1836  0522  1683               	bsf	3,5	;RP0=1, select bank1
  1837  0523  1303               	bcf	3,6	;RP1=0, select bank1
  1838  0524  083A               	movf	(int_distance@conv+1)^(0+128),w
  1839  0525  1283               	bcf	3,5	;RP0=0, select bank0
  1840  0526  1303               	bcf	3,6	;RP1=0, select bank0
  1841  0527  00C0               	movwf	___fldiv@b+1
  1842  0528  1683               	bsf	3,5	;RP0=1, select bank1
  1843  0529  1303               	bcf	3,6	;RP1=0, select bank1
  1844  052A  0839               	movf	int_distance@conv^(0+128),w
  1845  052B  1283               	bcf	3,5	;RP0=0, select bank0
  1846  052C  1303               	bcf	3,6	;RP1=0, select bank0
  1847  052D  00BF               	movwf	___fldiv@b
  1848  052E  3041               	movlw	65
  1849  052F  00BE               	movwf	___fldiv@a+3
  1850  0530  3020               	movlw	32
  1851  0531  00BD               	movwf	___fldiv@a+2
  1852  0532  3000               	movlw	0
  1853  0533  00BC               	movwf	___fldiv@a+1
  1854  0534  3000               	movlw	0
  1855  0535  00BB               	movwf	___fldiv@a
  1856  0536  120A  118A  22B2  120A  118A  	fcall	___fldiv
  1857  053B  1283               	bcf	3,5	;RP0=0, select bank0
  1858  053C  1303               	bcf	3,6	;RP1=0, select bank0
  1859  053D  083E               	movf	?___fldiv+3,w
  1860  053E  00DC               	movwf	___flsub@b+3
  1861  053F  083D               	movf	?___fldiv+2,w
  1862  0540  00DB               	movwf	___flsub@b+2
  1863  0541  083C               	movf	?___fldiv+1,w
  1864  0542  00DA               	movwf	___flsub@b+1
  1865  0543  083B               	movf	?___fldiv,w
  1866  0544  00D9               	movwf	___flsub@b
  1867  0545  300A               	movlw	10
  1868  0546  00A9               	movwf	___wmul@multiplicand
  1869  0547  3000               	movlw	0
  1870  0548  00AA               	movwf	___wmul@multiplicand+1
  1871  0549  1683               	bsf	3,5	;RP0=1, select bank1
  1872  054A  1303               	bcf	3,6	;RP1=0, select bank1
  1873  054B  083D               	movf	int_distance@c^(0+128),w
  1874  054C  00AE               	movwf	??_int_distance^(0+128)
  1875  054D  01AF               	clrf	(??_int_distance^(0+128)+1)
  1876  054E  082E               	movf	??_int_distance^(0+128),w
  1877  054F  1283               	bcf	3,5	;RP0=0, select bank0
  1878  0550  1303               	bcf	3,6	;RP1=0, select bank0
  1879  0551  00A7               	movwf	___wmul@multiplier
  1880  0552  1683               	bsf	3,5	;RP0=1, select bank1
  1881  0553  1303               	bcf	3,6	;RP1=0, select bank1
  1882  0554  082F               	movf	(??_int_distance+1)^(0+128),w
  1883  0555  1283               	bcf	3,5	;RP0=0, select bank0
  1884  0556  1303               	bcf	3,6	;RP1=0, select bank0
  1885  0557  00A8               	movwf	___wmul@multiplier+1
  1886  0558  120A  158A  262F  120A  118A  	fcall	___wmul
  1887  055D  1283               	bcf	3,5	;RP0=0, select bank0
  1888  055E  1303               	bcf	3,6	;RP1=0, select bank0
  1889  055F  0827               	movf	?___wmul,w
  1890  0560  00AD               	movwf	___xxtofl@val
  1891  0561  0828               	movf	?___wmul+1,w
  1892  0562  00AE               	movwf	___xxtofl@val+1
  1893  0563  3000               	movlw	0
  1894  0564  1BAE               	btfsc	___xxtofl@val+1,7
  1895  0565  30FF               	movlw	255
  1896  0566  00AF               	movwf	___xxtofl@val+2
  1897  0567  00B0               	movwf	___xxtofl@val+3
  1898  0568  3001               	movlw	1
  1899  0569  120A  118A  2660  120A  118A  	fcall	___xxtofl
  1900  056E  1283               	bcf	3,5	;RP0=0, select bank0
  1901  056F  1303               	bcf	3,6	;RP1=0, select bank0
  1902  0570  0830               	movf	?___xxtofl+3,w
  1903  0571  00D8               	movwf	___flsub@a+3
  1904  0572  082F               	movf	?___xxtofl+2,w
  1905  0573  00D7               	movwf	___flsub@a+2
  1906  0574  082E               	movf	?___xxtofl+1,w
  1907  0575  00D6               	movwf	___flsub@a+1
  1908  0576  082D               	movf	?___xxtofl,w
  1909  0577  00D5               	movwf	___flsub@a
  1910  0578  120A  158A  260B  120A  118A  	fcall	___flsub
  1911  057D  1283               	bcf	3,5	;RP0=0, select bank0
  1912  057E  1303               	bcf	3,6	;RP1=0, select bank0
  1913  057F  0858               	movf	?___flsub+3,w
  1914  0580  00E0               	movwf	___fltol@f1+3
  1915  0581  0857               	movf	?___flsub+2,w
  1916  0582  00DF               	movwf	___fltol@f1+2
  1917  0583  0856               	movf	?___flsub+1,w
  1918  0584  00DE               	movwf	___fltol@f1+1
  1919  0585  0855               	movf	?___flsub,w
  1920  0586  00DD               	movwf	___fltol@f1
  1921  0587  120A  118A  271C  120A  118A  	fcall	___fltol
  1922  058C  1283               	bcf	3,5	;RP0=0, select bank0
  1923  058D  1303               	bcf	3,6	;RP1=0, select bank0
  1924  058E  085D               	movf	?___fltol,w
  1925  058F  1683               	bsf	3,5	;RP0=1, select bank1
  1926  0590  1303               	bcf	3,6	;RP1=0, select bank1
  1927  0591  00B0               	movwf	(??_int_distance+2)^(0+128)
  1928  0592  0830               	movf	(??_int_distance+2)^(0+128),w
  1929  0593  00B8               	movwf	int_distance@d^(0+128)
  1930                           
  1931                           ;main.c: 128:     u = (uint8_t)((conv)/1-(c*100+d*10));
  1932  0594  083C               	movf	(int_distance@conv+3)^(0+128),w
  1933  0595  1283               	bcf	3,5	;RP0=0, select bank0
  1934  0596  1303               	bcf	3,6	;RP1=0, select bank0
  1935  0597  00C2               	movwf	___fldiv@b+3
  1936  0598  1683               	bsf	3,5	;RP0=1, select bank1
  1937  0599  1303               	bcf	3,6	;RP1=0, select bank1
  1938  059A  083B               	movf	(int_distance@conv+2)^(0+128),w
  1939  059B  1283               	bcf	3,5	;RP0=0, select bank0
  1940  059C  1303               	bcf	3,6	;RP1=0, select bank0
  1941  059D  00C1               	movwf	___fldiv@b+2
  1942  059E  1683               	bsf	3,5	;RP0=1, select bank1
  1943  059F  1303               	bcf	3,6	;RP1=0, select bank1
  1944  05A0  083A               	movf	(int_distance@conv+1)^(0+128),w
  1945  05A1  1283               	bcf	3,5	;RP0=0, select bank0
  1946  05A2  1303               	bcf	3,6	;RP1=0, select bank0
  1947  05A3  00C0               	movwf	___fldiv@b+1
  1948  05A4  1683               	bsf	3,5	;RP0=1, select bank1
  1949  05A5  1303               	bcf	3,6	;RP1=0, select bank1
  1950  05A6  0839               	movf	int_distance@conv^(0+128),w
  1951  05A7  1283               	bcf	3,5	;RP0=0, select bank0
  1952  05A8  1303               	bcf	3,6	;RP1=0, select bank0
  1953  05A9  00BF               	movwf	___fldiv@b
  1954  05AA  303F               	movlw	63
  1955  05AB  00BE               	movwf	___fldiv@a+3
  1956  05AC  3080               	movlw	128
  1957  05AD  00BD               	movwf	___fldiv@a+2
  1958  05AE  3000               	movlw	0
  1959  05AF  00BC               	movwf	___fldiv@a+1
  1960  05B0  3000               	movlw	0
  1961  05B1  00BB               	movwf	___fldiv@a
  1962  05B2  120A  118A  22B2  120A  118A  	fcall	___fldiv
  1963  05B7  1283               	bcf	3,5	;RP0=0, select bank0
  1964  05B8  1303               	bcf	3,6	;RP1=0, select bank0
  1965  05B9  083E               	movf	?___fldiv+3,w
  1966  05BA  00DC               	movwf	___flsub@b+3
  1967  05BB  083D               	movf	?___fldiv+2,w
  1968  05BC  00DB               	movwf	___flsub@b+2
  1969  05BD  083C               	movf	?___fldiv+1,w
  1970  05BE  00DA               	movwf	___flsub@b+1
  1971  05BF  083B               	movf	?___fldiv,w
  1972  05C0  00D9               	movwf	___flsub@b
  1973  05C1  3064               	movlw	100
  1974  05C2  00A9               	movwf	___wmul@multiplicand
  1975  05C3  3000               	movlw	0
  1976  05C4  00AA               	movwf	___wmul@multiplicand+1
  1977  05C5  1683               	bsf	3,5	;RP0=1, select bank1
  1978  05C6  1303               	bcf	3,6	;RP1=0, select bank1
  1979  05C7  083D               	movf	int_distance@c^(0+128),w
  1980  05C8  00AE               	movwf	??_int_distance^(0+128)
  1981  05C9  01AF               	clrf	(??_int_distance^(0+128)+1)
  1982  05CA  082E               	movf	??_int_distance^(0+128),w
  1983  05CB  1283               	bcf	3,5	;RP0=0, select bank0
  1984  05CC  1303               	bcf	3,6	;RP1=0, select bank0
  1985  05CD  00A7               	movwf	___wmul@multiplier
  1986  05CE  1683               	bsf	3,5	;RP0=1, select bank1
  1987  05CF  1303               	bcf	3,6	;RP1=0, select bank1
  1988  05D0  082F               	movf	(??_int_distance+1)^(0+128),w
  1989  05D1  1283               	bcf	3,5	;RP0=0, select bank0
  1990  05D2  1303               	bcf	3,6	;RP1=0, select bank0
  1991  05D3  00A8               	movwf	___wmul@multiplier+1
  1992  05D4  120A  158A  262F  120A  118A  	fcall	___wmul
  1993  05D9  1283               	bcf	3,5	;RP0=0, select bank0
  1994  05DA  1303               	bcf	3,6	;RP1=0, select bank0
  1995  05DB  0827               	movf	?___wmul,w
  1996  05DC  1683               	bsf	3,5	;RP0=1, select bank1
  1997  05DD  1303               	bcf	3,6	;RP1=0, select bank1
  1998  05DE  00B0               	movwf	(??_int_distance+2)^(0+128)
  1999  05DF  1283               	bcf	3,5	;RP0=0, select bank0
  2000  05E0  1303               	bcf	3,6	;RP1=0, select bank0
  2001  05E1  0828               	movf	?___wmul+1,w
  2002  05E2  1683               	bsf	3,5	;RP0=1, select bank1
  2003  05E3  1303               	bcf	3,6	;RP1=0, select bank1
  2004  05E4  00B1               	movwf	((??_int_distance+2)^(0+128)+1)
  2005  05E5  300A               	movlw	10
  2006  05E6  1283               	bcf	3,5	;RP0=0, select bank0
  2007  05E7  1303               	bcf	3,6	;RP1=0, select bank0
  2008  05E8  00A9               	movwf	___wmul@multiplicand
  2009  05E9  3000               	movlw	0
  2010  05EA  00AA               	movwf	___wmul@multiplicand+1
  2011  05EB  1683               	bsf	3,5	;RP0=1, select bank1
  2012  05EC  1303               	bcf	3,6	;RP1=0, select bank1
  2013  05ED  0838               	movf	int_distance@d^(0+128),w
  2014  05EE  00B2               	movwf	(??_int_distance+4)^(0+128)
  2015  05EF  01B3               	clrf	((??_int_distance+4)^(0+128)+1)
  2016  05F0  0832               	movf	(??_int_distance+4)^(0+128),w
  2017  05F1  1283               	bcf	3,5	;RP0=0, select bank0
  2018  05F2  1303               	bcf	3,6	;RP1=0, select bank0
  2019  05F3  00A7               	movwf	___wmul@multiplier
  2020  05F4  1683               	bsf	3,5	;RP0=1, select bank1
  2021  05F5  1303               	bcf	3,6	;RP1=0, select bank1
  2022  05F6  0833               	movf	(??_int_distance+5)^(0+128),w
  2023  05F7  1283               	bcf	3,5	;RP0=0, select bank0
  2024  05F8  1303               	bcf	3,6	;RP1=0, select bank0
  2025  05F9  00A8               	movwf	___wmul@multiplier+1
  2026  05FA  120A  158A  262F  120A  118A  	fcall	___wmul
  2027  05FF  1283               	bcf	3,5	;RP0=0, select bank0
  2028  0600  1303               	bcf	3,6	;RP1=0, select bank0
  2029  0601  0827               	movf	?___wmul,w
  2030  0602  1683               	bsf	3,5	;RP0=1, select bank1
  2031  0603  1303               	bcf	3,6	;RP1=0, select bank1
  2032  0604  0730               	addwf	(??_int_distance+2)^(0+128),w
  2033  0605  00B4               	movwf	(??_int_distance+6)^(0+128)
  2034  0606  1283               	bcf	3,5	;RP0=0, select bank0
  2035  0607  1303               	bcf	3,6	;RP1=0, select bank0
  2036  0608  0828               	movf	?___wmul+1,w
  2037  0609  1803               	skipnc
  2038  060A  0A28               	incf	?___wmul+1,w
  2039  060B  1683               	bsf	3,5	;RP0=1, select bank1
  2040  060C  1303               	bcf	3,6	;RP1=0, select bank1
  2041  060D  0731               	addwf	(??_int_distance+3)^(0+128),w
  2042  060E  00B5               	movwf	(??_int_distance+7)^(0+128)
  2043  060F  0834               	movf	(??_int_distance+6)^(0+128),w
  2044  0610  1283               	bcf	3,5	;RP0=0, select bank0
  2045  0611  1303               	bcf	3,6	;RP1=0, select bank0
  2046  0612  00AD               	movwf	___xxtofl@val
  2047  0613  1683               	bsf	3,5	;RP0=1, select bank1
  2048  0614  1303               	bcf	3,6	;RP1=0, select bank1
  2049  0615  0835               	movf	(??_int_distance+7)^(0+128),w
  2050  0616  1283               	bcf	3,5	;RP0=0, select bank0
  2051  0617  1303               	bcf	3,6	;RP1=0, select bank0
  2052  0618  00AE               	movwf	___xxtofl@val+1
  2053  0619  3000               	movlw	0
  2054  061A  1BAE               	btfsc	___xxtofl@val+1,7
  2055  061B  30FF               	movlw	255
  2056  061C  00AF               	movwf	___xxtofl@val+2
  2057  061D  00B0               	movwf	___xxtofl@val+3
  2058  061E  3001               	movlw	1
  2059  061F  120A  118A  2660  120A  118A  	fcall	___xxtofl
  2060  0624  1283               	bcf	3,5	;RP0=0, select bank0
  2061  0625  1303               	bcf	3,6	;RP1=0, select bank0
  2062  0626  0830               	movf	?___xxtofl+3,w
  2063  0627  00D8               	movwf	___flsub@a+3
  2064  0628  082F               	movf	?___xxtofl+2,w
  2065  0629  00D7               	movwf	___flsub@a+2
  2066  062A  082E               	movf	?___xxtofl+1,w
  2067  062B  00D6               	movwf	___flsub@a+1
  2068  062C  082D               	movf	?___xxtofl,w
  2069  062D  00D5               	movwf	___flsub@a
  2070  062E  120A  158A  260B  120A  118A  	fcall	___flsub
  2071  0633  1283               	bcf	3,5	;RP0=0, select bank0
  2072  0634  1303               	bcf	3,6	;RP1=0, select bank0
  2073  0635  0858               	movf	?___flsub+3,w
  2074  0636  00E0               	movwf	___fltol@f1+3
  2075  0637  0857               	movf	?___flsub+2,w
  2076  0638  00DF               	movwf	___fltol@f1+2
  2077  0639  0856               	movf	?___flsub+1,w
  2078  063A  00DE               	movwf	___fltol@f1+1
  2079  063B  0855               	movf	?___flsub,w
  2080  063C  00DD               	movwf	___fltol@f1
  2081  063D  120A  118A  271C  120A  118A  	fcall	___fltol
  2082  0642  1283               	bcf	3,5	;RP0=0, select bank0
  2083  0643  1303               	bcf	3,6	;RP1=0, select bank0
  2084  0644  085D               	movf	?___fltol,w
  2085  0645  1683               	bsf	3,5	;RP0=1, select bank1
  2086  0646  1303               	bcf	3,6	;RP1=0, select bank1
  2087  0647  00B6               	movwf	(??_int_distance+8)^(0+128)
  2088  0648  0836               	movf	(??_int_distance+8)^(0+128),w
  2089  0649  00B7               	movwf	int_distance@u^(0+128)
  2090  064A                     l2190:	
  2091                           
  2092                           ;main.c: 129:     *v1=c+48;
  2093  064A  083D               	movf	int_distance@c^(0+128),w
  2094  064B  3E30               	addlw	48
  2095  064C  00AE               	movwf	??_int_distance^(0+128)
  2096  064D  082B               	movf	int_distance@v1^(0+128),w
  2097  064E  0084               	movwf	4
  2098  064F  082E               	movf	??_int_distance^(0+128),w
  2099  0650  0080               	movwf	0
  2100  0651                     l2192:	
  2101                           
  2102                           ;main.c: 130:     *v2=d+48;
  2103  0651  0838               	movf	int_distance@d^(0+128),w
  2104  0652  3E30               	addlw	48
  2105  0653  00AE               	movwf	??_int_distance^(0+128)
  2106  0654  082C               	movf	int_distance@v2^(0+128),w
  2107  0655  0084               	movwf	4
  2108  0656  082E               	movf	??_int_distance^(0+128),w
  2109  0657  0080               	movwf	0
  2110  0658                     l2194:	
  2111                           
  2112                           ;main.c: 131:     *v3=u+48;
  2113  0658  0837               	movf	int_distance@u^(0+128),w
  2114  0659  3E30               	addlw	48
  2115  065A  00AE               	movwf	??_int_distance^(0+128)
  2116  065B  082D               	movf	int_distance@v3^(0+128),w
  2117  065C  0084               	movwf	4
  2118  065D  082E               	movf	??_int_distance^(0+128),w
  2119  065E  0080               	movwf	0
  2120  065F                     l78:	
  2121  065F  0008               	return
  2122  0660                     __end_of_int_distance:	
  2123                           
  2124                           	psect	text8
  2125  0660                     __ptext8:	
  2126 ;; *************** function ___xxtofl *****************
  2127 ;; Defined at:
  2128 ;;		line 10 in file "D:\Program Files (x86)\Microchip\xc8\v2.10\pic\sources\c90\common\xxtofl.c"
  2129 ;; Parameters:    Size  Location     Type
  2130 ;;  sign            1    wreg     unsigned char 
  2131 ;;  val             4   13[BANK0 ] long 
  2132 ;; Auto vars:     Size  Location     Type
  2133 ;;  sign            1   21[BANK0 ] unsigned char 
  2134 ;;  arg             4   23[BANK0 ] unsigned long 
  2135 ;;  exp             1   22[BANK0 ] unsigned char 
  2136 ;; Return value:  Size  Location     Type
  2137 ;;                  4   13[BANK0 ] unsigned char 
  2138 ;; Registers used:
  2139 ;;		wreg, status,2, status,0
  2140 ;; Tracked objects:
  2141 ;;		On entry : 0/0
  2142 ;;		On exit  : 0/0
  2143 ;;		Unchanged: 0/0
  2144 ;; Data sizes:     COMMON   BANK0   BANK1   BANK3   BANK2
  2145 ;;      Params:         0       4       0       0       0
  2146 ;;      Locals:         0       6       0       0       0
  2147 ;;      Temps:          0       4       0       0       0
  2148 ;;      Totals:         0      14       0       0       0
  2149 ;;Total ram usage:       14 bytes
  2150 ;; Hardware stack levels used:    1
  2151 ;; Hardware stack levels required when called:    2
  2152 ;; This function calls:
  2153 ;;		Nothing
  2154 ;; This function is called by:
  2155 ;;		_int_distance
  2156 ;; This function uses a non-reentrant model
  2157 ;;
  2158                           
  2159                           
  2160                           ;psect for function ___xxtofl
  2161  0660                     ___xxtofl:	
  2162                           
  2163                           ;incstack = 0
  2164                           ; Regs used in ___xxtofl: [wreg+status,2+status,0]
  2165                           ;___xxtofl@sign stored from wreg
  2166  0660  1283               	bcf	3,5	;RP0=0, select bank0
  2167  0661  1303               	bcf	3,6	;RP1=0, select bank0
  2168  0662  00B5               	movwf	___xxtofl@sign
  2169  0663                     l1948:	
  2170  0663  0835               	movf	___xxtofl@sign,w
  2171  0664  1903               	btfsc	3,2
  2172  0665  2E67               	goto	u2181
  2173  0666  2E68               	goto	u2180
  2174  0667                     u2181:	
  2175  0667  2E7C               	goto	l1954
  2176  0668                     u2180:	
  2177  0668                     l1950:	
  2178  0668  1FB0               	btfss	___xxtofl@val+3,7
  2179  0669  2E6B               	goto	u2191
  2180  066A  2E6C               	goto	u2190
  2181  066B                     u2191:	
  2182  066B  2E7C               	goto	l1954
  2183  066C                     u2190:	
  2184  066C                     l1952:	
  2185  066C  092D               	comf	___xxtofl@val,w
  2186  066D  00B7               	movwf	___xxtofl@arg
  2187  066E  092E               	comf	___xxtofl@val+1,w
  2188  066F  00B8               	movwf	___xxtofl@arg+1
  2189  0670  092F               	comf	___xxtofl@val+2,w
  2190  0671  00B9               	movwf	___xxtofl@arg+2
  2191  0672  0930               	comf	___xxtofl@val+3,w
  2192  0673  00BA               	movwf	___xxtofl@arg+3
  2193  0674  0AB7               	incf	___xxtofl@arg,f
  2194  0675  1903               	skipnz
  2195  0676  0AB8               	incf	___xxtofl@arg+1,f
  2196  0677  1903               	skipnz
  2197  0678  0AB9               	incf	___xxtofl@arg+2,f
  2198  0679  1903               	skipnz
  2199  067A  0ABA               	incf	___xxtofl@arg+3,f
  2200  067B  2E84               	goto	l715
  2201  067C                     l1954:	
  2202  067C  0830               	movf	___xxtofl@val+3,w
  2203  067D  00BA               	movwf	___xxtofl@arg+3
  2204  067E  082F               	movf	___xxtofl@val+2,w
  2205  067F  00B9               	movwf	___xxtofl@arg+2
  2206  0680  082E               	movf	___xxtofl@val+1,w
  2207  0681  00B8               	movwf	___xxtofl@arg+1
  2208  0682  082D               	movf	___xxtofl@val,w
  2209  0683  00B7               	movwf	___xxtofl@arg
  2210  0684                     l715:	
  2211  0684  0830               	movf	___xxtofl@val+3,w
  2212  0685  042F               	iorwf	___xxtofl@val+2,w
  2213  0686  042E               	iorwf	___xxtofl@val+1,w
  2214  0687  042D               	iorwf	___xxtofl@val,w
  2215  0688  1D03               	skipz
  2216  0689  2E8B               	goto	u2201
  2217  068A  2E8C               	goto	u2200
  2218  068B                     u2201:	
  2219  068B  2E95               	goto	l1960
  2220  068C                     u2200:	
  2221  068C                     l1956:	
  2222  068C  3000               	movlw	0
  2223  068D  00B0               	movwf	?___xxtofl+3
  2224  068E  3000               	movlw	0
  2225  068F  00AF               	movwf	?___xxtofl+2
  2226  0690  3000               	movlw	0
  2227  0691  00AE               	movwf	?___xxtofl+1
  2228  0692  3000               	movlw	0
  2229  0693  00AD               	movwf	?___xxtofl
  2230  0694  2F1B               	goto	l717
  2231  0695                     l1960:	
  2232  0695  3096               	movlw	150
  2233  0696  00B1               	movwf	??___xxtofl
  2234  0697  0831               	movf	??___xxtofl,w
  2235  0698  00B6               	movwf	___xxtofl@exp
  2236  0699  2EA7               	goto	l1964
  2237  069A                     l1962:	
  2238  069A  3001               	movlw	1
  2239  069B  00B1               	movwf	??___xxtofl
  2240  069C  0831               	movf	??___xxtofl,w
  2241  069D  07B6               	addwf	___xxtofl@exp,f
  2242  069E  3001               	movlw	1
  2243  069F                     u2215:	
  2244  069F  1003               	clrc
  2245  06A0  0CBA               	rrf	___xxtofl@arg+3,f
  2246  06A1  0CB9               	rrf	___xxtofl@arg+2,f
  2247  06A2  0CB8               	rrf	___xxtofl@arg+1,f
  2248  06A3  0CB7               	rrf	___xxtofl@arg,f
  2249  06A4  3EFF               	addlw	-1
  2250  06A5  1D03               	skipz
  2251  06A6  2E9F               	goto	u2215
  2252  06A7                     l1964:	
  2253  06A7  30FE               	movlw	254
  2254  06A8  053A               	andwf	___xxtofl@arg+3,w
  2255  06A9  1D03               	btfss	3,2
  2256  06AA  2EAC               	goto	u2221
  2257  06AB  2EAD               	goto	u2220
  2258  06AC                     u2221:	
  2259  06AC  2E9A               	goto	l1962
  2260  06AD                     u2220:	
  2261  06AD  2EC9               	goto	l721
  2262  06AE                     l1966:	
  2263  06AE  3001               	movlw	1
  2264  06AF  00B1               	movwf	??___xxtofl
  2265  06B0  0831               	movf	??___xxtofl,w
  2266  06B1  07B6               	addwf	___xxtofl@exp,f
  2267  06B2                     l1968:	
  2268  06B2  3001               	movlw	1
  2269  06B3  07B7               	addwf	___xxtofl@arg,f
  2270  06B4  3000               	movlw	0
  2271  06B5  1803               	skipnc
  2272  06B6  3001               	movlw	1
  2273  06B7  07B8               	addwf	___xxtofl@arg+1,f
  2274  06B8  3000               	movlw	0
  2275  06B9  1803               	skipnc
  2276  06BA  3001               	movlw	1
  2277  06BB  07B9               	addwf	___xxtofl@arg+2,f
  2278  06BC  3000               	movlw	0
  2279  06BD  1803               	skipnc
  2280  06BE  3001               	movlw	1
  2281  06BF  07BA               	addwf	___xxtofl@arg+3,f
  2282  06C0                     l1970:	
  2283  06C0  3001               	movlw	1
  2284  06C1                     u2235:	
  2285  06C1  1003               	clrc
  2286  06C2  0CBA               	rrf	___xxtofl@arg+3,f
  2287  06C3  0CB9               	rrf	___xxtofl@arg+2,f
  2288  06C4  0CB8               	rrf	___xxtofl@arg+1,f
  2289  06C5  0CB7               	rrf	___xxtofl@arg,f
  2290  06C6  3EFF               	addlw	-1
  2291  06C7  1D03               	skipz
  2292  06C8  2EC1               	goto	u2235
  2293  06C9                     l721:	
  2294  06C9  30FF               	movlw	255
  2295  06CA  053A               	andwf	___xxtofl@arg+3,w
  2296  06CB  1D03               	btfss	3,2
  2297  06CC  2ECE               	goto	u2241
  2298  06CD  2ECF               	goto	u2240
  2299  06CE                     u2241:	
  2300  06CE  2EAE               	goto	l1966
  2301  06CF                     u2240:	
  2302  06CF  2EDB               	goto	l1974
  2303  06D0                     l1972:	
  2304  06D0  3001               	movlw	1
  2305  06D1  02B6               	subwf	___xxtofl@exp,f
  2306  06D2  3001               	movlw	1
  2307  06D3  00B1               	movwf	??___xxtofl
  2308  06D4                     u2255:	
  2309  06D4  1003               	clrc
  2310  06D5  0DB7               	rlf	___xxtofl@arg,f
  2311  06D6  0DB8               	rlf	___xxtofl@arg+1,f
  2312  06D7  0DB9               	rlf	___xxtofl@arg+2,f
  2313  06D8  0DBA               	rlf	___xxtofl@arg+3,f
  2314  06D9  0BB1               	decfsz	??___xxtofl,f
  2315  06DA  2ED4               	goto	u2255
  2316  06DB                     l1974:	
  2317  06DB  1BB9               	btfsc	___xxtofl@arg+2,7
  2318  06DC  2EDE               	goto	u2261
  2319  06DD  2EDF               	goto	u2260
  2320  06DE                     u2261:	
  2321  06DE  2EE5               	goto	l728
  2322  06DF                     u2260:	
  2323  06DF                     l1976:	
  2324  06DF  3002               	movlw	2
  2325  06E0  0236               	subwf	___xxtofl@exp,w
  2326  06E1  1803               	skipnc
  2327  06E2  2EE4               	goto	u2271
  2328  06E3  2EE5               	goto	u2270
  2329  06E4                     u2271:	
  2330  06E4  2ED0               	goto	l1972
  2331  06E5                     u2270:	
  2332  06E5                     l728:	
  2333  06E5  1836               	btfsc	___xxtofl@exp,0
  2334  06E6  2EE8               	goto	u2281
  2335  06E7  2EE9               	goto	u2280
  2336  06E8                     u2281:	
  2337  06E8  2EF1               	goto	l729
  2338  06E9                     u2280:	
  2339  06E9                     l1978:	
  2340  06E9  30FF               	movlw	255
  2341  06EA  05B7               	andwf	___xxtofl@arg,f
  2342  06EB  30FF               	movlw	255
  2343  06EC  05B8               	andwf	___xxtofl@arg+1,f
  2344  06ED  307F               	movlw	127
  2345  06EE  05B9               	andwf	___xxtofl@arg+2,f
  2346  06EF  30FF               	movlw	255
  2347  06F0  05BA               	andwf	___xxtofl@arg+3,f
  2348  06F1                     l729:	
  2349  06F1  1003               	clrc
  2350  06F2  0CB6               	rrf	___xxtofl@exp,f
  2351  06F3                     l1980:	
  2352  06F3  0836               	movf	___xxtofl@exp,w
  2353  06F4  00B1               	movwf	??___xxtofl
  2354  06F5  01B2               	clrf	??___xxtofl+1
  2355  06F6  01B3               	clrf	??___xxtofl+2
  2356  06F7  01B4               	clrf	??___xxtofl+3
  2357  06F8  3018               	movlw	24
  2358  06F9                     u2295:	
  2359  06F9  1003               	clrc
  2360  06FA  0DB1               	rlf	??___xxtofl,f
  2361  06FB  0DB2               	rlf	??___xxtofl+1,f
  2362  06FC  0DB3               	rlf	??___xxtofl+2,f
  2363  06FD  0DB4               	rlf	??___xxtofl+3,f
  2364  06FE                     u2290:	
  2365  06FE  3EFF               	addlw	-1
  2366  06FF  1D03               	skipz
  2367  0700  2EF9               	goto	u2295
  2368  0701  0831               	movf	??___xxtofl,w
  2369  0702  04B7               	iorwf	___xxtofl@arg,f
  2370  0703  0832               	movf	??___xxtofl+1,w
  2371  0704  04B8               	iorwf	___xxtofl@arg+1,f
  2372  0705  0833               	movf	??___xxtofl+2,w
  2373  0706  04B9               	iorwf	___xxtofl@arg+2,f
  2374  0707  0834               	movf	??___xxtofl+3,w
  2375  0708  04BA               	iorwf	___xxtofl@arg+3,f
  2376  0709                     l1982:	
  2377  0709  0835               	movf	___xxtofl@sign,w
  2378  070A  1903               	btfsc	3,2
  2379  070B  2F0D               	goto	u2301
  2380  070C  2F0E               	goto	u2300
  2381  070D                     u2301:	
  2382  070D  2F13               	goto	l1988
  2383  070E                     u2300:	
  2384  070E                     l1984:	
  2385  070E  1FB0               	btfss	___xxtofl@val+3,7
  2386  070F  2F11               	goto	u2311
  2387  0710  2F12               	goto	u2310
  2388  0711                     u2311:	
  2389  0711  2F13               	goto	l1988
  2390  0712                     u2310:	
  2391  0712                     l1986:	
  2392  0712  17BA               	bsf	___xxtofl@arg+3,7
  2393  0713                     l1988:	
  2394  0713  083A               	movf	___xxtofl@arg+3,w
  2395  0714  00B0               	movwf	?___xxtofl+3
  2396  0715  0839               	movf	___xxtofl@arg+2,w
  2397  0716  00AF               	movwf	?___xxtofl+2
  2398  0717  0838               	movf	___xxtofl@arg+1,w
  2399  0718  00AE               	movwf	?___xxtofl+1
  2400  0719  0837               	movf	___xxtofl@arg,w
  2401  071A  00AD               	movwf	?___xxtofl
  2402  071B                     l717:	
  2403  071B  0008               	return
  2404  071C                     __end_of___xxtofl:	
  2405                           
  2406                           	psect	text9
  2407  0E2F                     __ptext9:	
  2408 ;; *************** function ___wmul *****************
  2409 ;; Defined at:
  2410 ;;		line 15 in file "D:\Program Files (x86)\Microchip\xc8\v2.10\pic\sources\c90\common\Umul16.c"
  2411 ;; Parameters:    Size  Location     Type
  2412 ;;  multiplier      2    7[BANK0 ] unsigned int 
  2413 ;;  multiplicand    2    9[BANK0 ] unsigned int 
  2414 ;; Auto vars:     Size  Location     Type
  2415 ;;  product         2   11[BANK0 ] unsigned int 
  2416 ;; Return value:  Size  Location     Type
  2417 ;;                  2    7[BANK0 ] unsigned int 
  2418 ;; Registers used:
  2419 ;;		wreg, status,2, status,0
  2420 ;; Tracked objects:
  2421 ;;		On entry : 0/0
  2422 ;;		On exit  : 0/0
  2423 ;;		Unchanged: 0/0
  2424 ;; Data sizes:     COMMON   BANK0   BANK1   BANK3   BANK2
  2425 ;;      Params:         0       4       0       0       0
  2426 ;;      Locals:         0       2       0       0       0
  2427 ;;      Temps:          0       0       0       0       0
  2428 ;;      Totals:         0       6       0       0       0
  2429 ;;Total ram usage:        6 bytes
  2430 ;; Hardware stack levels used:    1
  2431 ;; Hardware stack levels required when called:    2
  2432 ;; This function calls:
  2433 ;;		Nothing
  2434 ;; This function is called by:
  2435 ;;		_int_distance
  2436 ;; This function uses a non-reentrant model
  2437 ;;
  2438                           
  2439                           
  2440                           ;psect for function ___wmul
  2441  0E2F                     ___wmul:	
  2442  0E2F                     l1750:	
  2443                           ;incstack = 0
  2444                           ; Regs used in ___wmul: [wreg+status,2+status,0]
  2445                           
  2446  0E2F  1283               	bcf	3,5	;RP0=0, select bank0
  2447  0E30  1303               	bcf	3,6	;RP1=0, select bank0
  2448  0E31  01AB               	clrf	___wmul@product
  2449  0E32  01AC               	clrf	___wmul@product+1
  2450  0E33                     l1752:	
  2451  0E33  1C27               	btfss	___wmul@multiplier,0
  2452  0E34  2E36               	goto	u1751
  2453  0E35  2E37               	goto	u1750
  2454  0E36                     u1751:	
  2455  0E36  2E3D               	goto	l288
  2456  0E37                     u1750:	
  2457  0E37                     l1754:	
  2458  0E37  0829               	movf	___wmul@multiplicand,w
  2459  0E38  07AB               	addwf	___wmul@product,f
  2460  0E39  1803               	skipnc
  2461  0E3A  0AAC               	incf	___wmul@product+1,f
  2462  0E3B  082A               	movf	___wmul@multiplicand+1,w
  2463  0E3C  07AC               	addwf	___wmul@product+1,f
  2464  0E3D                     l288:	
  2465  0E3D  3001               	movlw	1
  2466  0E3E                     u1765:	
  2467  0E3E  1003               	clrc
  2468  0E3F  0DA9               	rlf	___wmul@multiplicand,f
  2469  0E40  0DAA               	rlf	___wmul@multiplicand+1,f
  2470  0E41  3EFF               	addlw	-1
  2471  0E42  1D03               	skipz
  2472  0E43  2E3E               	goto	u1765
  2473  0E44                     l1756:	
  2474  0E44  3001               	movlw	1
  2475  0E45                     u1775:	
  2476  0E45  1003               	clrc
  2477  0E46  0CA8               	rrf	___wmul@multiplier+1,f
  2478  0E47  0CA7               	rrf	___wmul@multiplier,f
  2479  0E48  3EFF               	addlw	-1
  2480  0E49  1D03               	skipz
  2481  0E4A  2E45               	goto	u1775
  2482  0E4B                     l1758:	
  2483  0E4B  0827               	movf	___wmul@multiplier,w
  2484  0E4C  0428               	iorwf	___wmul@multiplier+1,w
  2485  0E4D  1D03               	btfss	3,2
  2486  0E4E  2E50               	goto	u1781
  2487  0E4F  2E51               	goto	u1780
  2488  0E50                     u1781:	
  2489  0E50  2E33               	goto	l1752
  2490  0E51                     u1780:	
  2491  0E51                     l1760:	
  2492  0E51  082C               	movf	___wmul@product+1,w
  2493  0E52  00A8               	movwf	?___wmul+1
  2494  0E53  082B               	movf	___wmul@product,w
  2495  0E54  00A7               	movwf	?___wmul
  2496  0E55                     l290:	
  2497  0E55  0008               	return
  2498  0E56                     __end_of___wmul:	
  2499                           
  2500                           	psect	text10
  2501  071C                     __ptext10:	
  2502 ;; *************** function ___fltol *****************
  2503 ;; Defined at:
  2504 ;;		line 43 in file "D:\Program Files (x86)\Microchip\xc8\v2.10\pic\sources\c90\common\fltol.c"
  2505 ;; Parameters:    Size  Location     Type
  2506 ;;  f1              4   61[BANK0 ] unsigned int 
  2507 ;; Auto vars:     Size  Location     Type
  2508 ;;  exp1            1    6[BANK1 ] unsigned char 
  2509 ;;  sign1           1    5[BANK1 ] unsigned char 
  2510 ;; Return value:  Size  Location     Type
  2511 ;;                  4   61[BANK0 ] long 
  2512 ;; Registers used:
  2513 ;;		wreg, status,2, status,0
  2514 ;; Tracked objects:
  2515 ;;		On entry : 0/0
  2516 ;;		On exit  : 0/0
  2517 ;;		Unchanged: 0/0
  2518 ;; Data sizes:     COMMON   BANK0   BANK1   BANK3   BANK2
  2519 ;;      Params:         0       4       0       0       0
  2520 ;;      Locals:         0       0       2       0       0
  2521 ;;      Temps:          0       0       5       0       0
  2522 ;;      Totals:         0       4       7       0       0
  2523 ;;Total ram usage:       11 bytes
  2524 ;; Hardware stack levels used:    1
  2525 ;; Hardware stack levels required when called:    2
  2526 ;; This function calls:
  2527 ;;		Nothing
  2528 ;; This function is called by:
  2529 ;;		_int_distance
  2530 ;; This function uses a non-reentrant model
  2531 ;;
  2532                           
  2533                           
  2534                           ;psect for function ___fltol
  2535  071C                     ___fltol:	
  2536  071C                     l2152:	
  2537                           ;incstack = 0
  2538                           ; Regs used in ___fltol: [wreg+status,2+status,0]
  2539                           
  2540  071C  1003               	clrc
  2541  071D  1283               	bcf	3,5	;RP0=0, select bank0
  2542  071E  1303               	bcf	3,6	;RP1=0, select bank0
  2543  071F  0D5F               	rlf	___fltol@f1+2,w
  2544  0720  0D60               	rlf	___fltol@f1+3,w
  2545  0721  1683               	bsf	3,5	;RP0=1, select bank1
  2546  0722  1303               	bcf	3,6	;RP1=0, select bank1
  2547  0723  00A0               	movwf	??___fltol^(0+128)
  2548  0724  0820               	movf	??___fltol^(0+128),w
  2549  0725  00A6               	movwf	___fltol@exp1^(0+128)
  2550  0726  0826               	movf	___fltol@exp1^(0+128),w
  2551  0727  1D03               	btfss	3,2
  2552  0728  2F2A               	goto	u2521
  2553  0729  2F2B               	goto	u2520
  2554  072A                     u2521:	
  2555  072A  2F36               	goto	l2158
  2556  072B                     u2520:	
  2557  072B                     l2154:	
  2558  072B  3000               	movlw	0
  2559  072C  1283               	bcf	3,5	;RP0=0, select bank0
  2560  072D  1303               	bcf	3,6	;RP1=0, select bank0
  2561  072E  00E0               	movwf	?___fltol+3
  2562  072F  3000               	movlw	0
  2563  0730  00DF               	movwf	?___fltol+2
  2564  0731  3000               	movlw	0
  2565  0732  00DE               	movwf	?___fltol+1
  2566  0733  3000               	movlw	0
  2567  0734  00DD               	movwf	?___fltol
  2568  0735  2FB9               	goto	l474
  2569  0736                     l2158:	
  2570  0736  1283               	bcf	3,5	;RP0=0, select bank0
  2571  0737  1303               	bcf	3,6	;RP1=0, select bank0
  2572  0738  085D               	movf	___fltol@f1,w
  2573  0739  1683               	bsf	3,5	;RP0=1, select bank1
  2574  073A  1303               	bcf	3,6	;RP1=0, select bank1
  2575  073B  00A0               	movwf	??___fltol^(0+128)
  2576  073C  1283               	bcf	3,5	;RP0=0, select bank0
  2577  073D  1303               	bcf	3,6	;RP1=0, select bank0
  2578  073E  085E               	movf	___fltol@f1+1,w
  2579  073F  1683               	bsf	3,5	;RP0=1, select bank1
  2580  0740  1303               	bcf	3,6	;RP1=0, select bank1
  2581  0741  00A1               	movwf	(??___fltol^(0+128)+1)
  2582  0742  1283               	bcf	3,5	;RP0=0, select bank0
  2583  0743  1303               	bcf	3,6	;RP1=0, select bank0
  2584  0744  085F               	movf	___fltol@f1+2,w
  2585  0745  1683               	bsf	3,5	;RP0=1, select bank1
  2586  0746  1303               	bcf	3,6	;RP1=0, select bank1
  2587  0747  00A2               	movwf	(??___fltol^(0+128)+2)
  2588  0748  1283               	bcf	3,5	;RP0=0, select bank0
  2589  0749  1303               	bcf	3,6	;RP1=0, select bank0
  2590  074A  0860               	movf	___fltol@f1+3,w
  2591  074B  1683               	bsf	3,5	;RP0=1, select bank1
  2592  074C  1303               	bcf	3,6	;RP1=0, select bank1
  2593  074D  00A3               	movwf	(??___fltol^(0+128)+3)
  2594  074E  301F               	movlw	31
  2595  074F                     u2535:	
  2596  074F  1003               	clrc
  2597  0750  0CA3               	rrf	(??___fltol^(0+128)+3),f
  2598  0751  0CA2               	rrf	(??___fltol^(0+128)+2),f
  2599  0752  0CA1               	rrf	(??___fltol^(0+128)+1),f
  2600  0753  0CA0               	rrf	??___fltol^(0+128),f
  2601  0754                     u2530:	
  2602  0754  3EFF               	addlw	-1
  2603  0755  1D03               	skipz
  2604  0756  2F4F               	goto	u2535
  2605  0757  0820               	movf	??___fltol^(0+128),w
  2606  0758  00A4               	movwf	(??___fltol+4)^(0+128)
  2607  0759  0824               	movf	(??___fltol+4)^(0+128),w
  2608  075A  00A5               	movwf	___fltol@sign1^(0+128)
  2609  075B                     l2160:	
  2610  075B  1283               	bcf	3,5	;RP0=0, select bank0
  2611  075C  1303               	bcf	3,6	;RP1=0, select bank0
  2612  075D  17DF               	bsf	___fltol@f1+2,7
  2613  075E                     l2162:	
  2614  075E  30FF               	movlw	255
  2615  075F  05DD               	andwf	___fltol@f1,f
  2616  0760  30FF               	movlw	255
  2617  0761  05DE               	andwf	___fltol@f1+1,f
  2618  0762  30FF               	movlw	255
  2619  0763  05DF               	andwf	___fltol@f1+2,f
  2620  0764  3000               	movlw	0
  2621  0765  05E0               	andwf	___fltol@f1+3,f
  2622  0766                     l2164:	
  2623  0766  3096               	movlw	150
  2624  0767  1683               	bsf	3,5	;RP0=1, select bank1
  2625  0768  1303               	bcf	3,6	;RP1=0, select bank1
  2626  0769  02A6               	subwf	___fltol@exp1^(0+128),f
  2627  076A                     l2166:	
  2628  076A  1FA6               	btfss	___fltol@exp1^(0+128),7
  2629  076B  2F6D               	goto	u2541
  2630  076C  2F6E               	goto	u2540
  2631  076D                     u2541:	
  2632  076D  2F8C               	goto	l2176
  2633  076E                     u2540:	
  2634  076E                     l2168:	
  2635  076E  0826               	movf	___fltol@exp1^(0+128),w
  2636  076F  3A80               	xorlw	128
  2637  0770  3E97               	addlw	151
  2638  0771  1803               	skipnc
  2639  0772  2F74               	goto	u2551
  2640  0773  2F75               	goto	u2550
  2641  0774                     u2551:	
  2642  0774  2F76               	goto	l2174
  2643  0775                     u2550:	
  2644  0775  2F2B               	goto	l2154
  2645  0776                     l2174:	
  2646  0776  3001               	movlw	1
  2647  0777                     u2565:	
  2648  0777  1003               	clrc
  2649  0778  1283               	bcf	3,5	;RP0=0, select bank0
  2650  0779  1303               	bcf	3,6	;RP1=0, select bank0
  2651  077A  0CE0               	rrf	___fltol@f1+3,f
  2652  077B  0CDF               	rrf	___fltol@f1+2,f
  2653  077C  0CDE               	rrf	___fltol@f1+1,f
  2654  077D  0CDD               	rrf	___fltol@f1,f
  2655  077E  3EFF               	addlw	-1
  2656  077F  1D03               	skipz
  2657  0780  2F77               	goto	u2565
  2658  0781  3001               	movlw	1
  2659  0782  1683               	bsf	3,5	;RP0=1, select bank1
  2660  0783  1303               	bcf	3,6	;RP1=0, select bank1
  2661  0784  00A0               	movwf	??___fltol^(0+128)
  2662  0785  0820               	movf	??___fltol^(0+128),w
  2663  0786  07A6               	addwf	___fltol@exp1^(0+128),f
  2664  0787  1D03               	btfss	3,2
  2665  0788  2F8A               	goto	u2571
  2666  0789  2F8B               	goto	u2570
  2667  078A                     u2571:	
  2668  078A  2F76               	goto	l2174
  2669  078B                     u2570:	
  2670  078B  2FA7               	goto	l2184
  2671  078C                     l2176:	
  2672  078C  3020               	movlw	32
  2673  078D  0226               	subwf	___fltol@exp1^(0+128),w
  2674  078E  1C03               	skipc
  2675  078F  2F91               	goto	u2581
  2676  0790  2F92               	goto	u2580
  2677  0791                     u2581:	
  2678  0791  2FA2               	goto	l481
  2679  0792                     u2580:	
  2680  0792  2F2B               	goto	l2154
  2681  0793                     l2182:	
  2682  0793  3001               	movlw	1
  2683  0794  00A0               	movwf	??___fltol^(0+128)
  2684  0795                     u2595:	
  2685  0795  1003               	clrc
  2686  0796  1283               	bcf	3,5	;RP0=0, select bank0
  2687  0797  1303               	bcf	3,6	;RP1=0, select bank0
  2688  0798  0DDD               	rlf	___fltol@f1,f
  2689  0799  0DDE               	rlf	___fltol@f1+1,f
  2690  079A  0DDF               	rlf	___fltol@f1+2,f
  2691  079B  0DE0               	rlf	___fltol@f1+3,f
  2692  079C  1683               	bsf	3,5	;RP0=1, select bank1
  2693  079D  1303               	bcf	3,6	;RP1=0, select bank1
  2694  079E  0BA0               	decfsz	??___fltol^(0+128),f
  2695  079F  2F95               	goto	u2595
  2696  07A0  3001               	movlw	1
  2697  07A1  02A6               	subwf	___fltol@exp1^(0+128),f
  2698  07A2                     l481:	
  2699  07A2  0826               	movf	___fltol@exp1^(0+128),w
  2700  07A3  1D03               	btfss	3,2
  2701  07A4  2FA6               	goto	u2601
  2702  07A5  2FA7               	goto	u2600
  2703  07A6                     u2601:	
  2704  07A6  2F93               	goto	l2182
  2705  07A7                     u2600:	
  2706  07A7                     l2184:	
  2707  07A7  0825               	movf	___fltol@sign1^(0+128),w
  2708  07A8  1903               	btfsc	3,2
  2709  07A9  2FAB               	goto	u2611
  2710  07AA  2FAC               	goto	u2610
  2711  07AB                     u2611:	
  2712  07AB  2FB9               	goto	l484
  2713  07AC                     u2610:	
  2714  07AC                     l2186:	
  2715  07AC  1283               	bcf	3,5	;RP0=0, select bank0
  2716  07AD  1303               	bcf	3,6	;RP1=0, select bank0
  2717  07AE  09DD               	comf	___fltol@f1,f
  2718  07AF  09DE               	comf	___fltol@f1+1,f
  2719  07B0  09DF               	comf	___fltol@f1+2,f
  2720  07B1  09E0               	comf	___fltol@f1+3,f
  2721  07B2  0ADD               	incf	___fltol@f1,f
  2722  07B3  1903               	skipnz
  2723  07B4  0ADE               	incf	___fltol@f1+1,f
  2724  07B5  1903               	skipnz
  2725  07B6  0ADF               	incf	___fltol@f1+2,f
  2726  07B7  1903               	skipnz
  2727  07B8  0AE0               	incf	___fltol@f1+3,f
  2728  07B9                     l484:	
  2729  07B9                     l474:	
  2730  07B9  0008               	return
  2731  07BA                     __end_of___fltol:	
  2732                           
  2733                           	psect	text11
  2734  0E0B                     __ptext11:	
  2735 ;; *************** function ___flsub *****************
  2736 ;; Defined at:
  2737 ;;		line 242 in file "D:\Program Files (x86)\Microchip\xc8\v2.10\pic\sources\c90\common\sprcadd.c"
  2738 ;; Parameters:    Size  Location     Type
  2739 ;;  a               4   53[BANK0 ] long 
  2740 ;;  b               4   57[BANK0 ] long 
  2741 ;; Auto vars:     Size  Location     Type
  2742 ;;		None
  2743 ;; Return value:  Size  Location     Type
  2744 ;;                  4   53[BANK0 ] long 
  2745 ;; Registers used:
  2746 ;;		wreg, status,2, status,0, btemp+1, pclath, cstack
  2747 ;; Tracked objects:
  2748 ;;		On entry : 0/0
  2749 ;;		On exit  : 0/0
  2750 ;;		Unchanged: 0/0
  2751 ;; Data sizes:     COMMON   BANK0   BANK1   BANK3   BANK2
  2752 ;;      Params:         0       8       0       0       0
  2753 ;;      Locals:         0       0       0       0       0
  2754 ;;      Temps:          0       0       0       0       0
  2755 ;;      Totals:         0       8       0       0       0
  2756 ;;Total ram usage:        8 bytes
  2757 ;; Hardware stack levels used:    1
  2758 ;; Hardware stack levels required when called:    3
  2759 ;; This function calls:
  2760 ;;		___fladd
  2761 ;; This function is called by:
  2762 ;;		_int_distance
  2763 ;; This function uses a non-reentrant model
  2764 ;;
  2765                           
  2766                           
  2767                           ;psect for function ___flsub
  2768  0E0B                     ___flsub:	
  2769  0E0B                     l1800:	
  2770                           ;incstack = 0
  2771                           ; Regs used in ___flsub: [wreg+status,2+status,0+btemp+1+pclath+cstack]
  2772                           
  2773  0E0B  3080               	movlw	128
  2774  0E0C  1283               	bcf	3,5	;RP0=0, select bank0
  2775  0E0D  1303               	bcf	3,6	;RP1=0, select bank0
  2776  0E0E  06D8               	xorwf	___flsub@a+3,f
  2777  0E0F                     l1802:	
  2778  0E0F  085C               	movf	___flsub@b+3,w
  2779  0E10  00AA               	movwf	___fladd@b+3
  2780  0E11  085B               	movf	___flsub@b+2,w
  2781  0E12  00A9               	movwf	___fladd@b+2
  2782  0E13  085A               	movf	___flsub@b+1,w
  2783  0E14  00A8               	movwf	___fladd@b+1
  2784  0E15  0859               	movf	___flsub@b,w
  2785  0E16  00A7               	movwf	___fladd@b
  2786  0E17  0858               	movf	___flsub@a+3,w
  2787  0E18  00AE               	movwf	___fladd@a+3
  2788  0E19  0857               	movf	___flsub@a+2,w
  2789  0E1A  00AD               	movwf	___fladd@a+2
  2790  0E1B  0856               	movf	___flsub@a+1,w
  2791  0E1C  00AC               	movwf	___fladd@a+1
  2792  0E1D  0855               	movf	___flsub@a,w
  2793  0E1E  00AB               	movwf	___fladd@a
  2794  0E1F  120A  118A  202A  120A  158A  	fcall	___fladd
  2795  0E24  1283               	bcf	3,5	;RP0=0, select bank0
  2796  0E25  1303               	bcf	3,6	;RP1=0, select bank0
  2797  0E26  082A               	movf	?___fladd+3,w
  2798  0E27  00D8               	movwf	?___flsub+3
  2799  0E28  0829               	movf	?___fladd+2,w
  2800  0E29  00D7               	movwf	?___flsub+2
  2801  0E2A  0828               	movf	?___fladd+1,w
  2802  0E2B  00D6               	movwf	?___flsub+1
  2803  0E2C  0827               	movf	?___fladd,w
  2804  0E2D  00D5               	movwf	?___flsub
  2805  0E2E                     l627:	
  2806  0E2E  0008               	return
  2807  0E2F                     __end_of___flsub:	
  2808                           
  2809                           	psect	text12
  2810  002A                     __ptext12:	
  2811 ;; *************** function ___fladd *****************
  2812 ;; Defined at:
  2813 ;;		line 10 in file "D:\Program Files (x86)\Microchip\xc8\v2.10\pic\sources\c90\common\sprcadd.c"
  2814 ;; Parameters:    Size  Location     Type
  2815 ;;  b               4    7[BANK0 ] long 
  2816 ;;  a               4   11[BANK0 ] long 
  2817 ;; Auto vars:     Size  Location     Type
  2818 ;;  grs             1   26[BANK0 ] unsigned char 
  2819 ;;  bexp            1   25[BANK0 ] unsigned char 
  2820 ;;  aexp            1   24[BANK0 ] unsigned char 
  2821 ;;  signs           1   23[BANK0 ] unsigned char 
  2822 ;; Return value:  Size  Location     Type
  2823 ;;                  4    7[BANK0 ] unsigned char 
  2824 ;; Registers used:
  2825 ;;		wreg, status,2, status,0, btemp+1
  2826 ;; Tracked objects:
  2827 ;;		On entry : 0/0
  2828 ;;		On exit  : 0/0
  2829 ;;		Unchanged: 0/0
  2830 ;; Data sizes:     COMMON   BANK0   BANK1   BANK3   BANK2
  2831 ;;      Params:         0       8       0       0       0
  2832 ;;      Locals:         0       4       0       0       0
  2833 ;;      Temps:          0       8       0       0       0
  2834 ;;      Totals:         0      20       0       0       0
  2835 ;;Total ram usage:       20 bytes
  2836 ;; Hardware stack levels used:    1
  2837 ;; Hardware stack levels required when called:    2
  2838 ;; This function calls:
  2839 ;;		Nothing
  2840 ;; This function is called by:
  2841 ;;		___flsub
  2842 ;; This function uses a non-reentrant model
  2843 ;;
  2844                           
  2845                           
  2846                           ;psect for function ___fladd
  2847  002A                     ___fladd:	
  2848  002A                     l1512:	
  2849                           ;incstack = 0
  2850                           ; Regs used in ___fladd: [wreg+status,2+status,0+btemp+1]
  2851                           
  2852  002A  1283               	bcf	3,5	;RP0=0, select bank0
  2853  002B  1303               	bcf	3,6	;RP1=0, select bank0
  2854  002C  082A               	movf	___fladd@b+3,w
  2855  002D  3980               	andlw	128
  2856  002E  00AF               	movwf	??___fladd
  2857  002F  082F               	movf	??___fladd,w
  2858  0030  00B7               	movwf	___fladd@signs
  2859  0031                     l1514:	
  2860  0031  082A               	movf	___fladd@b+3,w
  2861  0032  00AF               	movwf	??___fladd
  2862  0033  072F               	addwf	??___fladd,w
  2863  0034  00B0               	movwf	??___fladd+1
  2864  0035  0830               	movf	??___fladd+1,w
  2865  0036  00B9               	movwf	___fladd@bexp
  2866  0037                     l1516:	
  2867  0037  1FA9               	btfss	___fladd@b+2,7
  2868  0038  283A               	goto	u1291
  2869  0039  283B               	goto	u1290
  2870  003A                     u1291:	
  2871  003A  283C               	goto	l1520
  2872  003B                     u1290:	
  2873  003B                     l1518:	
  2874  003B  1439               	bsf	___fladd@bexp,0
  2875  003C                     l1520:	
  2876  003C  0839               	movf	___fladd@bexp,w
  2877  003D  1903               	btfsc	3,2
  2878  003E  2840               	goto	u1301
  2879  003F  2841               	goto	u1300
  2880  0040                     u1301:	
  2881  0040  2851               	goto	l1530
  2882  0041                     u1300:	
  2883  0041                     l1522:	
  2884  0041  0A39               	incf	___fladd@bexp,w
  2885  0042  1D03               	btfss	3,2
  2886  0043  2845               	goto	u1311
  2887  0044  2846               	goto	u1310
  2888  0045                     u1311:	
  2889  0045  284E               	goto	l1526
  2890  0046                     u1310:	
  2891  0046                     l1524:	
  2892  0046  3000               	movlw	0
  2893  0047  00AA               	movwf	___fladd@b+3
  2894  0048  3000               	movlw	0
  2895  0049  00A9               	movwf	___fladd@b+2
  2896  004A  3000               	movlw	0
  2897  004B  00A8               	movwf	___fladd@b+1
  2898  004C  3000               	movlw	0
  2899  004D  00A7               	movwf	___fladd@b
  2900  004E                     l1526:	
  2901  004E  17A9               	bsf	___fladd@b+2,7
  2902  004F                     l1528:	
  2903  004F  01AA               	clrf	___fladd@b+3
  2904  0050  2859               	goto	l1532
  2905  0051                     l1530:	
  2906  0051  3000               	movlw	0
  2907  0052  00AA               	movwf	___fladd@b+3
  2908  0053  3000               	movlw	0
  2909  0054  00A9               	movwf	___fladd@b+2
  2910  0055  3000               	movlw	0
  2911  0056  00A8               	movwf	___fladd@b+1
  2912  0057  3000               	movlw	0
  2913  0058  00A7               	movwf	___fladd@b
  2914  0059                     l1532:	
  2915  0059  082E               	movf	___fladd@a+3,w
  2916  005A  3980               	andlw	128
  2917  005B  00AF               	movwf	??___fladd
  2918  005C  082F               	movf	??___fladd,w
  2919  005D  00B8               	movwf	___fladd@aexp
  2920  005E                     l1534:	
  2921  005E  0838               	movf	___fladd@aexp,w
  2922  005F  0637               	xorwf	___fladd@signs,w
  2923  0060  1903               	skipnz
  2924  0061  2863               	goto	u1321
  2925  0062  2864               	goto	u1320
  2926  0063                     u1321:	
  2927  0063  2865               	goto	l1538
  2928  0064                     u1320:	
  2929  0064                     l1536:	
  2930  0064  1737               	bsf	___fladd@signs,6
  2931  0065                     l1538:	
  2932  0065  082E               	movf	___fladd@a+3,w
  2933  0066  00AF               	movwf	??___fladd
  2934  0067  072F               	addwf	??___fladd,w
  2935  0068  00B0               	movwf	??___fladd+1
  2936  0069  0830               	movf	??___fladd+1,w
  2937  006A  00B8               	movwf	___fladd@aexp
  2938  006B                     l1540:	
  2939  006B  1FAD               	btfss	___fladd@a+2,7
  2940  006C  286E               	goto	u1331
  2941  006D  286F               	goto	u1330
  2942  006E                     u1331:	
  2943  006E  2870               	goto	l1544
  2944  006F                     u1330:	
  2945  006F                     l1542:	
  2946  006F  1438               	bsf	___fladd@aexp,0
  2947  0070                     l1544:	
  2948  0070  0838               	movf	___fladd@aexp,w
  2949  0071  1903               	btfsc	3,2
  2950  0072  2874               	goto	u1341
  2951  0073  2875               	goto	u1340
  2952  0074                     u1341:	
  2953  0074  2885               	goto	l1554
  2954  0075                     u1340:	
  2955  0075                     l1546:	
  2956  0075  0A38               	incf	___fladd@aexp,w
  2957  0076  1D03               	btfss	3,2
  2958  0077  2879               	goto	u1351
  2959  0078  287A               	goto	u1350
  2960  0079                     u1351:	
  2961  0079  2882               	goto	l1550
  2962  007A                     u1350:	
  2963  007A                     l1548:	
  2964  007A  3000               	movlw	0
  2965  007B  00AE               	movwf	___fladd@a+3
  2966  007C  3000               	movlw	0
  2967  007D  00AD               	movwf	___fladd@a+2
  2968  007E  3000               	movlw	0
  2969  007F  00AC               	movwf	___fladd@a+1
  2970  0080  3000               	movlw	0
  2971  0081  00AB               	movwf	___fladd@a
  2972  0082                     l1550:	
  2973  0082  17AD               	bsf	___fladd@a+2,7
  2974  0083                     l1552:	
  2975  0083  01AE               	clrf	___fladd@a+3
  2976  0084  288D               	goto	l581
  2977  0085                     l1554:	
  2978  0085  3000               	movlw	0
  2979  0086  00AE               	movwf	___fladd@a+3
  2980  0087  3000               	movlw	0
  2981  0088  00AD               	movwf	___fladd@a+2
  2982  0089  3000               	movlw	0
  2983  008A  00AC               	movwf	___fladd@a+1
  2984  008B  3000               	movlw	0
  2985  008C  00AB               	movwf	___fladd@a
  2986  008D                     l581:	
  2987  008D  0839               	movf	___fladd@bexp,w
  2988  008E  0238               	subwf	___fladd@aexp,w
  2989  008F  1803               	skipnc
  2990  0090  2892               	goto	u1361
  2991  0091  2893               	goto	u1360
  2992  0092                     u1361:	
  2993  0092  28D7               	goto	l1590
  2994  0093                     u1360:	
  2995  0093                     l1556:	
  2996  0093  1F37               	btfss	___fladd@signs,6
  2997  0094  2896               	goto	u1371
  2998  0095  2897               	goto	u1370
  2999  0096                     u1371:	
  3000  0096  289B               	goto	l1560
  3001  0097                     u1370:	
  3002  0097                     l1558:	
  3003  0097  3080               	movlw	128
  3004  0098  00AF               	movwf	??___fladd
  3005  0099  082F               	movf	??___fladd,w
  3006  009A  06B7               	xorwf	___fladd@signs,f
  3007  009B                     l1560:	
  3008  009B  0839               	movf	___fladd@bexp,w
  3009  009C  00AF               	movwf	??___fladd
  3010  009D  082F               	movf	??___fladd,w
  3011  009E  00BA               	movwf	___fladd@grs
  3012  009F                     l1562:	
  3013  009F  0838               	movf	___fladd@aexp,w
  3014  00A0  00AF               	movwf	??___fladd
  3015  00A1  082F               	movf	??___fladd,w
  3016  00A2  00B9               	movwf	___fladd@bexp
  3017  00A3                     l1564:	
  3018  00A3  083A               	movf	___fladd@grs,w
  3019  00A4  00AF               	movwf	??___fladd
  3020  00A5  082F               	movf	??___fladd,w
  3021  00A6  00B8               	movwf	___fladd@aexp
  3022  00A7                     l1566:	
  3023  00A7  0827               	movf	___fladd@b,w
  3024  00A8  00AF               	movwf	??___fladd
  3025  00A9  082F               	movf	??___fladd,w
  3026  00AA  00BA               	movwf	___fladd@grs
  3027  00AB                     l1568:	
  3028  00AB  082B               	movf	___fladd@a,w
  3029  00AC  00AF               	movwf	??___fladd
  3030  00AD  082F               	movf	??___fladd,w
  3031  00AE  00A7               	movwf	___fladd@b
  3032  00AF                     l1570:	
  3033  00AF  083A               	movf	___fladd@grs,w
  3034  00B0  00AF               	movwf	??___fladd
  3035  00B1  082F               	movf	??___fladd,w
  3036  00B2  00AB               	movwf	___fladd@a
  3037  00B3                     l1572:	
  3038  00B3  0828               	movf	___fladd@b+1,w
  3039  00B4  00AF               	movwf	??___fladd
  3040  00B5  082F               	movf	??___fladd,w
  3041  00B6  00BA               	movwf	___fladd@grs
  3042  00B7                     l1574:	
  3043  00B7  082C               	movf	___fladd@a+1,w
  3044  00B8  00AF               	movwf	??___fladd
  3045  00B9  082F               	movf	??___fladd,w
  3046  00BA  00A8               	movwf	___fladd@b+1
  3047  00BB                     l1576:	
  3048  00BB  083A               	movf	___fladd@grs,w
  3049  00BC  00AF               	movwf	??___fladd
  3050  00BD  082F               	movf	??___fladd,w
  3051  00BE  00AC               	movwf	___fladd@a+1
  3052  00BF                     l1578:	
  3053  00BF  0829               	movf	___fladd@b+2,w
  3054  00C0  00AF               	movwf	??___fladd
  3055  00C1  082F               	movf	??___fladd,w
  3056  00C2  00BA               	movwf	___fladd@grs
  3057  00C3                     l1580:	
  3058  00C3  082D               	movf	___fladd@a+2,w
  3059  00C4  00AF               	movwf	??___fladd
  3060  00C5  082F               	movf	??___fladd,w
  3061  00C6  00A9               	movwf	___fladd@b+2
  3062  00C7                     l1582:	
  3063  00C7  083A               	movf	___fladd@grs,w
  3064  00C8  00AF               	movwf	??___fladd
  3065  00C9  082F               	movf	??___fladd,w
  3066  00CA  00AD               	movwf	___fladd@a+2
  3067  00CB                     l1584:	
  3068  00CB  082A               	movf	___fladd@b+3,w
  3069  00CC  00AF               	movwf	??___fladd
  3070  00CD  082F               	movf	??___fladd,w
  3071  00CE  00BA               	movwf	___fladd@grs
  3072  00CF                     l1586:	
  3073  00CF  082E               	movf	___fladd@a+3,w
  3074  00D0  00AF               	movwf	??___fladd
  3075  00D1  082F               	movf	??___fladd,w
  3076  00D2  00AA               	movwf	___fladd@b+3
  3077  00D3                     l1588:	
  3078  00D3  083A               	movf	___fladd@grs,w
  3079  00D4  00AF               	movwf	??___fladd
  3080  00D5  082F               	movf	??___fladd,w
  3081  00D6  00AE               	movwf	___fladd@a+3
  3082  00D7                     l1590:	
  3083  00D7  01BA               	clrf	___fladd@grs
  3084  00D8                     l1592:	
  3085  00D8  0838               	movf	___fladd@aexp,w
  3086  00D9  00AF               	movwf	??___fladd
  3087  00DA  01B0               	clrf	??___fladd+1
  3088  00DB  0830               	movf	??___fladd+1,w
  3089  00DC  00B2               	movwf	??___fladd+3
  3090  00DD  0839               	movf	___fladd@bexp,w
  3091  00DE  022F               	subwf	??___fladd,w
  3092  00DF  00B1               	movwf	??___fladd+2
  3093  00E0  1C03               	skipc
  3094  00E1  03B2               	decf	??___fladd+3,f
  3095  00E2  0832               	movf	??___fladd+3,w
  3096  00E3  3A80               	xorlw	128
  3097  00E4  00FF               	movwf	btemp+1
  3098  00E5  3080               	movlw	128
  3099  00E6  027F               	subwf	btemp+1,w
  3100  00E7  1D03               	skipz
  3101  00E8  28EB               	goto	u1385
  3102  00E9  301A               	movlw	26
  3103  00EA  0231               	subwf	??___fladd+2,w
  3104  00EB                     u1385:	
  3105  00EB  1C03               	skipc
  3106  00EC  28EE               	goto	u1381
  3107  00ED  28EF               	goto	u1380
  3108  00EE                     u1381:	
  3109  00EE  292C               	goto	l1608
  3110  00EF                     u1380:	
  3111  00EF                     l1594:	
  3112  00EF  1283               	bcf	3,5	;RP0=0, select bank0
  3113  00F0  1303               	bcf	3,6	;RP1=0, select bank0
  3114  00F1  082A               	movf	___fladd@b+3,w
  3115  00F2  0429               	iorwf	___fladd@b+2,w
  3116  00F3  0428               	iorwf	___fladd@b+1,w
  3117  00F4  0427               	iorwf	___fladd@b,w
  3118  00F5  1D03               	skipz
  3119  00F6  28F8               	goto	u1391
  3120  00F7  28FA               	goto	u1390
  3121  00F8                     u1391:	
  3122  00F8  3001               	movlw	1
  3123  00F9  28FB               	goto	u1400
  3124  00FA                     u1390:	
  3125  00FA  3000               	movlw	0
  3126  00FB                     u1400:	
  3127  00FB  00AF               	movwf	??___fladd
  3128  00FC  082F               	movf	??___fladd,w
  3129  00FD  00BA               	movwf	___fladd@grs
  3130  00FE  3000               	movlw	0
  3131  00FF  00AA               	movwf	___fladd@b+3
  3132  0100  3000               	movlw	0
  3133  0101  00A9               	movwf	___fladd@b+2
  3134  0102  3000               	movlw	0
  3135  0103  00A8               	movwf	___fladd@b+1
  3136  0104  3000               	movlw	0
  3137  0105  00A7               	movwf	___fladd@b
  3138  0106  0838               	movf	___fladd@aexp,w
  3139  0107  00AF               	movwf	??___fladd
  3140  0108  082F               	movf	??___fladd,w
  3141  0109  00B9               	movwf	___fladd@bexp
  3142  010A  2934               	goto	l585
  3143  010B                     l587:	
  3144  010B  1C3A               	btfss	___fladd@grs,0
  3145  010C  290E               	goto	u1411
  3146  010D  290F               	goto	u1410
  3147  010E                     u1411:	
  3148  010E  2918               	goto	l1598
  3149  010F                     u1410:	
  3150  010F                     l1596:	
  3151  010F  083A               	movf	___fladd@grs,w
  3152  0110  00AF               	movwf	??___fladd
  3153  0111  1003               	clrc
  3154  0112  0C2F               	rrf	??___fladd,w
  3155  0113  3801               	iorlw	1
  3156  0114  00B0               	movwf	??___fladd+1
  3157  0115  0830               	movf	??___fladd+1,w
  3158  0116  00BA               	movwf	___fladd@grs
  3159  0117  291A               	goto	l1600
  3160  0118                     l1598:	
  3161  0118  1003               	clrc
  3162  0119  0CBA               	rrf	___fladd@grs,f
  3163  011A                     l1600:	
  3164  011A  1C27               	btfss	___fladd@b,0
  3165  011B  291D               	goto	u1421
  3166  011C  291E               	goto	u1420
  3167  011D                     u1421:	
  3168  011D  291F               	goto	l1604
  3169  011E                     u1420:	
  3170  011E                     l1602:	
  3171  011E  17BA               	bsf	___fladd@grs,7
  3172  011F                     l1604:	
  3173  011F  3001               	movlw	1
  3174  0120  00AF               	movwf	??___fladd
  3175  0121                     u1435:	
  3176  0121  0D2A               	rlf	___fladd@b+3,w
  3177  0122  0CAA               	rrf	___fladd@b+3,f
  3178  0123  0CA9               	rrf	___fladd@b+2,f
  3179  0124  0CA8               	rrf	___fladd@b+1,f
  3180  0125  0CA7               	rrf	___fladd@b,f
  3181  0126  0BAF               	decfsz	??___fladd& (0+127),f
  3182  0127  2921               	goto	u1435
  3183  0128                     l1606:	
  3184  0128  3001               	movlw	1
  3185  0129  00AF               	movwf	??___fladd
  3186  012A  082F               	movf	??___fladd,w
  3187  012B  07B9               	addwf	___fladd@bexp,f
  3188  012C                     l1608:	
  3189  012C  1283               	bcf	3,5	;RP0=0, select bank0
  3190  012D  1303               	bcf	3,6	;RP1=0, select bank0
  3191  012E  0838               	movf	___fladd@aexp,w
  3192  012F  0239               	subwf	___fladd@bexp,w
  3193  0130  1C03               	skipc
  3194  0131  2933               	goto	u1441
  3195  0132  2934               	goto	u1440
  3196  0133                     u1441:	
  3197  0133  290B               	goto	l587
  3198  0134                     u1440:	
  3199  0134                     l585:	
  3200  0134  1B37               	btfsc	___fladd@signs,6
  3201  0135  2937               	goto	u1451
  3202  0136  2938               	goto	u1450
  3203  0137                     u1451:	
  3204  0137  2983               	goto	l1634
  3205  0138                     u1450:	
  3206  0138                     l1610:	
  3207  0138  0839               	movf	___fladd@bexp,w
  3208  0139  1D03               	btfss	3,2
  3209  013A  293C               	goto	u1461
  3210  013B  293D               	goto	u1460
  3211  013C                     u1461:	
  3212  013C  2946               	goto	l1616
  3213  013D                     u1460:	
  3214  013D                     l1612:	
  3215  013D  3000               	movlw	0
  3216  013E  00AA               	movwf	?___fladd+3
  3217  013F  3000               	movlw	0
  3218  0140  00A9               	movwf	?___fladd+2
  3219  0141  3000               	movlw	0
  3220  0142  00A8               	movwf	?___fladd+1
  3221  0143  3000               	movlw	0
  3222  0144  00A7               	movwf	?___fladd
  3223  0145  2AB1               	goto	l594
  3224  0146                     l1616:	
  3225  0146  082B               	movf	___fladd@a,w
  3226  0147  07A7               	addwf	___fladd@b,f
  3227  0148  082C               	movf	___fladd@a+1,w
  3228  0149  1103               	clrz
  3229  014A  1803               	skipnc
  3230  014B  3E01               	addlw	1
  3231  014C  1903               	skipnz
  3232  014D  294F               	goto	u1471
  3233  014E  07A8               	addwf	___fladd@b+1,f
  3234  014F                     u1471:	
  3235  014F  082D               	movf	___fladd@a+2,w
  3236  0150  1103               	clrz
  3237  0151  1803               	skipnc
  3238  0152  3E01               	addlw	1
  3239  0153  1903               	skipnz
  3240  0154  2956               	goto	u1472
  3241  0155  07A9               	addwf	___fladd@b+2,f
  3242  0156                     u1472:	
  3243  0156  082E               	movf	___fladd@a+3,w
  3244  0157  1103               	clrz
  3245  0158  1803               	skipnc
  3246  0159  3E01               	addlw	1
  3247  015A  1903               	skipnz
  3248  015B  295D               	goto	u1473
  3249  015C  07AA               	addwf	___fladd@b+3,f
  3250  015D                     u1473:	
  3251  015D                     l1618:	
  3252  015D  1C2A               	btfss	___fladd@b+3,0
  3253  015E  2960               	goto	u1481
  3254  015F  2961               	goto	u1480
  3255  0160                     u1481:	
  3256  0160  2A37               	goto	l1668
  3257  0161                     u1480:	
  3258  0161                     l1620:	
  3259  0161  1C3A               	btfss	___fladd@grs,0
  3260  0162  2964               	goto	u1491
  3261  0163  2965               	goto	u1490
  3262  0164                     u1491:	
  3263  0164  296E               	goto	l1624
  3264  0165                     u1490:	
  3265  0165                     l1622:	
  3266  0165  083A               	movf	___fladd@grs,w
  3267  0166  00AF               	movwf	??___fladd
  3268  0167  1003               	clrc
  3269  0168  0C2F               	rrf	??___fladd,w
  3270  0169  3801               	iorlw	1
  3271  016A  00B0               	movwf	??___fladd+1
  3272  016B  0830               	movf	??___fladd+1,w
  3273  016C  00BA               	movwf	___fladd@grs
  3274  016D  2970               	goto	l1626
  3275  016E                     l1624:	
  3276  016E  1003               	clrc
  3277  016F  0CBA               	rrf	___fladd@grs,f
  3278  0170                     l1626:	
  3279  0170  1C27               	btfss	___fladd@b,0
  3280  0171  2973               	goto	u1501
  3281  0172  2974               	goto	u1500
  3282  0173                     u1501:	
  3283  0173  2975               	goto	l1630
  3284  0174                     u1500:	
  3285  0174                     l1628:	
  3286  0174  17BA               	bsf	___fladd@grs,7
  3287  0175                     l1630:	
  3288  0175  3001               	movlw	1
  3289  0176  00AF               	movwf	??___fladd
  3290  0177                     u1515:	
  3291  0177  0D2A               	rlf	___fladd@b+3,w
  3292  0178  0CAA               	rrf	___fladd@b+3,f
  3293  0179  0CA9               	rrf	___fladd@b+2,f
  3294  017A  0CA8               	rrf	___fladd@b+1,f
  3295  017B  0CA7               	rrf	___fladd@b,f
  3296  017C  0BAF               	decfsz	??___fladd& (0+127),f
  3297  017D  2977               	goto	u1515
  3298  017E                     l1632:	
  3299  017E  3001               	movlw	1
  3300  017F  00AF               	movwf	??___fladd
  3301  0180  082F               	movf	??___fladd,w
  3302  0181  07B9               	addwf	___fladd@bexp,f
  3303  0182  2A37               	goto	l1668
  3304  0183                     l1634:	
  3305  0183  082A               	movf	___fladd@b+3,w
  3306  0184  3A80               	xorlw	128
  3307  0185  00FF               	movwf	btemp+1
  3308  0186  082E               	movf	___fladd@a+3,w
  3309  0187  3A80               	xorlw	128
  3310  0188  027F               	subwf	btemp+1,w
  3311  0189  1D03               	skipz
  3312  018A  2995               	goto	u1523
  3313  018B  082D               	movf	___fladd@a+2,w
  3314  018C  0229               	subwf	___fladd@b+2,w
  3315  018D  1D03               	skipz
  3316  018E  2995               	goto	u1523
  3317  018F  082C               	movf	___fladd@a+1,w
  3318  0190  0228               	subwf	___fladd@b+1,w
  3319  0191  1D03               	skipz
  3320  0192  2995               	goto	u1523
  3321  0193  082B               	movf	___fladd@a,w
  3322  0194  0227               	subwf	___fladd@b,w
  3323  0195                     u1523:	
  3324  0195  1803               	skipnc
  3325  0196  2998               	goto	u1521
  3326  0197  2999               	goto	u1520
  3327  0198                     u1521:	
  3328  0198  29F1               	goto	l1644
  3329  0199                     u1520:	
  3330  0199                     l1636:	
  3331  0199  30FF               	movlw	255
  3332  019A  00AF               	movwf	??___fladd
  3333  019B  30FF               	movlw	255
  3334  019C  00B0               	movwf	??___fladd+1
  3335  019D  30FF               	movlw	255
  3336  019E  00B1               	movwf	??___fladd+2
  3337  019F  30FF               	movlw	255
  3338  01A0  00B2               	movwf	??___fladd+3
  3339  01A1  082B               	movf	___fladd@a,w
  3340  01A2  00B3               	movwf	??___fladd+4
  3341  01A3  082C               	movf	___fladd@a+1,w
  3342  01A4  00B4               	movwf	??___fladd+5
  3343  01A5  082D               	movf	___fladd@a+2,w
  3344  01A6  00B5               	movwf	??___fladd+6
  3345  01A7  082E               	movf	___fladd@a+3,w
  3346  01A8  00B6               	movwf	??___fladd+7
  3347  01A9  0827               	movf	___fladd@b,w
  3348  01AA  02B3               	subwf	??___fladd+4,f
  3349  01AB  0828               	movf	___fladd@b+1,w
  3350  01AC  1C03               	skipc
  3351  01AD  0F28               	incfsz	___fladd@b+1,w
  3352  01AE  29B0               	goto	u1531
  3353  01AF  29B1               	goto	u1532
  3354  01B0                     u1531:	
  3355  01B0  02B4               	subwf	??___fladd+5,f
  3356  01B1                     u1532:	
  3357  01B1  0829               	movf	___fladd@b+2,w
  3358  01B2  1C03               	skipc
  3359  01B3  0F29               	incfsz	___fladd@b+2,w
  3360  01B4  29B6               	goto	u1533
  3361  01B5  29B7               	goto	u1534
  3362  01B6                     u1533:	
  3363  01B6  02B5               	subwf	??___fladd+6,f
  3364  01B7                     u1534:	
  3365  01B7  082A               	movf	___fladd@b+3,w
  3366  01B8  1C03               	skipc
  3367  01B9  0F2A               	incfsz	___fladd@b+3,w
  3368  01BA  29BC               	goto	u1535
  3369  01BB  29BD               	goto	u1536
  3370  01BC                     u1535:	
  3371  01BC  02B6               	subwf	??___fladd+7,f
  3372  01BD                     u1536:	
  3373  01BD  0833               	movf	??___fladd+4,w
  3374  01BE  07AF               	addwf	??___fladd,f
  3375  01BF  0834               	movf	??___fladd+5,w
  3376  01C0  1803               	skipnc
  3377  01C1  0F34               	incfsz	??___fladd+5,w
  3378  01C2  29C4               	goto	u1540
  3379  01C3  29C5               	goto	u1541
  3380  01C4                     u1540:	
  3381  01C4  07B0               	addwf	??___fladd+1,f
  3382  01C5                     u1541:	
  3383  01C5  0835               	movf	??___fladd+6,w
  3384  01C6  1803               	skipnc
  3385  01C7  0F35               	incfsz	??___fladd+6,w
  3386  01C8  29CA               	goto	u1542
  3387  01C9  29CB               	goto	u1543
  3388  01CA                     u1542:	
  3389  01CA  07B1               	addwf	??___fladd+2,f
  3390  01CB                     u1543:	
  3391  01CB  0836               	movf	??___fladd+7,w
  3392  01CC  1803               	skipnc
  3393  01CD  0A36               	incf	??___fladd+7,w
  3394  01CE  07B2               	addwf	??___fladd+3,f
  3395  01CF  0832               	movf	??___fladd+3,w
  3396  01D0  00AA               	movwf	___fladd@b+3
  3397  01D1  0831               	movf	??___fladd+2,w
  3398  01D2  00A9               	movwf	___fladd@b+2
  3399  01D3  0830               	movf	??___fladd+1,w
  3400  01D4  00A8               	movwf	___fladd@b+1
  3401  01D5  082F               	movf	??___fladd,w
  3402  01D6  00A7               	movwf	___fladd@b
  3403  01D7                     l1638:	
  3404  01D7  3080               	movlw	128
  3405  01D8  00AF               	movwf	??___fladd
  3406  01D9  082F               	movf	??___fladd,w
  3407  01DA  06B7               	xorwf	___fladd@signs,f
  3408  01DB  09BA               	comf	___fladd@grs,f
  3409  01DC  0ABA               	incf	___fladd@grs,f
  3410  01DD                     l1640:	
  3411  01DD  083A               	movf	___fladd@grs,w
  3412  01DE  1D03               	btfss	3,2
  3413  01DF  29E1               	goto	u1551
  3414  01E0  29E2               	goto	u1550
  3415  01E1                     u1551:	
  3416  01E1  29FF               	goto	l602
  3417  01E2                     u1550:	
  3418  01E2                     l1642:	
  3419  01E2  3001               	movlw	1
  3420  01E3  07A7               	addwf	___fladd@b,f
  3421  01E4  3000               	movlw	0
  3422  01E5  1803               	skipnc
  3423  01E6  3001               	movlw	1
  3424  01E7  07A8               	addwf	___fladd@b+1,f
  3425  01E8  3000               	movlw	0
  3426  01E9  1803               	skipnc
  3427  01EA  3001               	movlw	1
  3428  01EB  07A9               	addwf	___fladd@b+2,f
  3429  01EC  3000               	movlw	0
  3430  01ED  1803               	skipnc
  3431  01EE  3001               	movlw	1
  3432  01EF  07AA               	addwf	___fladd@b+3,f
  3433  01F0  29FF               	goto	l602
  3434  01F1                     l1644:	
  3435  01F1  082B               	movf	___fladd@a,w
  3436  01F2  02A7               	subwf	___fladd@b,f
  3437  01F3  082C               	movf	___fladd@a+1,w
  3438  01F4  1C03               	skipc
  3439  01F5  0F2C               	incfsz	___fladd@a+1,w
  3440  01F6  02A8               	subwf	___fladd@b+1,f
  3441  01F7  082D               	movf	___fladd@a+2,w
  3442  01F8  1C03               	skipc
  3443  01F9  0F2D               	incfsz	___fladd@a+2,w
  3444  01FA  02A9               	subwf	___fladd@b+2,f
  3445  01FB  082E               	movf	___fladd@a+3,w
  3446  01FC  1C03               	skipc
  3447  01FD  0F2E               	incfsz	___fladd@a+3,w
  3448  01FE  02AA               	subwf	___fladd@b+3,f
  3449  01FF                     l602:	
  3450  01FF  082A               	movf	___fladd@b+3,w
  3451  0200  0429               	iorwf	___fladd@b+2,w
  3452  0201  0428               	iorwf	___fladd@b+1,w
  3453  0202  0427               	iorwf	___fladd@b,w
  3454  0203  1D03               	skipz
  3455  0204  2A06               	goto	u1561
  3456  0205  2A07               	goto	u1560
  3457  0206                     u1561:	
  3458  0206  2A33               	goto	l1666
  3459  0207                     u1560:	
  3460  0207                     l1646:	
  3461  0207  083A               	movf	___fladd@grs,w
  3462  0208  1D03               	btfss	3,2
  3463  0209  2A0B               	goto	u1571
  3464  020A  2A0C               	goto	u1570
  3465  020B                     u1571:	
  3466  020B  2A33               	goto	l1666
  3467  020C                     u1570:	
  3468  020C                     l1648:	
  3469  020C  3000               	movlw	0
  3470  020D  00AA               	movwf	?___fladd+3
  3471  020E  3000               	movlw	0
  3472  020F  00A9               	movwf	?___fladd+2
  3473  0210  3000               	movlw	0
  3474  0211  00A8               	movwf	?___fladd+1
  3475  0212  3000               	movlw	0
  3476  0213  00A7               	movwf	?___fladd
  3477  0214  2AB1               	goto	l594
  3478  0215                     l1652:	
  3479  0215  3001               	movlw	1
  3480  0216  00AF               	movwf	??___fladd
  3481  0217                     u1585:	
  3482  0217  1003               	clrc
  3483  0218  0DA7               	rlf	___fladd@b,f
  3484  0219  0DA8               	rlf	___fladd@b+1,f
  3485  021A  0DA9               	rlf	___fladd@b+2,f
  3486  021B  0DAA               	rlf	___fladd@b+3,f
  3487  021C  0BAF               	decfsz	??___fladd,f
  3488  021D  2A17               	goto	u1585
  3489  021E                     l1654:	
  3490  021E  1FBA               	btfss	___fladd@grs,7
  3491  021F  2A21               	goto	u1591
  3492  0220  2A22               	goto	u1590
  3493  0221                     u1591:	
  3494  0221  2A23               	goto	l606
  3495  0222                     u1590:	
  3496  0222                     l1656:	
  3497  0222  1427               	bsf	___fladd@b,0
  3498  0223                     l606:	
  3499  0223  1C3A               	btfss	___fladd@grs,0
  3500  0224  2A26               	goto	u1601
  3501  0225  2A27               	goto	u1600
  3502  0226                     u1601:	
  3503  0226  2A2A               	goto	l1660
  3504  0227                     u1600:	
  3505  0227                     l1658:	
  3506  0227  1403               	setc
  3507  0228  0DBA               	rlf	___fladd@grs,f
  3508  0229  2A2C               	goto	l1662
  3509  022A                     l1660:	
  3510  022A  1003               	clrc
  3511  022B  0DBA               	rlf	___fladd@grs,f
  3512  022C                     l1662:	
  3513  022C  0839               	movf	___fladd@bexp,w
  3514  022D  1903               	btfsc	3,2
  3515  022E  2A30               	goto	u1611
  3516  022F  2A31               	goto	u1610
  3517  0230                     u1611:	
  3518  0230  2A33               	goto	l1666
  3519  0231                     u1610:	
  3520  0231                     l1664:	
  3521  0231  3001               	movlw	1
  3522  0232  02B9               	subwf	___fladd@bexp,f
  3523  0233                     l1666:	
  3524  0233  1FA9               	btfss	___fladd@b+2,7
  3525  0234  2A36               	goto	u1621
  3526  0235  2A37               	goto	u1620
  3527  0236                     u1621:	
  3528  0236  2A15               	goto	l1652
  3529  0237                     u1620:	
  3530  0237                     l1668:	
  3531  0237  01B8               	clrf	___fladd@aexp
  3532  0238                     l1670:	
  3533  0238  1FBA               	btfss	___fladd@grs,7
  3534  0239  2A3B               	goto	u1631
  3535  023A  2A3C               	goto	u1630
  3536  023B                     u1631:	
  3537  023B  2A4A               	goto	l1678
  3538  023C                     u1630:	
  3539  023C                     l1672:	
  3540  023C  083A               	movf	___fladd@grs,w
  3541  023D  397F               	andlw	127
  3542  023E  1903               	btfsc	3,2
  3543  023F  2A41               	goto	u1641
  3544  0240  2A42               	goto	u1640
  3545  0241                     u1641:	
  3546  0241  2A45               	goto	l612
  3547  0242                     u1640:	
  3548  0242                     l1674:	
  3549  0242  01B8               	clrf	___fladd@aexp
  3550  0243  0AB8               	incf	___fladd@aexp,f
  3551  0244  2A4A               	goto	l1678
  3552  0245                     l612:	
  3553  0245  1C27               	btfss	___fladd@b,0
  3554  0246  2A48               	goto	u1651
  3555  0247  2A49               	goto	u1650
  3556  0248                     u1651:	
  3557  0248  2A4A               	goto	l1678
  3558  0249                     u1650:	
  3559  0249  2A42               	goto	l1674
  3560  024A                     l1678:	
  3561  024A  0838               	movf	___fladd@aexp,w
  3562  024B  1903               	btfsc	3,2
  3563  024C  2A4E               	goto	u1661
  3564  024D  2A4F               	goto	u1660
  3565  024E                     u1661:	
  3566  024E  2A83               	goto	l615
  3567  024F                     u1660:	
  3568  024F                     l1680:	
  3569  024F  3001               	movlw	1
  3570  0250  07A7               	addwf	___fladd@b,f
  3571  0251  3000               	movlw	0
  3572  0252  1803               	skipnc
  3573  0253  3001               	movlw	1
  3574  0254  07A8               	addwf	___fladd@b+1,f
  3575  0255  3000               	movlw	0
  3576  0256  1803               	skipnc
  3577  0257  3001               	movlw	1
  3578  0258  07A9               	addwf	___fladd@b+2,f
  3579  0259  3000               	movlw	0
  3580  025A  1803               	skipnc
  3581  025B  3001               	movlw	1
  3582  025C  07AA               	addwf	___fladd@b+3,f
  3583  025D                     l1682:	
  3584  025D  1C2A               	btfss	___fladd@b+3,0
  3585  025E  2A60               	goto	u1671
  3586  025F  2A61               	goto	u1670
  3587  0260                     u1671:	
  3588  0260  2A83               	goto	l615
  3589  0261                     u1670:	
  3590  0261                     l1684:	
  3591  0261  0827               	movf	___fladd@b,w
  3592  0262  00AF               	movwf	??___fladd
  3593  0263  0828               	movf	___fladd@b+1,w
  3594  0264  00B0               	movwf	??___fladd+1
  3595  0265  0829               	movf	___fladd@b+2,w
  3596  0266  00B1               	movwf	??___fladd+2
  3597  0267  082A               	movf	___fladd@b+3,w
  3598  0268  00B2               	movwf	??___fladd+3
  3599  0269  3001               	movlw	1
  3600  026A  00B3               	movwf	??___fladd+4
  3601  026B                     u1685:	
  3602  026B  0D32               	rlf	??___fladd+3,w
  3603  026C  0CB2               	rrf	??___fladd+3,f
  3604  026D  0CB1               	rrf	??___fladd+2,f
  3605  026E  0CB0               	rrf	??___fladd+1,f
  3606  026F  0CAF               	rrf	??___fladd,f
  3607  0270                     u1680:	
  3608  0270  0BB3               	decfsz	??___fladd+4,f
  3609  0271  2A6B               	goto	u1685
  3610  0272  0832               	movf	??___fladd+3,w
  3611  0273  00AA               	movwf	___fladd@b+3
  3612  0274  0831               	movf	??___fladd+2,w
  3613  0275  00A9               	movwf	___fladd@b+2
  3614  0276  0830               	movf	??___fladd+1,w
  3615  0277  00A8               	movwf	___fladd@b+1
  3616  0278  082F               	movf	??___fladd,w
  3617  0279  00A7               	movwf	___fladd@b
  3618  027A  0A39               	incf	___fladd@bexp,w
  3619  027B  1903               	btfsc	3,2
  3620  027C  2A7E               	goto	u1691
  3621  027D  2A7F               	goto	u1690
  3622  027E                     u1691:	
  3623  027E  2A83               	goto	l615
  3624  027F                     u1690:	
  3625  027F                     l1686:	
  3626  027F  3001               	movlw	1
  3627  0280  00AF               	movwf	??___fladd
  3628  0281  082F               	movf	??___fladd,w
  3629  0282  07B9               	addwf	___fladd@bexp,f
  3630  0283                     l615:	
  3631  0283  0A39               	incf	___fladd@bexp,w
  3632  0284  1903               	btfsc	3,2
  3633  0285  2A87               	goto	u1701
  3634  0286  2A88               	goto	u1700
  3635  0287                     u1701:	
  3636  0287  2A8D               	goto	l1690
  3637  0288                     u1700:	
  3638  0288                     l1688:	
  3639  0288  0839               	movf	___fladd@bexp,w
  3640  0289  1D03               	btfss	3,2
  3641  028A  2A8C               	goto	u1711
  3642  028B  2A8D               	goto	u1710
  3643  028C                     u1711:	
  3644  028C  2A9B               	goto	l1696
  3645  028D                     u1710:	
  3646  028D                     l1690:	
  3647  028D  3000               	movlw	0
  3648  028E  00AA               	movwf	___fladd@b+3
  3649  028F  3000               	movlw	0
  3650  0290  00A9               	movwf	___fladd@b+2
  3651  0291  3000               	movlw	0
  3652  0292  00A8               	movwf	___fladd@b+1
  3653  0293  3000               	movlw	0
  3654  0294  00A7               	movwf	___fladd@b
  3655  0295                     l1692:	
  3656  0295  0839               	movf	___fladd@bexp,w
  3657  0296  1D03               	btfss	3,2
  3658  0297  2A99               	goto	u1721
  3659  0298  2A9A               	goto	u1720
  3660  0299                     u1721:	
  3661  0299  2A9B               	goto	l1696
  3662  029A                     u1720:	
  3663  029A                     l1694:	
  3664  029A  01B7               	clrf	___fladd@signs
  3665  029B                     l1696:	
  3666  029B  1C39               	btfss	___fladd@bexp,0
  3667  029C  2A9E               	goto	u1731
  3668  029D  2A9F               	goto	u1730
  3669  029E                     u1731:	
  3670  029E  2AA1               	goto	l1700
  3671  029F                     u1730:	
  3672  029F                     l1698:	
  3673  029F  17A9               	bsf	___fladd@b+2,7
  3674  02A0  2AA5               	goto	l623
  3675  02A1                     l1700:	
  3676  02A1  307F               	movlw	127
  3677  02A2  00AF               	movwf	??___fladd
  3678  02A3  082F               	movf	??___fladd,w
  3679  02A4  05A9               	andwf	___fladd@b+2,f
  3680  02A5                     l623:	
  3681  02A5  0839               	movf	___fladd@bexp,w
  3682  02A6  00AF               	movwf	??___fladd
  3683  02A7  1003               	clrc
  3684  02A8  0C2F               	rrf	??___fladd,w
  3685  02A9  00B0               	movwf	??___fladd+1
  3686  02AA  0830               	movf	??___fladd+1,w
  3687  02AB  00AA               	movwf	___fladd@b+3
  3688  02AC                     l1702:	
  3689  02AC  1FB7               	btfss	___fladd@signs,7
  3690  02AD  2AAF               	goto	u1741
  3691  02AE  2AB0               	goto	u1740
  3692  02AF                     u1741:	
  3693  02AF  2AB1               	goto	l624
  3694  02B0                     u1740:	
  3695  02B0                     l1704:	
  3696  02B0  17AA               	bsf	___fladd@b+3,7
  3697  02B1                     l624:	
  3698  02B1                     l594:	
  3699  02B1  0008               	return
  3700  02B2                     __end_of___fladd:	
  3701                           
  3702                           	psect	text13
  3703  02B2                     __ptext13:	
  3704 ;; *************** function ___fldiv *****************
  3705 ;; Defined at:
  3706 ;;		line 8 in file "D:\Program Files (x86)\Microchip\xc8\v2.10\pic\sources\c90\common\sprcdiv.c"
  3707 ;; Parameters:    Size  Location     Type
  3708 ;;  a               4   27[BANK0 ] unsigned char 
  3709 ;;  b               4   31[BANK0 ] unsigned char 
  3710 ;; Auto vars:     Size  Location     Type
  3711 ;;  grs             4   47[BANK0 ] unsigned long 
  3712 ;;  rem             4   40[BANK0 ] unsigned long 
  3713 ;;  new_exp         2   45[BANK0 ] int 
  3714 ;;  aexp            1   52[BANK0 ] unsigned char 
  3715 ;;  bexp            1   51[BANK0 ] unsigned char 
  3716 ;;  sign            1   44[BANK0 ] unsigned char 
  3717 ;; Return value:  Size  Location     Type
  3718 ;;                  4   27[BANK0 ] unsigned char 
  3719 ;; Registers used:
  3720 ;;		wreg, status,2, status,0, btemp+1
  3721 ;; Tracked objects:
  3722 ;;		On entry : 0/0
  3723 ;;		On exit  : 0/0
  3724 ;;		Unchanged: 0/0
  3725 ;; Data sizes:     COMMON   BANK0   BANK1   BANK3   BANK2
  3726 ;;      Params:         0       8       0       0       0
  3727 ;;      Locals:         0      13       0       0       0
  3728 ;;      Temps:          0       5       0       0       0
  3729 ;;      Totals:         0      26       0       0       0
  3730 ;;Total ram usage:       26 bytes
  3731 ;; Hardware stack levels used:    1
  3732 ;; Hardware stack levels required when called:    2
  3733 ;; This function calls:
  3734 ;;		Nothing
  3735 ;; This function is called by:
  3736 ;;		_int_distance
  3737 ;; This function uses a non-reentrant model
  3738 ;;
  3739                           
  3740                           
  3741                           ;psect for function ___fldiv
  3742  02B2                     ___fldiv:	
  3743  02B2                     l1806:	
  3744                           ;incstack = 0
  3745                           ; Regs used in ___fldiv: [wreg+status,2+status,0+btemp+1]
  3746                           
  3747  02B2  1283               	bcf	3,5	;RP0=0, select bank0
  3748  02B3  1303               	bcf	3,6	;RP1=0, select bank0
  3749  02B4  0842               	movf	___fldiv@b+3,w
  3750  02B5  3980               	andlw	128
  3751  02B6  00C3               	movwf	??___fldiv
  3752  02B7  0843               	movf	??___fldiv,w
  3753  02B8  00CC               	movwf	___fldiv@sign
  3754  02B9                     l1808:	
  3755  02B9  0842               	movf	___fldiv@b+3,w
  3756  02BA  00C3               	movwf	??___fldiv
  3757  02BB  0743               	addwf	??___fldiv,w
  3758  02BC  00C4               	movwf	??___fldiv+1
  3759  02BD  0844               	movf	??___fldiv+1,w
  3760  02BE  00D3               	movwf	___fldiv@bexp
  3761  02BF                     l1810:	
  3762  02BF  1FC1               	btfss	___fldiv@b+2,7
  3763  02C0  2AC2               	goto	u1891
  3764  02C1  2AC3               	goto	u1890
  3765  02C2                     u1891:	
  3766  02C2  2AC4               	goto	l1814
  3767  02C3                     u1890:	
  3768  02C3                     l1812:	
  3769  02C3  1453               	bsf	___fldiv@bexp,0
  3770  02C4                     l1814:	
  3771  02C4  0853               	movf	___fldiv@bexp,w
  3772  02C5  1903               	btfsc	3,2
  3773  02C6  2AC8               	goto	u1901
  3774  02C7  2AC9               	goto	u1900
  3775  02C8                     u1901:	
  3776  02C8  2AD9               	goto	l1824
  3777  02C9                     u1900:	
  3778  02C9                     l1816:	
  3779  02C9  0A53               	incf	___fldiv@bexp,w
  3780  02CA  1D03               	btfss	3,2
  3781  02CB  2ACD               	goto	u1911
  3782  02CC  2ACE               	goto	u1910
  3783  02CD                     u1911:	
  3784  02CD  2AD6               	goto	l1820
  3785  02CE                     u1910:	
  3786  02CE                     l1818:	
  3787  02CE  3000               	movlw	0
  3788  02CF  00C2               	movwf	___fldiv@b+3
  3789  02D0  3000               	movlw	0
  3790  02D1  00C1               	movwf	___fldiv@b+2
  3791  02D2  3000               	movlw	0
  3792  02D3  00C0               	movwf	___fldiv@b+1
  3793  02D4  3000               	movlw	0
  3794  02D5  00BF               	movwf	___fldiv@b
  3795  02D6                     l1820:	
  3796  02D6  17C1               	bsf	___fldiv@b+2,7
  3797  02D7                     l1822:	
  3798  02D7  01C2               	clrf	___fldiv@b+3
  3799  02D8  2AE1               	goto	l1826
  3800  02D9                     l1824:	
  3801  02D9  3000               	movlw	0
  3802  02DA  00C2               	movwf	___fldiv@b+3
  3803  02DB  3000               	movlw	0
  3804  02DC  00C1               	movwf	___fldiv@b+2
  3805  02DD  3000               	movlw	0
  3806  02DE  00C0               	movwf	___fldiv@b+1
  3807  02DF  3000               	movlw	0
  3808  02E0  00BF               	movwf	___fldiv@b
  3809  02E1                     l1826:	
  3810  02E1  083E               	movf	___fldiv@a+3,w
  3811  02E2  3980               	andlw	128
  3812  02E3  00C3               	movwf	??___fldiv
  3813  02E4  0843               	movf	??___fldiv,w
  3814  02E5  06CC               	xorwf	___fldiv@sign,f
  3815  02E6                     l1828:	
  3816  02E6  083E               	movf	___fldiv@a+3,w
  3817  02E7  00C3               	movwf	??___fldiv
  3818  02E8  0743               	addwf	??___fldiv,w
  3819  02E9  00C4               	movwf	??___fldiv+1
  3820  02EA  0844               	movf	??___fldiv+1,w
  3821  02EB  00D4               	movwf	___fldiv@aexp
  3822  02EC                     l1830:	
  3823  02EC  1FBD               	btfss	___fldiv@a+2,7
  3824  02ED  2AEF               	goto	u1921
  3825  02EE  2AF0               	goto	u1920
  3826  02EF                     u1921:	
  3827  02EF  2AF1               	goto	l1834
  3828  02F0                     u1920:	
  3829  02F0                     l1832:	
  3830  02F0  1454               	bsf	___fldiv@aexp,0
  3831  02F1                     l1834:	
  3832  02F1  0854               	movf	___fldiv@aexp,w
  3833  02F2  1903               	btfsc	3,2
  3834  02F3  2AF5               	goto	u1931
  3835  02F4  2AF6               	goto	u1930
  3836  02F5                     u1931:	
  3837  02F5  2B06               	goto	l1844
  3838  02F6                     u1930:	
  3839  02F6                     l1836:	
  3840  02F6  0A54               	incf	___fldiv@aexp,w
  3841  02F7  1D03               	btfss	3,2
  3842  02F8  2AFA               	goto	u1941
  3843  02F9  2AFB               	goto	u1940
  3844  02FA                     u1941:	
  3845  02FA  2B03               	goto	l1840
  3846  02FB                     u1940:	
  3847  02FB                     l1838:	
  3848  02FB  3000               	movlw	0
  3849  02FC  00BE               	movwf	___fldiv@a+3
  3850  02FD  3000               	movlw	0
  3851  02FE  00BD               	movwf	___fldiv@a+2
  3852  02FF  3000               	movlw	0
  3853  0300  00BC               	movwf	___fldiv@a+1
  3854  0301  3000               	movlw	0
  3855  0302  00BB               	movwf	___fldiv@a
  3856  0303                     l1840:	
  3857  0303  17BD               	bsf	___fldiv@a+2,7
  3858  0304                     l1842:	
  3859  0304  01BE               	clrf	___fldiv@a+3
  3860  0305  2B0E               	goto	l637
  3861  0306                     l1844:	
  3862  0306  3000               	movlw	0
  3863  0307  00BE               	movwf	___fldiv@a+3
  3864  0308  3000               	movlw	0
  3865  0309  00BD               	movwf	___fldiv@a+2
  3866  030A  3000               	movlw	0
  3867  030B  00BC               	movwf	___fldiv@a+1
  3868  030C  3000               	movlw	0
  3869  030D  00BB               	movwf	___fldiv@a
  3870  030E                     l637:	
  3871  030E  083E               	movf	___fldiv@a+3,w
  3872  030F  043D               	iorwf	___fldiv@a+2,w
  3873  0310  043C               	iorwf	___fldiv@a+1,w
  3874  0311  043B               	iorwf	___fldiv@a,w
  3875  0312  1D03               	skipz
  3876  0313  2B15               	goto	u1951
  3877  0314  2B16               	goto	u1950
  3878  0315                     u1951:	
  3879  0315  2B2F               	goto	l1854
  3880  0316                     u1950:	
  3881  0316                     l1846:	
  3882  0316  3000               	movlw	0
  3883  0317  00C2               	movwf	___fldiv@b+3
  3884  0318  3000               	movlw	0
  3885  0319  00C1               	movwf	___fldiv@b+2
  3886  031A  3000               	movlw	0
  3887  031B  00C0               	movwf	___fldiv@b+1
  3888  031C  3000               	movlw	0
  3889  031D  00BF               	movwf	___fldiv@b
  3890  031E  3080               	movlw	128
  3891  031F  04C1               	iorwf	___fldiv@b+2,f
  3892  0320  307F               	movlw	127
  3893  0321  04C2               	iorwf	___fldiv@b+3,f
  3894  0322                     l1848:	
  3895  0322  084C               	movf	___fldiv@sign,w
  3896  0323  00C3               	movwf	??___fldiv
  3897  0324  0843               	movf	??___fldiv,w
  3898  0325  04C2               	iorwf	___fldiv@b+3,f
  3899  0326                     l1850:	
  3900  0326  0842               	movf	___fldiv@b+3,w
  3901  0327  00BE               	movwf	?___fldiv+3
  3902  0328  0841               	movf	___fldiv@b+2,w
  3903  0329  00BD               	movwf	?___fldiv+2
  3904  032A  0840               	movf	___fldiv@b+1,w
  3905  032B  00BC               	movwf	?___fldiv+1
  3906  032C  083F               	movf	___fldiv@b,w
  3907  032D  00BB               	movwf	?___fldiv
  3908  032E  2C8E               	goto	l639
  3909  032F                     l1854:	
  3910  032F  0853               	movf	___fldiv@bexp,w
  3911  0330  1D03               	btfss	3,2
  3912  0331  2B33               	goto	u1961
  3913  0332  2B34               	goto	u1960
  3914  0333                     u1961:	
  3915  0333  2B3D               	goto	l1860
  3916  0334                     u1960:	
  3917  0334                     l1856:	
  3918  0334  3000               	movlw	0
  3919  0335  00BE               	movwf	?___fldiv+3
  3920  0336  3000               	movlw	0
  3921  0337  00BD               	movwf	?___fldiv+2
  3922  0338  3000               	movlw	0
  3923  0339  00BC               	movwf	?___fldiv+1
  3924  033A  3000               	movlw	0
  3925  033B  00BB               	movwf	?___fldiv
  3926  033C  2C8E               	goto	l639
  3927  033D                     l1860:	
  3928  033D  0853               	movf	___fldiv@bexp,w
  3929  033E  00C3               	movwf	??___fldiv
  3930  033F  01C4               	clrf	??___fldiv+1
  3931  0340  0844               	movf	??___fldiv+1,w
  3932  0341  00C6               	movwf	??___fldiv+3
  3933  0342  0854               	movf	___fldiv@aexp,w
  3934  0343  0243               	subwf	??___fldiv,w
  3935  0344  00C5               	movwf	??___fldiv+2
  3936  0345  1C03               	skipc
  3937  0346  03C6               	decf	??___fldiv+3,f
  3938  0347  0845               	movf	??___fldiv+2,w
  3939  0348  3E7F               	addlw	127
  3940  0349  00CD               	movwf	___fldiv@new_exp
  3941  034A  0846               	movf	??___fldiv+3,w
  3942  034B  1803               	skipnc
  3943  034C  3E01               	addlw	1
  3944  034D  3E00               	addlw	0
  3945  034E  00CE               	movwf	___fldiv@new_exp+1
  3946  034F                     l1862:	
  3947  034F  0842               	movf	___fldiv@b+3,w
  3948  0350  00CB               	movwf	___fldiv@rem+3
  3949  0351  0841               	movf	___fldiv@b+2,w
  3950  0352  00CA               	movwf	___fldiv@rem+2
  3951  0353  0840               	movf	___fldiv@b+1,w
  3952  0354  00C9               	movwf	___fldiv@rem+1
  3953  0355  083F               	movf	___fldiv@b,w
  3954  0356  00C8               	movwf	___fldiv@rem
  3955  0357                     l1864:	
  3956  0357  3000               	movlw	0
  3957  0358  00C2               	movwf	___fldiv@b+3
  3958  0359  3000               	movlw	0
  3959  035A  00C1               	movwf	___fldiv@b+2
  3960  035B  3000               	movlw	0
  3961  035C  00C0               	movwf	___fldiv@b+1
  3962  035D  3000               	movlw	0
  3963  035E  00BF               	movwf	___fldiv@b
  3964  035F                     l1866:	
  3965  035F  3000               	movlw	0
  3966  0360  00D2               	movwf	___fldiv@grs+3
  3967  0361  3000               	movlw	0
  3968  0362  00D1               	movwf	___fldiv@grs+2
  3969  0363  3000               	movlw	0
  3970  0364  00D0               	movwf	___fldiv@grs+1
  3971  0365  3000               	movlw	0
  3972  0366  00CF               	movwf	___fldiv@grs
  3973  0367                     l1868:	
  3974  0367  01D4               	clrf	___fldiv@aexp
  3975  0368  2BB3               	goto	l1888
  3976  0369                     l1870:	
  3977  0369  0854               	movf	___fldiv@aexp,w
  3978  036A  1903               	btfsc	3,2
  3979  036B  2B6D               	goto	u1971
  3980  036C  2B6E               	goto	u1970
  3981  036D                     u1971:	
  3982  036D  2B8E               	goto	l1880
  3983  036E                     u1970:	
  3984  036E                     l1872:	
  3985  036E  3001               	movlw	1
  3986  036F  00C3               	movwf	??___fldiv
  3987  0370                     u1985:	
  3988  0370  1003               	clrc
  3989  0371  0DC8               	rlf	___fldiv@rem,f
  3990  0372  0DC9               	rlf	___fldiv@rem+1,f
  3991  0373  0DCA               	rlf	___fldiv@rem+2,f
  3992  0374  0DCB               	rlf	___fldiv@rem+3,f
  3993  0375  0BC3               	decfsz	??___fldiv,f
  3994  0376  2B70               	goto	u1985
  3995  0377  3001               	movlw	1
  3996  0378  00C3               	movwf	??___fldiv
  3997  0379                     u1995:	
  3998  0379  1003               	clrc
  3999  037A  0DBF               	rlf	___fldiv@b,f
  4000  037B  0DC0               	rlf	___fldiv@b+1,f
  4001  037C  0DC1               	rlf	___fldiv@b+2,f
  4002  037D  0DC2               	rlf	___fldiv@b+3,f
  4003  037E  0BC3               	decfsz	??___fldiv,f
  4004  037F  2B79               	goto	u1995
  4005  0380                     l1874:	
  4006  0380  1FD2               	btfss	___fldiv@grs+3,7
  4007  0381  2B83               	goto	u2001
  4008  0382  2B84               	goto	u2000
  4009  0383                     u2001:	
  4010  0383  2B85               	goto	l1878
  4011  0384                     u2000:	
  4012  0384                     l1876:	
  4013  0384  143F               	bsf	___fldiv@b,0
  4014  0385                     l1878:	
  4015  0385  3001               	movlw	1
  4016  0386  00C3               	movwf	??___fldiv
  4017  0387                     u2015:	
  4018  0387  1003               	clrc
  4019  0388  0DCF               	rlf	___fldiv@grs,f
  4020  0389  0DD0               	rlf	___fldiv@grs+1,f
  4021  038A  0DD1               	rlf	___fldiv@grs+2,f
  4022  038B  0DD2               	rlf	___fldiv@grs+3,f
  4023  038C  0BC3               	decfsz	??___fldiv,f
  4024  038D  2B87               	goto	u2015
  4025  038E                     l1880:	
  4026  038E  083E               	movf	___fldiv@a+3,w
  4027  038F  024B               	subwf	___fldiv@rem+3,w
  4028  0390  1D03               	skipz
  4029  0391  2B9C               	goto	u2025
  4030  0392  083D               	movf	___fldiv@a+2,w
  4031  0393  024A               	subwf	___fldiv@rem+2,w
  4032  0394  1D03               	skipz
  4033  0395  2B9C               	goto	u2025
  4034  0396  083C               	movf	___fldiv@a+1,w
  4035  0397  0249               	subwf	___fldiv@rem+1,w
  4036  0398  1D03               	skipz
  4037  0399  2B9C               	goto	u2025
  4038  039A  083B               	movf	___fldiv@a,w
  4039  039B  0248               	subwf	___fldiv@rem,w
  4040  039C                     u2025:	
  4041  039C  1C03               	skipc
  4042  039D  2B9F               	goto	u2021
  4043  039E  2BA0               	goto	u2020
  4044  039F                     u2021:	
  4045  039F  2BAF               	goto	l1886
  4046  03A0                     u2020:	
  4047  03A0                     l1882:	
  4048  03A0  1752               	bsf	___fldiv@grs+3,6
  4049  03A1                     l1884:	
  4050  03A1  083B               	movf	___fldiv@a,w
  4051  03A2  02C8               	subwf	___fldiv@rem,f
  4052  03A3  083C               	movf	___fldiv@a+1,w
  4053  03A4  1C03               	skipc
  4054  03A5  0F3C               	incfsz	___fldiv@a+1,w
  4055  03A6  02C9               	subwf	___fldiv@rem+1,f
  4056  03A7  083D               	movf	___fldiv@a+2,w
  4057  03A8  1C03               	skipc
  4058  03A9  0F3D               	incfsz	___fldiv@a+2,w
  4059  03AA  02CA               	subwf	___fldiv@rem+2,f
  4060  03AB  083E               	movf	___fldiv@a+3,w
  4061  03AC  1C03               	skipc
  4062  03AD  0F3E               	incfsz	___fldiv@a+3,w
  4063  03AE  02CB               	subwf	___fldiv@rem+3,f
  4064  03AF                     l1886:	
  4065  03AF  3001               	movlw	1
  4066  03B0  00C3               	movwf	??___fldiv
  4067  03B1  0843               	movf	??___fldiv,w
  4068  03B2  07D4               	addwf	___fldiv@aexp,f
  4069  03B3                     l1888:	
  4070  03B3  301A               	movlw	26
  4071  03B4  0254               	subwf	___fldiv@aexp,w
  4072  03B5  1C03               	skipc
  4073  03B6  2BB8               	goto	u2031
  4074  03B7  2BB9               	goto	u2030
  4075  03B8                     u2031:	
  4076  03B8  2B69               	goto	l1870
  4077  03B9                     u2030:	
  4078  03B9                     l1890:	
  4079  03B9  084B               	movf	___fldiv@rem+3,w
  4080  03BA  044A               	iorwf	___fldiv@rem+2,w
  4081  03BB  0449               	iorwf	___fldiv@rem+1,w
  4082  03BC  0448               	iorwf	___fldiv@rem,w
  4083  03BD  1903               	skipnz
  4084  03BE  2BC0               	goto	u2041
  4085  03BF  2BC1               	goto	u2040
  4086  03C0                     u2041:	
  4087  03C0  2BE0               	goto	l1904
  4088  03C1                     u2040:	
  4089  03C1                     l1892:	
  4090  03C1  144F               	bsf	___fldiv@grs,0
  4091  03C2  2BE0               	goto	l1904
  4092  03C3                     l1894:	
  4093  03C3  3001               	movlw	1
  4094  03C4  00C3               	movwf	??___fldiv
  4095  03C5                     u2055:	
  4096  03C5  1003               	clrc
  4097  03C6  0DBF               	rlf	___fldiv@b,f
  4098  03C7  0DC0               	rlf	___fldiv@b+1,f
  4099  03C8  0DC1               	rlf	___fldiv@b+2,f
  4100  03C9  0DC2               	rlf	___fldiv@b+3,f
  4101  03CA  0BC3               	decfsz	??___fldiv,f
  4102  03CB  2BC5               	goto	u2055
  4103  03CC                     l1896:	
  4104  03CC  1FD2               	btfss	___fldiv@grs+3,7
  4105  03CD  2BCF               	goto	u2061
  4106  03CE  2BD0               	goto	u2060
  4107  03CF                     u2061:	
  4108  03CF  2BD1               	goto	l1900
  4109  03D0                     u2060:	
  4110  03D0                     l1898:	
  4111  03D0  143F               	bsf	___fldiv@b,0
  4112  03D1                     l1900:	
  4113  03D1  3001               	movlw	1
  4114  03D2  00C3               	movwf	??___fldiv
  4115  03D3                     u2075:	
  4116  03D3  1003               	clrc
  4117  03D4  0DCF               	rlf	___fldiv@grs,f
  4118  03D5  0DD0               	rlf	___fldiv@grs+1,f
  4119  03D6  0DD1               	rlf	___fldiv@grs+2,f
  4120  03D7  0DD2               	rlf	___fldiv@grs+3,f
  4121  03D8  0BC3               	decfsz	??___fldiv,f
  4122  03D9  2BD3               	goto	u2075
  4123  03DA                     l1902:	
  4124  03DA  30FF               	movlw	255
  4125  03DB  07CD               	addwf	___fldiv@new_exp,f
  4126  03DC  1803               	skipnc
  4127  03DD  0ACE               	incf	___fldiv@new_exp+1,f
  4128  03DE  30FF               	movlw	255
  4129  03DF  07CE               	addwf	___fldiv@new_exp+1,f
  4130  03E0                     l1904:	
  4131  03E0  1FC1               	btfss	___fldiv@b+2,7
  4132  03E1  2BE3               	goto	u2081
  4133  03E2  2BE4               	goto	u2080
  4134  03E3                     u2081:	
  4135  03E3  2BC3               	goto	l1894
  4136  03E4                     u2080:	
  4137  03E4                     l1906:	
  4138  03E4  01D4               	clrf	___fldiv@aexp
  4139  03E5                     l1908:	
  4140  03E5  1FD2               	btfss	___fldiv@grs+3,7
  4141  03E6  2BE8               	goto	u2091
  4142  03E7  2BE9               	goto	u2090
  4143  03E8                     u2091:	
  4144  03E8  2C05               	goto	l1916
  4145  03E9                     u2090:	
  4146  03E9                     l1910:	
  4147  03E9  30FF               	movlw	255
  4148  03EA  054F               	andwf	___fldiv@grs,w
  4149  03EB  00C3               	movwf	??___fldiv
  4150  03EC  30FF               	movlw	255
  4151  03ED  0550               	andwf	___fldiv@grs+1,w
  4152  03EE  00C4               	movwf	??___fldiv+1
  4153  03EF  30FF               	movlw	255
  4154  03F0  0551               	andwf	___fldiv@grs+2,w
  4155  03F1  00C5               	movwf	??___fldiv+2
  4156  03F2  307F               	movlw	127
  4157  03F3  0552               	andwf	___fldiv@grs+3,w
  4158  03F4  00C6               	movwf	??___fldiv+3
  4159  03F5  0846               	movf	??___fldiv+3,w
  4160  03F6  0445               	iorwf	??___fldiv+2,w
  4161  03F7  0444               	iorwf	??___fldiv+1,w
  4162  03F8  0443               	iorwf	??___fldiv,w
  4163  03F9  1903               	skipnz
  4164  03FA  2BFC               	goto	u2101
  4165  03FB  2BFD               	goto	u2100
  4166  03FC                     u2101:	
  4167  03FC  2C00               	goto	l653
  4168  03FD                     u2100:	
  4169  03FD                     l1912:	
  4170  03FD  01D4               	clrf	___fldiv@aexp
  4171  03FE  0AD4               	incf	___fldiv@aexp,f
  4172  03FF  2C05               	goto	l1916
  4173  0400                     l653:	
  4174  0400  1C3F               	btfss	___fldiv@b,0
  4175  0401  2C03               	goto	u2111
  4176  0402  2C04               	goto	u2110
  4177  0403                     u2111:	
  4178  0403  2C05               	goto	l1916
  4179  0404                     u2110:	
  4180  0404  2BFD               	goto	l1912
  4181  0405                     l1916:	
  4182  0405  0854               	movf	___fldiv@aexp,w
  4183  0406  1903               	btfsc	3,2
  4184  0407  2C09               	goto	u2121
  4185  0408  2C0A               	goto	u2120
  4186  0409                     u2121:	
  4187  0409  2C3B               	goto	l1926
  4188  040A                     u2120:	
  4189  040A                     l1918:	
  4190  040A  3001               	movlw	1
  4191  040B  07BF               	addwf	___fldiv@b,f
  4192  040C  3000               	movlw	0
  4193  040D  1803               	skipnc
  4194  040E  3001               	movlw	1
  4195  040F  07C0               	addwf	___fldiv@b+1,f
  4196  0410  3000               	movlw	0
  4197  0411  1803               	skipnc
  4198  0412  3001               	movlw	1
  4199  0413  07C1               	addwf	___fldiv@b+2,f
  4200  0414  3000               	movlw	0
  4201  0415  1803               	skipnc
  4202  0416  3001               	movlw	1
  4203  0417  07C2               	addwf	___fldiv@b+3,f
  4204  0418                     l1920:	
  4205  0418  1C42               	btfss	___fldiv@b+3,0
  4206  0419  2C1B               	goto	u2131
  4207  041A  2C1C               	goto	u2130
  4208  041B                     u2131:	
  4209  041B  2C3B               	goto	l1926
  4210  041C                     u2130:	
  4211  041C                     l1922:	
  4212  041C  083F               	movf	___fldiv@b,w
  4213  041D  00C3               	movwf	??___fldiv
  4214  041E  0840               	movf	___fldiv@b+1,w
  4215  041F  00C4               	movwf	??___fldiv+1
  4216  0420  0841               	movf	___fldiv@b+2,w
  4217  0421  00C5               	movwf	??___fldiv+2
  4218  0422  0842               	movf	___fldiv@b+3,w
  4219  0423  00C6               	movwf	??___fldiv+3
  4220  0424  3001               	movlw	1
  4221  0425  00C7               	movwf	??___fldiv+4
  4222  0426                     u2145:	
  4223  0426  0D46               	rlf	??___fldiv+3,w
  4224  0427  0CC6               	rrf	??___fldiv+3,f
  4225  0428  0CC5               	rrf	??___fldiv+2,f
  4226  0429  0CC4               	rrf	??___fldiv+1,f
  4227  042A  0CC3               	rrf	??___fldiv,f
  4228  042B                     u2140:	
  4229  042B  0BC7               	decfsz	??___fldiv+4,f
  4230  042C  2C26               	goto	u2145
  4231  042D  0846               	movf	??___fldiv+3,w
  4232  042E  00C2               	movwf	___fldiv@b+3
  4233  042F  0845               	movf	??___fldiv+2,w
  4234  0430  00C1               	movwf	___fldiv@b+2
  4235  0431  0844               	movf	??___fldiv+1,w
  4236  0432  00C0               	movwf	___fldiv@b+1
  4237  0433  0843               	movf	??___fldiv,w
  4238  0434  00BF               	movwf	___fldiv@b
  4239  0435                     l1924:	
  4240  0435  3001               	movlw	1
  4241  0436  07CD               	addwf	___fldiv@new_exp,f
  4242  0437  1803               	skipnc
  4243  0438  0ACE               	incf	___fldiv@new_exp+1,f
  4244  0439  3000               	movlw	0
  4245  043A  07CE               	addwf	___fldiv@new_exp+1,f
  4246  043B                     l1926:	
  4247  043B  084E               	movf	___fldiv@new_exp+1,w
  4248  043C  3A80               	xorlw	128
  4249  043D  00FF               	movwf	btemp+1
  4250  043E  3080               	movlw	128
  4251  043F  027F               	subwf	btemp+1,w
  4252  0440  1D03               	skipz
  4253  0441  2C44               	goto	u2155
  4254  0442  30FF               	movlw	255
  4255  0443  024D               	subwf	___fldiv@new_exp,w
  4256  0444                     u2155:	
  4257  0444  1C03               	skipc
  4258  0445  2C47               	goto	u2151
  4259  0446  2C48               	goto	u2150
  4260  0447                     u2151:	
  4261  0447  2C56               	goto	l1930
  4262  0448                     u2150:	
  4263  0448                     l1928:	
  4264  0448  30FF               	movlw	255
  4265  0449  1283               	bcf	3,5	;RP0=0, select bank0
  4266  044A  1303               	bcf	3,6	;RP1=0, select bank0
  4267  044B  00CD               	movwf	___fldiv@new_exp
  4268  044C  3000               	movlw	0
  4269  044D  00CE               	movwf	___fldiv@new_exp+1
  4270  044E  3000               	movlw	0
  4271  044F  00C2               	movwf	___fldiv@b+3
  4272  0450  3000               	movlw	0
  4273  0451  00C1               	movwf	___fldiv@b+2
  4274  0452  3000               	movlw	0
  4275  0453  00C0               	movwf	___fldiv@b+1
  4276  0454  3000               	movlw	0
  4277  0455  00BF               	movwf	___fldiv@b
  4278  0456                     l1930:	
  4279  0456  1283               	bcf	3,5	;RP0=0, select bank0
  4280  0457  1303               	bcf	3,6	;RP1=0, select bank0
  4281  0458  084E               	movf	___fldiv@new_exp+1,w
  4282  0459  3A80               	xorlw	128
  4283  045A  00FF               	movwf	btemp+1
  4284  045B  3080               	movlw	128
  4285  045C  027F               	subwf	btemp+1,w
  4286  045D  1D03               	skipz
  4287  045E  2C61               	goto	u2165
  4288  045F  3001               	movlw	1
  4289  0460  024D               	subwf	___fldiv@new_exp,w
  4290  0461                     u2165:	
  4291  0461  1803               	skipnc
  4292  0462  2C64               	goto	u2161
  4293  0463  2C65               	goto	u2160
  4294  0464                     u2161:	
  4295  0464  2C72               	goto	l659
  4296  0465                     u2160:	
  4297  0465                     l1932:	
  4298  0465  1283               	bcf	3,5	;RP0=0, select bank0
  4299  0466  1303               	bcf	3,6	;RP1=0, select bank0
  4300  0467  01CD               	clrf	___fldiv@new_exp
  4301  0468  01CE               	clrf	___fldiv@new_exp+1
  4302  0469                     l1934:	
  4303  0469  3000               	movlw	0
  4304  046A  00C2               	movwf	___fldiv@b+3
  4305  046B  3000               	movlw	0
  4306  046C  00C1               	movwf	___fldiv@b+2
  4307  046D  3000               	movlw	0
  4308  046E  00C0               	movwf	___fldiv@b+1
  4309  046F  3000               	movlw	0
  4310  0470  00BF               	movwf	___fldiv@b
  4311  0471                     l1936:	
  4312  0471  01CC               	clrf	___fldiv@sign
  4313  0472                     l659:	
  4314  0472  1283               	bcf	3,5	;RP0=0, select bank0
  4315  0473  1303               	bcf	3,6	;RP1=0, select bank0
  4316  0474  084D               	movf	___fldiv@new_exp,w
  4317  0475  00C3               	movwf	??___fldiv
  4318  0476  0843               	movf	??___fldiv,w
  4319  0477  00D3               	movwf	___fldiv@bexp
  4320  0478                     l1938:	
  4321  0478  1C53               	btfss	___fldiv@bexp,0
  4322  0479  2C7B               	goto	u2171
  4323  047A  2C7C               	goto	u2170
  4324  047B                     u2171:	
  4325  047B  2C7E               	goto	l1942
  4326  047C                     u2170:	
  4327  047C                     l1940:	
  4328  047C  17C1               	bsf	___fldiv@b+2,7
  4329  047D  2C82               	goto	l661
  4330  047E                     l1942:	
  4331  047E  307F               	movlw	127
  4332  047F  00C3               	movwf	??___fldiv
  4333  0480  0843               	movf	??___fldiv,w
  4334  0481  05C1               	andwf	___fldiv@b+2,f
  4335  0482                     l661:	
  4336  0482  0853               	movf	___fldiv@bexp,w
  4337  0483  00C3               	movwf	??___fldiv
  4338  0484  1003               	clrc
  4339  0485  0C43               	rrf	??___fldiv,w
  4340  0486  00C4               	movwf	??___fldiv+1
  4341  0487  0844               	movf	??___fldiv+1,w
  4342  0488  00C2               	movwf	___fldiv@b+3
  4343  0489  084C               	movf	___fldiv@sign,w
  4344  048A  00C3               	movwf	??___fldiv
  4345  048B  0843               	movf	??___fldiv,w
  4346  048C  04C2               	iorwf	___fldiv@b+3,f
  4347  048D  2B26               	goto	l1850
  4348  048E                     l639:	
  4349  048E  0008               	return
  4350  048F                     __end_of___fldiv:	
  4351                           
  4352                           	psect	text14
  4353  0F76                     __ptext14:	
  4354 ;; *************** function _isr *****************
  4355 ;; Defined at:
  4356 ;;		line 50 in file "main.c"
  4357 ;; Parameters:    Size  Location     Type
  4358 ;;		None
  4359 ;; Auto vars:     Size  Location     Type
  4360 ;;		None
  4361 ;; Return value:  Size  Location     Type
  4362 ;;                  1    wreg      void 
  4363 ;; Registers used:
  4364 ;;		wreg, fsr0l, fsr0h, status,2, status,0, pclath, cstack
  4365 ;; Tracked objects:
  4366 ;;		On entry : 0/0
  4367 ;;		On exit  : 0/0
  4368 ;;		Unchanged: 0/0
  4369 ;; Data sizes:     COMMON   BANK0   BANK1   BANK3   BANK2
  4370 ;;      Params:         0       0       0       0       0
  4371 ;;      Locals:         0       0       0       0       0
  4372 ;;      Temps:          0       7       0       0       0
  4373 ;;      Totals:         0       7       0       0       0
  4374 ;;Total ram usage:        7 bytes
  4375 ;; Hardware stack levels used:    1
  4376 ;; Hardware stack levels required when called:    1
  4377 ;; This function calls:
  4378 ;;		_select
  4379 ;; This function is called by:
  4380 ;;		Interrupt level 1
  4381 ;; This function uses a non-reentrant model
  4382 ;;
  4383                           
  4384                           
  4385                           ;psect for function _isr
  4386  0F76                     _isr:	
  4387  0F76                     i1l2072:	
  4388                           
  4389                           ;main.c: 51:     if(PIR1bits.SSPIF==1){
  4390  0F76  1D8C               	btfss	12,3	;volatile
  4391  0F77  2F79               	goto	u239_21
  4392  0F78  2F7A               	goto	u239_20
  4393  0F79                     u239_21:	
  4394  0F79  2FF7               	goto	i1l62
  4395  0F7A                     u239_20:	
  4396  0F7A                     i1l2074:	
  4397                           
  4398                           ;main.c: 52:         SSPCONbits.CKP = 0;
  4399  0F7A  1214               	bcf	20,4	;volatile
  4400                           
  4401                           ;main.c: 54:         if ((SSPCONbits.SSPOV) || (SSPCONbits.WCOL)){
  4402  0F7B  1B14               	btfsc	20,6	;volatile
  4403  0F7C  2F7E               	goto	u240_21
  4404  0F7D  2F7F               	goto	u240_20
  4405  0F7E                     u240_21:	
  4406  0F7E  2F83               	goto	i1l2078
  4407  0F7F                     u240_20:	
  4408  0F7F                     i1l2076:	
  4409  0F7F  1F94               	btfss	20,7	;volatile
  4410  0F80  2F82               	goto	u241_21
  4411  0F81  2F83               	goto	u241_20
  4412  0F82                     u241_21:	
  4413  0F82  2F8A               	goto	i1l2086
  4414  0F83                     u241_20:	
  4415  0F83                     i1l2078:	
  4416                           
  4417                           ;main.c: 55:             z = SSPBUF;
  4418  0F83  0813               	movf	19,w	;volatile
  4419  0F84  00A0               	movwf	??_isr
  4420  0F85  0820               	movf	??_isr,w
  4421  0F86  00E6               	movwf	_z
  4422  0F87                     i1l2080:	
  4423                           
  4424                           ;main.c: 56:             SSPCONbits.SSPOV = 0;
  4425  0F87  1314               	bcf	20,6	;volatile
  4426  0F88                     i1l2082:	
  4427                           
  4428                           ;main.c: 57:             SSPCONbits.WCOL = 0;
  4429  0F88  1394               	bcf	20,7	;volatile
  4430  0F89                     i1l2084:	
  4431                           
  4432                           ;main.c: 58:             SSPCONbits.CKP = 1;
  4433  0F89  1614               	bsf	20,4	;volatile
  4434  0F8A                     i1l2086:	
  4435                           
  4436                           ;main.c: 61:         if(!SSPSTATbits.D_nA && !SSPSTATbits.R_nW) {
  4437  0F8A  1683               	bsf	3,5	;RP0=1, select bank1
  4438  0F8B  1303               	bcf	3,6	;RP1=0, select bank1
  4439  0F8C  1A94               	btfsc	20,5	;volatile
  4440  0F8D  2F8F               	goto	u242_21
  4441  0F8E  2F90               	goto	u242_20
  4442  0F8F                     u242_21:	
  4443  0F8F  2FB0               	goto	i1l53
  4444  0F90                     u242_20:	
  4445  0F90                     i1l2088:	
  4446  0F90  1914               	btfsc	20,2	;volatile
  4447  0F91  2F93               	goto	u243_21
  4448  0F92  2F94               	goto	u243_20
  4449  0F93                     u243_21:	
  4450  0F93  2FB0               	goto	i1l53
  4451  0F94                     u243_20:	
  4452  0F94                     i1l2090:	
  4453                           
  4454                           ;main.c: 63:             z = SSPBUF;
  4455  0F94  1283               	bcf	3,5	;RP0=0, select bank0
  4456  0F95  1303               	bcf	3,6	;RP1=0, select bank0
  4457  0F96  0813               	movf	19,w	;volatile
  4458  0F97  00A0               	movwf	??_isr
  4459  0F98  0820               	movf	??_isr,w
  4460  0F99  00E6               	movwf	_z
  4461  0F9A                     i1l2092:	
  4462                           
  4463                           ;main.c: 65:             PIR1bits.SSPIF = 0;
  4464  0F9A  118C               	bcf	12,3	;volatile
  4465  0F9B                     i1l2094:	
  4466                           
  4467                           ;main.c: 66:             SSPCONbits.CKP = 1;
  4468  0F9B  1614               	bsf	20,4	;volatile
  4469  0F9C                     i1l54:	
  4470                           ;main.c: 67:             while(!SSPSTATbits.BF);
  4471                           
  4472  0F9C  1683               	bsf	3,5	;RP0=1, select bank1
  4473  0F9D  1303               	bcf	3,6	;RP1=0, select bank1
  4474  0F9E  1C14               	btfss	20,0	;volatile
  4475  0F9F  2FA1               	goto	u244_21
  4476  0FA0  2FA2               	goto	u244_20
  4477  0FA1                     u244_21:	
  4478  0FA1  2F9C               	goto	i1l54
  4479  0FA2                     u244_20:	
  4480  0FA2                     i1l2096:	
  4481                           
  4482                           ;main.c: 68:             borrar = SSPBUF;
  4483  0FA2  1283               	bcf	3,5	;RP0=0, select bank0
  4484  0FA3  1303               	bcf	3,6	;RP1=0, select bank0
  4485  0FA4  0813               	movf	19,w	;volatile
  4486  0FA5  00A0               	movwf	??_isr
  4487  0FA6  0820               	movf	??_isr,w
  4488  0FA7  00E7               	movwf	_borrar
  4489                           
  4490                           ;main.c: 69:             _delay((unsigned long)((250)*(4000000/4000000.0)));
  4491  0FA8  3052               	movlw	82
  4492  0FA9  1283               	bcf	3,5	;RP0=0, select bank0
  4493  0FAA  1303               	bcf	3,6	;RP1=0, select bank0
  4494  0FAB  00A0               	movwf	??_isr
  4495  0FAC                     u273_27:	
  4496  0FAC  0BA0               	decfsz	??_isr,f
  4497  0FAD  2FAC               	goto	u273_27
  4498  0FAE  0000               	nop
  4499                           
  4500                           ;main.c: 70:         }else if(!SSPSTATbits.D_nA && SSPSTATbits.R_nW){
  4501  0FAF  2FF4               	goto	i1l57
  4502  0FB0                     i1l53:	
  4503  0FB0  1A94               	btfsc	20,5	;volatile
  4504  0FB1  2FB3               	goto	u245_21
  4505  0FB2  2FB4               	goto	u245_20
  4506  0FB3                     u245_21:	
  4507  0FB3  2FF4               	goto	i1l57
  4508  0FB4                     u245_20:	
  4509  0FB4                     i1l2098:	
  4510  0FB4  1D14               	btfss	20,2	;volatile
  4511  0FB5  2FB7               	goto	u246_21
  4512  0FB6  2FB8               	goto	u246_20
  4513  0FB7                     u246_21:	
  4514  0FB7  2FF4               	goto	i1l57
  4515  0FB8                     u246_20:	
  4516  0FB8                     i1l2100:	
  4517                           
  4518                           ;main.c: 71:             z = SSPBUF;
  4519  0FB8  1283               	bcf	3,5	;RP0=0, select bank0
  4520  0FB9  1303               	bcf	3,6	;RP1=0, select bank0
  4521  0FBA  0813               	movf	19,w	;volatile
  4522  0FBB  00A0               	movwf	??_isr
  4523  0FBC  0820               	movf	??_isr,w
  4524  0FBD  00E6               	movwf	_z
  4525  0FBE                     i1l2102:	
  4526                           
  4527                           ;main.c: 72:             BF = 0;
  4528  0FBE  1683               	bsf	3,5	;RP0=1, select bank1
  4529  0FBF  1303               	bcf	3,6	;RP1=0, select bank1
  4530  0FC0  1014               	bcf	20,0	;volatile
  4531  0FC1                     i1l2104:	
  4532                           
  4533                           ;main.c: 73:             mandar=select(c1, d1, u1, &contador,temperatura1);
  4534  0FC1  087C               	movf	_d1,w
  4535  0FC2  1283               	bcf	3,5	;RP0=0, select bank0
  4536  0FC3  1303               	bcf	3,6	;RP1=0, select bank0
  4537  0FC4  00A0               	movwf	??_isr
  4538  0FC5  0820               	movf	??_isr,w
  4539  0FC6  00F0               	movwf	select@b
  4540  0FC7  087B               	movf	_u1,w
  4541  0FC8  00A1               	movwf	??_isr+1
  4542  0FC9  0821               	movf	??_isr+1,w
  4543  0FCA  00F1               	movwf	select@c
  4544  0FCB  307A               	movlw	(low (_contador| 0))& (0+255)
  4545  0FCC  00A2               	movwf	??_isr+2
  4546  0FCD  0822               	movf	??_isr+2,w
  4547  0FCE  00F2               	movwf	select@contador
  4548  0FCF  1683               	bsf	3,5	;RP0=1, select bank1
  4549  0FD0  1303               	bcf	3,6	;RP1=0, select bank1
  4550  0FD1  0844               	movf	(_temperatura1+3)^(0+128),w
  4551  0FD2  00F6               	movwf	select@mandar+3
  4552  0FD3  0843               	movf	(_temperatura1+2)^(0+128),w
  4553  0FD4  00F5               	movwf	select@mandar+2
  4554  0FD5  0842               	movf	(_temperatura1+1)^(0+128),w
  4555  0FD6  00F4               	movwf	select@mandar+1
  4556  0FD7  0841               	movf	_temperatura1^(0+128),w
  4557  0FD8  00F3               	movwf	select@mandar
  4558  0FD9  087D               	movf	_c1,w
  4559  0FDA  120A  118A  27BA  120A  158A  	fcall	_select
  4560  0FDF  1283               	bcf	3,5	;RP0=0, select bank0
  4561  0FE0  1303               	bcf	3,6	;RP1=0, select bank0
  4562  0FE1  00A3               	movwf	??_isr+3
  4563  0FE2  0823               	movf	??_isr+3,w
  4564  0FE3  00E5               	movwf	_mandar
  4565  0FE4                     i1l2106:	
  4566                           
  4567                           ;main.c: 74:             SSPBUF = mandar;
  4568  0FE4  0865               	movf	_mandar,w
  4569  0FE5  0093               	movwf	19	;volatile
  4570  0FE6                     i1l2108:	
  4571                           
  4572                           ;main.c: 75:             SSPCONbits.CKP = 1;
  4573  0FE6  1614               	bsf	20,4	;volatile
  4574  0FE7                     i1l2110:	
  4575                           
  4576                           ;main.c: 76:             _delay((unsigned long)((250)*(4000000/4000000.0)));
  4577  0FE7  3052               	movlw	82
  4578  0FE8  1283               	bcf	3,5	;RP0=0, select bank0
  4579  0FE9  1303               	bcf	3,6	;RP1=0, select bank0
  4580  0FEA  00A0               	movwf	??_isr
  4581  0FEB                     u274_27:	
  4582  0FEB  0BA0               	decfsz	??_isr,f
  4583  0FEC  2FEB               	goto	u274_27
  4584  0FED  0000               	nop
  4585  0FEE                     i1l59:	
  4586                           ;main.c: 77:             while(SSPSTATbits.BF);
  4587                           
  4588  0FEE  1683               	bsf	3,5	;RP0=1, select bank1
  4589  0FEF  1303               	bcf	3,6	;RP1=0, select bank1
  4590  0FF0  1814               	btfsc	20,0	;volatile
  4591  0FF1  2FF3               	goto	u247_21
  4592  0FF2  2FF4               	goto	u247_20
  4593  0FF3                     u247_21:	
  4594  0FF3  2FEE               	goto	i1l59
  4595  0FF4                     u247_20:	
  4596  0FF4                     i1l57:	
  4597                           
  4598                           ;main.c: 81:         PIR1bits.SSPIF = 0;
  4599  0FF4  1283               	bcf	3,5	;RP0=0, select bank0
  4600  0FF5  1303               	bcf	3,6	;RP1=0, select bank0
  4601  0FF6  118C               	bcf	12,3	;volatile
  4602  0FF7                     i1l62:	
  4603  0FF7  0826               	movf	??_isr+6,w
  4604  0FF8  008A               	movwf	10
  4605  0FF9  0825               	movf	??_isr+5,w
  4606  0FFA  0084               	movwf	4
  4607  0FFB  0E24               	swapf	(??_isr+4)^0,w
  4608  0FFC  0083               	movwf	3
  4609  0FFD  0EFE               	swapf	btemp,f
  4610  0FFE  0E7E               	swapf	btemp,w
  4611  0FFF  0009               	retfie
  4612  1000                     __end_of_isr:	
  4613                           
  4614                           	psect	intentry
  4615  0004                     __pintentry:	
  4616                           ;incstack = 0
  4617                           ; Regs used in _isr: [wreg-fsr0h+status,2+status,0+pclath+cstack]
  4618                           
  4619  0004                     interrupt_function:	
  4620  007E                     saved_w	set	btemp
  4621  0004  00FE               	movwf	btemp
  4622  0005  0E03               	swapf	3,w
  4623  0006  1283               	bcf	3,5	;RP0=0, select bank0
  4624  0007  1303               	bcf	3,6	;RP1=0, select bank0
  4625  0008  00A4               	movwf	??_isr+4
  4626  0009  0804               	movf	4,w
  4627  000A  00A5               	movwf	??_isr+5
  4628  000B  080A               	movf	10,w
  4629  000C  00A6               	movwf	??_isr+6
  4630  000D  120A  158A  2F76   	ljmp	_isr
  4631                           
  4632                           	psect	text15
  4633  07BA                     __ptext15:	
  4634 ;; *************** function _select *****************
  4635 ;; Defined at:
  4636 ;;		line 135 in file "main.c"
  4637 ;; Parameters:    Size  Location     Type
  4638 ;;  a               1    wreg     unsigned char 
  4639 ;;  b               1    0[COMMON] unsigned char 
  4640 ;;  c               1    1[COMMON] unsigned char 
  4641 ;;  contador        1    2[COMMON] PTR unsigned char 
  4642 ;;		 -> contador(1), 
  4643 ;;  mandar          4    3[COMMON] unsigned long 
  4644 ;; Auto vars:     Size  Location     Type
  4645 ;;  a               1    9[COMMON] unsigned char 
  4646 ;;  z               1    0        unsigned char 
  4647 ;; Return value:  Size  Location     Type
  4648 ;;                  1    wreg      unsigned char 
  4649 ;; Registers used:
  4650 ;;		wreg, fsr0l, fsr0h, status,2, status,0
  4651 ;; Tracked objects:
  4652 ;;		On entry : 0/0
  4653 ;;		On exit  : 0/0
  4654 ;;		Unchanged: 0/0
  4655 ;; Data sizes:     COMMON   BANK0   BANK1   BANK3   BANK2
  4656 ;;      Params:         7       0       0       0       0
  4657 ;;      Locals:         2       0       0       0       0
  4658 ;;      Temps:          1       0       0       0       0
  4659 ;;      Totals:        10       0       0       0       0
  4660 ;;Total ram usage:       10 bytes
  4661 ;; Hardware stack levels used:    1
  4662 ;; This function calls:
  4663 ;;		Nothing
  4664 ;; This function is called by:
  4665 ;;		_isr
  4666 ;; This function uses a non-reentrant model
  4667 ;;
  4668                           
  4669                           
  4670                           ;psect for function _select
  4671  07BA                     _select:	
  4672                           
  4673                           ;incstack = 0
  4674                           ; Regs used in _select: [wreg-fsr0h+status,2+status,0]
  4675                           ;select@a stored from wreg
  4676  07BA  00F9               	movwf	select@a
  4677  07BB                     i1l1992:	
  4678                           
  4679                           ;main.c: 136:     uint8_t z;;main.c: 137:     if (*contador==0){
  4680  07BB  0872               	movf	select@contador,w
  4681  07BC  0084               	movwf	4
  4682  07BD  0800               	movf	0,w
  4683  07BE  1D03               	btfss	3,2
  4684  07BF  2FC1               	goto	u232_21
  4685  07C0  2FC2               	goto	u232_20
  4686  07C1                     u232_21:	
  4687  07C1  2FCD               	goto	i1l2002
  4688  07C2                     u232_20:	
  4689  07C2                     i1l1994:	
  4690                           
  4691                           ;main.c: 138:         *contador=*contador+1;
  4692  07C2  0872               	movf	select@contador,w
  4693  07C3  0084               	movwf	4
  4694  07C4  0800               	movf	0,w
  4695  07C5  3E01               	addlw	1
  4696  07C6  00F7               	movwf	??_select
  4697  07C7  0872               	movf	select@contador,w
  4698  07C8  0084               	movwf	4
  4699  07C9  0877               	movf	??_select,w
  4700  07CA  0080               	movwf	0
  4701  07CB                     i1l1996:	
  4702  07CB                     i1l1998:	
  4703                           
  4704                           ;main.c: 140:         return a;
  4705  07CB  0879               	movf	select@a,w
  4706  07CC  2FEF               	goto	i1l82
  4707  07CD                     i1l2002:	
  4708                           
  4709                           ;main.c: 142:     if (*contador==1){
  4710  07CD  0872               	movf	select@contador,w
  4711  07CE  0084               	movwf	4
  4712  07CF  0300               	decf	0,w
  4713  07D0  1D03               	btfss	3,2
  4714  07D1  2FD3               	goto	u233_21
  4715  07D2  2FD4               	goto	u233_20
  4716  07D3                     u233_21:	
  4717  07D3  2FDF               	goto	i1l2012
  4718  07D4                     u233_20:	
  4719  07D4                     i1l2004:	
  4720                           
  4721                           ;main.c: 143:         *contador=*contador+1;
  4722  07D4  0872               	movf	select@contador,w
  4723  07D5  0084               	movwf	4
  4724  07D6  0800               	movf	0,w
  4725  07D7  3E01               	addlw	1
  4726  07D8  00F7               	movwf	??_select
  4727  07D9  0872               	movf	select@contador,w
  4728  07DA  0084               	movwf	4
  4729  07DB  0877               	movf	??_select,w
  4730  07DC  0080               	movwf	0
  4731  07DD                     i1l2006:	
  4732  07DD                     i1l2008:	
  4733                           
  4734                           ;main.c: 145:         return b;
  4735  07DD  0870               	movf	select@b,w
  4736  07DE  2FEF               	goto	i1l82
  4737  07DF                     i1l2012:	
  4738                           
  4739                           ;main.c: 147:     if (*contador==2){
  4740  07DF  0872               	movf	select@contador,w
  4741  07E0  0084               	movwf	4
  4742  07E1  3002               	movlw	2
  4743  07E2  0600               	xorwf	0,w
  4744  07E3  1D03               	btfss	3,2
  4745  07E4  2FE6               	goto	u234_21
  4746  07E5  2FE7               	goto	u234_20
  4747  07E6                     u234_21:	
  4748  07E6  2FEC               	goto	i1l2022
  4749  07E7                     u234_20:	
  4750  07E7                     i1l2014:	
  4751                           
  4752                           ;main.c: 148:         *contador=0;
  4753  07E7  0872               	movf	select@contador,w
  4754  07E8  0084               	movwf	4
  4755  07E9  0180               	clrf	0
  4756  07EA                     i1l2016:	
  4757  07EA                     i1l2018:	
  4758                           
  4759                           ;main.c: 150:         return c;
  4760  07EA  0871               	movf	select@c,w
  4761  07EB  2FEF               	goto	i1l82
  4762  07EC                     i1l2022:	
  4763                           
  4764                           ;main.c: 152:     return *contador;
  4765  07EC  0872               	movf	select@contador,w
  4766  07ED  0084               	movwf	4
  4767  07EE  0800               	movf	0,w
  4768  07EF                     i1l82:	
  4769  07EF  0008               	return
  4770  07F0                     __end_of_select:	
  4771  007E                     btemp	set	126	;btemp
  4772  007E                     wtemp0	set	126


Data Sizes:
    Strings     0
    Constant    0
    Data        0
    BSS         15
    Persistent  0
    Stack       0

Auto Spaces:
    Space          Size  Autos    Used
    COMMON           14     10      14
    BANK0            80     65      72
    BANK1            80     33      37
    BANK3            96      0       0
    BANK2            96      0       0

Pointer List with Targets:

    select@contador	PTR unsigned char  size(1) Largest target is 1
		 -> contador(COMMON[1]), 

    int_distance@v3	PTR unsigned char  size(1) Largest target is 1
		 -> u1(COMMON[1]), 

    int_distance@v2	PTR unsigned char  size(1) Largest target is 1
		 -> d1(COMMON[1]), 

    int_distance@v1	PTR unsigned char  size(1) Largest target is 1
		 -> c1(COMMON[1]), 


Critical Paths under _main in COMMON

    None.

Critical Paths under _isr in COMMON

    _isr->_select

Critical Paths under _main in BANK0

    _setup->_lcd_setup
    _lcd_setup->_lcd_command
    _int_distance->___fltol
    ___xxtofl->___wmul
    ___fltol->___flsub
    ___flsub->___fldiv
    ___fldiv->___xxtofl

Critical Paths under _isr in BANK0

    None.

Critical Paths under _main in BANK1

    _main->_int_distance
    _int_distance->___fltol

Critical Paths under _isr in BANK1

    None.

Critical Paths under _main in BANK3

    None.

Critical Paths under _isr in BANK3

    None.

Critical Paths under _main in BANK2

    None.

Critical Paths under _isr in BANK2

    None.

Call Graph Tables:

 ---------------------------------------------------------------------------------
 (Depth) Function   	        Calls       Base Space   Used Autos Params    Refs
 ---------------------------------------------------------------------------------
 (0) _main                                                 3     3      0    6877
                                             30 BANK1      3     3      0
                       _int_distance
                              _setup
                              _tRead
 ---------------------------------------------------------------------------------
 (1) _tRead                                               10     8      2     139
                                              7 BANK0      9     7      2
 ---------------------------------------------------------------------------------
 (1) _setup                                                0     0      0      44
                     _I2C_Slave_Init
                          _lcd_setup
                             _tSetup
 ---------------------------------------------------------------------------------
 (2) _tSetup                                               3     3      0       0
                                              7 BANK0      3     3      0
 ---------------------------------------------------------------------------------
 (2) _lcd_setup                                            2     2      0      22
                                             10 BANK0      2     2      0
                        _lcd_command
 ---------------------------------------------------------------------------------
 (3) _lcd_command                                          3     3      0      22
                                              7 BANK0      3     3      0
 ---------------------------------------------------------------------------------
 (2) _I2C_Slave_Init                                       1     1      0      22
                                              7 BANK0      1     1      0
 ---------------------------------------------------------------------------------
 (1) _int_distance                                        23    16      7    6694
                                              7 BANK1     23    16      7
                            ___fldiv
                            ___flsub
                            ___fltol
                             ___wmul
                           ___xxtofl
 ---------------------------------------------------------------------------------
 (2) ___xxtofl                                            14    10      4     550
                                             13 BANK0     14    10      4
                             ___wmul (ARG)
 ---------------------------------------------------------------------------------
 (2) ___wmul                                               6     2      4     548
                                              7 BANK0      6     2      4
 ---------------------------------------------------------------------------------
 (2) ___fltol                                             11     7      4     607
                                             61 BANK0      4     0      4
                                              0 BANK1      7     7      0
                            ___fldiv (ARG)
                            ___flsub (ARG)
                             ___wmul (ARG)
                           ___xxtofl (ARG)
 ---------------------------------------------------------------------------------
 (2) ___flsub                                              8     0      8    2485
                                             53 BANK0      8     0      8
                            ___fladd
                            ___fldiv (ARG)
                             ___wmul (ARG)
                           ___xxtofl (ARG)
 ---------------------------------------------------------------------------------
 (3) ___fladd                                             20    12      8    2136
                                              7 BANK0     20    12      8
 ---------------------------------------------------------------------------------
 (2) ___fldiv                                             26    18      8    1729
                                             27 BANK0     26    18      8
                           ___xxtofl (ARG)
 ---------------------------------------------------------------------------------
 Estimated maximum stack depth 3
 ---------------------------------------------------------------------------------
 (Depth) Function   	        Calls       Base Space   Used Autos Params    Refs
 ---------------------------------------------------------------------------------
 (4) _isr                                                  7     7      0     637
                                              0 BANK0      7     7      0
                             _select
 ---------------------------------------------------------------------------------
 (5) _select                                              10     3      7     637
                                              0 COMMON    10     3      7
 ---------------------------------------------------------------------------------
 Estimated maximum stack depth 5
 ---------------------------------------------------------------------------------

 Call Graph Graphs:

 _main (ROOT)
   _int_distance
     ___fldiv
       ___xxtofl (ARG)
         ___wmul (ARG)
     ___flsub
       ___fladd
       ___fldiv (ARG)
         ___xxtofl (ARG)
           ___wmul (ARG)
       ___wmul (ARG)
       ___xxtofl (ARG)
         ___wmul (ARG)
     ___fltol
       ___fldiv (ARG)
         ___xxtofl (ARG)
           ___wmul (ARG)
       ___flsub (ARG)
         ___fladd
         ___fldiv (ARG)
           ___xxtofl (ARG)
             ___wmul (ARG)
         ___wmul (ARG)
         ___xxtofl (ARG)
           ___wmul (ARG)
       ___wmul (ARG)
       ___xxtofl (ARG)
         ___wmul (ARG)
     ___wmul
     ___xxtofl
       ___wmul (ARG)
   _setup
     _I2C_Slave_Init
     _lcd_setup
       _lcd_command
     _tSetup
   _tRead

 _isr (ROOT)
   _select

 Address spaces:
Name               Size   Autos  Total    Cost      Usage
BITCOMMON            E      0       0       0        0.0%
EEDATA             100      0       0       0        0.0%
NULL                 0      0       0       0        0.0%
CODE                 0      0       0       0        0.0%
COMMON               E      A       E       1      100.0%
BITSFR0              0      0       0       1        0.0%
SFR0                 0      0       0       1        0.0%
BITSFR1              0      0       0       2        0.0%
SFR1                 0      0       0       2        0.0%
STACK                0      0       0       2        0.0%
ABS                  0      0      7B       3        0.0%
BITBANK0            50      0       0       4        0.0%
BITSFR3              0      0       0       4        0.0%
SFR3                 0      0       0       4        0.0%
BANK0               50     41      48       5       90.0%
BITSFR2              0      0       0       5        0.0%
SFR2                 0      0       0       5        0.0%
BITBANK1            50      0       0       6        0.0%
BANK1               50     21      25       7       46.3%
BITBANK3            60      0       0       8        0.0%
BANK3               60      0       0       9        0.0%
BITBANK2            60      0       0      10        0.0%
BANK2               60      0       0      11        0.0%
DATA                 0      0      7B      12        0.0%


Microchip Technology PIC Macro Assembler V2.10 build 88905656 
Symbol Table                                                                                   Sun Mar 15 11:17:04 2020

            ___fldiv@aexp 0054              ___fldiv@bexp 0053                         _z 0066  
            ___fldiv@sign 004C               __CFG_CP$OFF 0000               _SSPSTATbits 0094  
                      _BF 04A0                        l75 0DBD                        l67 0F10  
                      l68 0F64                        l78 065F                        l99 0DD4  
                      _c1 007D                        _d1 007C                        _u1 007B  
     ___wmul@multiplicand 0029                       l202 0E0A                       l130 0EA1  
                     l141 0DEE                       l144 0EB2                       l145 0EE7  
                     l147 0F0A                       l602 01FF                       l290 0E55  
                     l612 0245                       l606 0223                       l623 02A5  
                     l615 0283                       l624 02B1                       l288 0E3D  
                     l481 07A2                       l721 06C9                       l474 07B9  
                     l627 0E2E                       l715 0684                       l484 07B9  
                     l661 0482                       l653 0400                       l637 030E  
                     l581 008D                       l717 071B                       l639 048E  
                     l728 06E5                       l585 0134                       l729 06F1  
                     l594 02B1                       l659 0472                       l587 010B  
                     _GIE 005F              __CFG_CPD$OFF 0000                       _isr 0F76  
                     fsr0 0004                       indf 0000              __CFG_LVP$OFF 0000  
            lcd_command@a 0029              ___fltol@exp1 00A6                      l2030 0EA2  
                    l2040 0EB3                      l2032 0EA6                      l2200 0F1D  
                    l2026 0DAD                      l2050 0EDB                      l2042 0EBB  
                    l2034 0EA7                      l2202 0F38                      l2052 0EEC  
                    l2044 0ECB                      l2036 0EAF                      l2204 0F3D  
                    l1510 0DD1                      l2046 0ED2                      l2206 0F4E  
                    l1600 011A                      l1520 003C                      l1512 002A  
                    l2160 075B                      l2152 071C                      l1504 0DC1  
                    l2056 0EF1                      l2048 0ED3                      l1610 0138  
                    l1602 011E                      l1522 0041                      l1530 0051  
                    l1514 0031                      l2162 075E                      l2154 072B  
                    l1506 0DC3                      l2058 0F06                      l1700 02A1  
                    l1620 0161                      l1612 013D                      l1604 011F  
                    l1540 006B                      l1532 0059                      l1524 0046  
                    l1516 0037                      l2164 0766                      l1508 0DC5  
                    l1702 02AC                      l1630 0175                      l1622 0165  
                    l1606 0128                      l1550 0082                      l1542 006F  
                    l1534 005E                      l1526 004E                      l1518 003B  
                    l2182 0793                      l2174 0776                      l2166 076A  
                    l2158 0736                      l2190 064A                      l1710 0E6A  
                    l1704 02B0                      l1640 01DD                      l1632 017E  
                    l1624 016E                      l1616 0146                      l1608 012C  
                    l1560 009B                      l1552 0083                      l1544 0070  
                    l1536 0064                      l1528 004F                      l1800 0E0B  
                    l2184 07A7                      l2168 076E                      l2176 078C  
                    l2192 0651                      l1720 0E8F                      l1712 0E70  
                    l1810 02BF                      l1642 01E2                      l1626 0170  
                    l1618 015D                      l1634 0183                      l1570 00AF  
                    l1562 009F                      l1546 0075                      l1554 0085  
                    l1538 0065                      l1802 0E0F                      l2186 07AC  
                    l2194 0658                      l1722 0E95                      l1714 0E7B  
                    l1706 0E56                      l1730 0DDD                      l1900 03D1  
                    l1820 02D6                      l1812 02C3                      l1660 022A  
                    l1652 0215                      l1636 0199                      l1644 01F1  
                    l1628 0174                      l1580 00C3                      l1572 00B3  
                    l1564 00A3                      l1556 0093                      l1548 007A  
                    l2188 048F                      l1740 0E01                      l1724 0E9B  
                    l1716 0E81                      l1708 0E5F                      l1732 0DE0  
                    l1910 03E9                      l1902 03DA                      l1830 02EC  
                    l1822 02D7                      l1814 02C4                      l1806 02B2  
                    l1670 0238                      l1662 022C                      l1654 021E  
                    l1646 0207                      l1638 01D7                      l1582 00C7  
                    l1574 00B7                      l1566 00A7                      l1558 0097  
                    l1590 00D7                      l1750 0E2F                      l1742 0E02  
                    l1718 0E89                      l1726 0DD5                      l2198 0F0B  
                    l1920 0418                      l1912 03FD                      l1904 03E0  
                    l1840 0303                      l1832 02F0                      l1816 02C9  
                    l1824 02D9                      l1808 02B9                      l1680 024F  
                    l1672 023C                      l1664 0231                      l1656 0222  
                    l1648 020C                      l1592 00D8                      l1584 00CB  
                    l1576 00BB                      l1568 00AB                      l1760 0E51  
                    l1752 0E33                      l1744 0E03                      l1736 0DF2  
                    l1728 0DDA                      l1930 0456                      l1922 041C  
                    l1906 03E4                      l1850 0326                      l1842 0304  
                    l1834 02F1                      l1826 02E1                      l1818 02CE  
                    l1690 028D                      l1682 025D                      l1674 0242  
                    l1658 0227                      l1666 0233                      l1594 00EF  
                    l1586 00CF                      l1578 00BF                      l1754 0E37  
                    l1746 0E04                      l1738 0E00                      l1940 047C  
                    l1932 0465                      l1924 0435                      l1916 0405  
                    l1908 03E5                      l1860 033D                      l1836 02F6  
                    l1844 0306                      l1828 02E6                      l1692 0295  
                    l1684 0261                      l1668 0237                      l1596 010F  
                    l1588 00D3                      l1756 0E44                      l1748 0E07  
                    l1942 047E                      l1934 0469                      l1918 040A  
                    l1926 043B                      l1870 0369                      l1862 034F  
                    l1846 0316                      l1854 032F                      l1838 02FB  
                    l1694 029A                      l1686 027F                      l1678 024A  
                    l1598 0118                      l1758 0E4B                      l1950 0668  
                    l1936 0471                      l1928 0448                      l1872 036E  
                    l1880 038E                      l1864 0357                      l1856 0334  
                    l1848 0322                      l1696 029B                      l1688 0288  
                    l1960 0695                      l1952 066C                      l1938 0478  
                    l1890 03B9                      l1882 03A0                      l1874 0380  
                    l1866 035F                      l1698 029F                      l1970 06C0  
                    l1962 069A                      l1954 067C                      l1892 03C1  
                    l1884 03A1                      l1876 0384                      l1868 0367  
                    l1980 06F3                      l1972 06D0                      l1964 06A7  
                    l1956 068C                      l1948 0663                      l1894 03C3  
                    l1886 03AF                      l1878 0385                      l1982 0709  
                    l1974 06DB                      l1966 06AE                      l1896 03CC  
                    l1888 03B3                      l1984 070E                      l1976 06DF  
                    l1968 06B2                      l1898 03D0                      l1986 0712  
                    l1978 06E9                      l1988 0713                      ?_isr 0070  
                    u2000 0384                      u2001 0383                      u2100 03FD  
                    u2020 03A0                      u1300 0041                      u2101 03FC  
                    u2021 039F                      u1301 0040                      u2110 0404  
                    u2030 03B9                      u1310 0046                      u2111 0403  
                    u2031 03B8                      u2015 0387                      u1311 0045  
                    u2120 040A                      u2040 03C1                      u1400 00FB  
                    u1320 0064                      u2200 068C                      u2121 0409  
                    u2041 03C0                      u2025 039C                      u1321 0063  
                    u2201 068B                      u2130 041C                      u1410 010F  
                    u1330 006F                      u2131 041B                      u1411 010E  
                    u1331 006E                      u2140 042B                      u2060 03D0  
                    u1500 0174                      u1420 011E                      u1340 0075  
                    u2300 070E                      u2220 06AD                      u2061 03CF  
                    u1501 0173                      u1421 011D                      u1341 0074  
                    u2301 070D                      u2221 06AC                      u2150 0448  
                    u1350 007A                      u2310 0712                      u2151 0447  
                    u2055 03C5                      u1351 0079                      u2311 0711  
                    u2215 069F                      u2160 0465                      u2080 03E4  
                    u1600 0227                      u1520 0199                      u1440 0134  
                    u1360 0093                      u2240 06CF                      u2161 0464  
                    u2145 0426                      u2081 03E3                      u1601 0226  
                    u1521 0198                      u1441 0133                      u1361 0092  
                    u2241 06CE                      u2170 047C                      u2090 03E9  
                    u1610 0231                      u1450 0138                      u1370 0097  
                    u1290 003B                      u2171 047B                      u2155 0444  
                    u2091 03E8                      u2075 03D3                      u1611 0230  
                    u1531 01B0                      u1523 0195                      u1515 0177  
                    u1451 0137                      u1435 0121                      u1371 0096  
                    u1291 003A                      u2235 06C1                      u1700 0288  
                    u1620 0237                      u1540 01C4                      u1532 01B1  
                    u1460 013D                      u1380 00EF                      u2260 06DF  
                    u2180 0668                      u2165 0461                      u1701 0287  
                    u1621 0236                      u1541 01C5                      u1533 01B6  
                    u1461 013C                      u1381 00EE                      u2261 06DE  
                    u2181 0667                      u1710 028D                      u1630 023C  
                    u1550 01E2                      u1542 01CA                      u1534 01B7  
                    u1390 00FA                      u2270 06E5                      u2190 066C  
                    u1711 028C                      u1631 023B                      u1551 01E1  
                    u1543 01CB                      u1535 01BC                      u1471 014F  
                    u1391 00F8                      u2271 06E4                      u2255 06D4  
                    u2191 066B                      u1720 029A                      u1640 0242  
                    u1560 0207                      u1536 01BD                      u1480 0161  
                    u1472 0156                      u2600 07A7                      u2520 072B  
                    u2280 06E9                      u2360 0EE7                      u1721 0299  
                    u1641 0241                      u1561 0206                      u1481 0160  
                    u1473 015D                      u1385 00EB                      u2601 07A6  
                    u2521 072A                      u2281 06E8                      u2361 0EE6  
                    u1730 029F                      u1650 0249                      u1570 020C  
                    u1490 0165                      u2610 07AC                      u2530 0754  
                    u2290 06FE                      u2370 0EEC                      u1731 029E  
                    u1651 0248                      u1571 020B                      u1491 0164  
                    u2611 07AB                      u2371 0EEB                      u2355 0ECC  
                    u1900 02C9                      u1740 02B0                      u1660 024F  
                    u2540 076E                      u2620 0F3D                      u1901 02C8  
                    u1741 02AF                      u1661 024E                      u2541 076D  
                    u2621 0F3C                      u1910 02CE                      u1670 0261  
                    u1590 0222                      u2550 0775                      u1750 0E37  
                    u2630 0F4E                      u1911 02CD                      u1671 0260  
                    u1591 0221                      u2551 0774                      u2535 074F  
                    u1751 0E36                      u2295 06F9                      u2631 0F4D  
                    u1920 02F0                      u1680 0270                      u1921 02EF  
                    u1585 0217                      u2385 0EF2                      u1930 02F6  
                    u1690 027F                      u2570 078B                      u1931 02F5  
                    u1691 027E                      u2571 078A                      u2707 0E76  
                    u1940 02FB                      u2580 0792                      u1780 0E51  
                    u1941 02FA                      u1685 026B                      u2581 0791  
                    u2565 0777                      u1781 0E50                      u1765 0E3E  
                    u2717 0E85                      u1950 0316                      u1951 0315  
                    u1775 0E45                      u2727 0DCC                      u2647 0F6C  
                    u1960 0334                      u1961 0333                      u2657 0EAB  
                    u1970 036E                      u1890 02C3                      u1971 036D  
                    u1891 02C2                      u2595 0795                      u2667 0EB7  
                    _PEIE 005E                      u2677 0ED7                      u2687 0DE8  
                    u1985 0370                      u2697 0E65                      u1995 0379  
                    i1l53 0FB0                      i1l54 0F9C                      i1l62 0FF7  
                    i1l57 0FF4                      i1l82 07EF                      i1l59 0FEE  
            __CFG_WRT$OFF 0000                      _main 0F0B                      btemp 007E  
                    start 0010             __CFG_IESO$OFF 0000           ___fldiv@new_exp 004D  
                   ??_isr 0020             ___fltol@sign1 00A5           __end_of___fladd 02B2  
                   ?_main 0070           __end_of___fldiv 048F             __CFG_WDTE$OFF 0000  
         __end_of___flsub 0E2F           __end_of___fltol 07BA                     _ANSEL 0188  
                   _PORTB 0006                     _TRISB 0086                     _TRISD 0088  
                   _SSPIE 0463                     _SSPIF 0063            __CFG_FCMEN$OFF 0000  
                   _tRead 0EA2                     _setup 0DAD            __CFG_BOREN$OFF 0000  
                   pclath 000A                     status 0003                     wtemp0 007E  
          __CFG_MCLRE$OFF 0000           __initialization 0013              __end_of_main 0F76  
                  ??_main 00BE                    ?_tRead 0027                    ?_setup 0070  
                  _ANSELH 0189                    i1l2002 07CD                    i1l2004 07D4  
                  i1l2012 07DF                    i1l2100 0FB8                    i1l2014 07E7  
                  i1l2022 07EC                    i1l2006 07DD                    i1l2110 0FE7  
                  i1l2102 0FBE                    i1l2016 07EA                    i1l2008 07DD  
                  i1l2104 0FC1                    i1l2018 07EA                    i1l2106 0FE4  
                  i1l2108 0FE6                    i1l2080 0F87                    i1l2072 0F76  
                  i1l2090 0F94                    i1l2082 0F88                    i1l2074 0F7A  
                  i1l2092 0F9A                    i1l2084 0F89                    i1l2076 0F7F  
                  i1l2094 0F9B                    i1l2086 0F8A                    i1l2078 0F83  
                  i1l2096 0FA2                    i1l2088 0F90                    i1l2098 0FB4  
                  i1l1992 07BB                    i1l1994 07C2                    i1l1996 07CB  
                  i1l1998 07CB                    u232_20 07C2                    u240_20 0F7F  
                  u232_21 07C1                    u240_21 0F7E                    u233_20 07D4  
                  u241_20 0F83                    u233_21 07D3                    u241_21 0F82  
                  u234_20 07E7                    u242_20 0F90                    u234_21 07E6  
                  u242_21 0F8F                    u243_20 0F94                    u243_21 0F93  
                  u244_20 0FA2                    u244_21 0FA1                    u245_20 0FB4  
                  u245_21 0FB3                    u246_20 0FB8                    u246_21 0FB7  
                  u247_20 0FF4                    u239_20 0F7A                    u247_21 0FF3  
                  u239_21 0F79                    u273_27 0FAC                    u274_27 0FEB  
                  _SSPADD 0093                    _TRISC3 043B                    _TRISC4 043C  
                  _SSPBUF 0013                    _SSPCON 0014          __end_of___xxtofl 071C  
          __CFG_PWRTE$OFF 0000      __size_of_lcd_command 0017             ?_int_distance 00A7  
               ??___fladd 002F                    ___wmul 0E2F                 ??___fldiv 0043  
               ??___flsub 005D                 ??___fltol 00A0                    _borrar 0067  
                  _mandar 0065                    _tSetup 0DD5                    _select 07BA  
                  tRead@i 002D                    saved_w 007E              ___xxtofl@arg 0037  
            ___xxtofl@exp 0036              ___xxtofl@val 002D   __end_of__initialization 0026  
              ___fltol@f1 005D            ??_int_distance 00AE            __pcstackCOMMON 0070  
 __size_of_I2C_Slave_Init 001C             __end_of_tRead 0F0B             __end_of_setup 0DBE  
      __size_of_lcd_setup 004C                   ??_tRead 0029                   ??_setup 002C  
   I2C_Slave_Init@address 0027                __pbssBANK0 0061                __pbssBANK1 00C1  
              __pmaintext 0F0B                   ?___wmul 0027                __pintentry 0004  
                 ?_tSetup 0070                   ?_select 0070                 ?___xxtofl 002D  
                 _SSPCON2 0091                   _SSPSTAT 0094         __end_of_lcd_setup 0EA2  
                 ___fladd 002A                   ___fldiv 02B2                   ___flsub 0E0B  
                 ___fltol 071C           __size_of___wmul 0027           __size_of_tSetup 001A  
         __size_of_select 0036                   __ptext1 0EA2                   __ptext2 0DAD  
                 __ptext3 0DD5                   __ptext4 0E56                   __ptext5 0DBE  
                 __ptext6 0DEF                   __ptext7 048F                   __ptext8 0660  
                 __ptext9 0E2F              __size_of_isr 008A                ??___xxtofl 0031  
    __end_of_int_distance 0660      end_of_initialization 0026         int_distance@valor 00A7  
                 select@a 0079                   select@b 0070                   select@c 0071  
          _I2C_Slave_Init 0DEF                 _PORTAbits 0005                 _PORTDbits 0008  
              tRead@valor 002E               ___fladd@grs 003A             ___xxtofl@sign 0035  
               _TRISAbits 0085                 _TRISCbits 0087               ___fldiv@grs 004F  
             ___fldiv@rem 0048             ??_lcd_command 0027    __end_of_I2C_Slave_Init 0E0B  
          __end_of___wmul 0E56            __end_of_tSetup 0DEF            __end_of_select 07F0  
     start_initialization 0013               __end_of_isr 1000  __CFG_FOSC$INTRC_NOCLKOUT 0000  
         ?_I2C_Slave_Init 0070                  ??___wmul 002B       __end_of_lcd_command 0DD5  
                ??_tSetup 0027                  ??_select 0077                 ___fladd@a 002B  
               ___fladd@b 0027     __size_of_int_distance 01D1                 ___fldiv@a 003B  
               ___fldiv@b 003F               __pbssCOMMON 007A                 ___flsub@a 0055  
               ___flsub@b 0059                 ___latbits 0002             __pcstackBANK0 0020  
           __pcstackBANK1 00A0         __size_of___xxtofl 00BC                  ?___fladd 0027  
                ?___fldiv 003B              _int_distance 048F                  ?___flsub 0055  
                ?___fltol 005D                 _lcd_setup 0E56            __size_of_tRead 0069  
          __size_of_setup 0011         interrupt_function 0004            ___wmul@product 002B  
        int_distance@conv 00B9               _lcd_command 0DBE                  _PIR1bits 000C  
            select@mandar 0073                ?_lcd_setup 0070         ___wmul@multiplier 0027  
        __size_of___fladd 0288          __size_of___fldiv 01DD          __size_of___flsub 0024  
        __size_of___fltol 009E                  ___xxtofl 0660                  __ptext10 071C  
                __ptext11 0E0B                  __ptext12 002A                  __ptext13 02B2  
                __ptext14 0F76                  __ptext15 07BA         __CFG_BOR4V$BOR40V 0000  
                _contador 007A          ??_I2C_Slave_Init 0027             __size_of_main 006B  
             ??_lcd_setup 002A              _temperatura1 00C1                  intlevel1 0000  
          select@contador 0072            int_distance@v1 00AB            int_distance@v2 00AC  
          int_distance@v3 00AD               _temperatura 0061             int_distance@c 00BD  
           int_distance@d 00B8             int_distance@u 00B7               _SSPCON2bits 0091  
           ___fladd@signs 0037              ___fladd@aexp 0038              ___fladd@bexp 0039  
              _SSPCONbits 0014              ?_lcd_command 0070  
